ARM GAS  C:\Users\SCOTTC~1\AppData\Local\Temp\cclG99B3.s 			page 1


   1              		.syntax unified
   2              		.cpu cortex-m3
   3              		.fpu softvfp
   4              		.eabi_attribute 20, 1
   5              		.eabi_attribute 21, 1
   6              		.eabi_attribute 23, 3
   7              		.eabi_attribute 24, 1
   8              		.eabi_attribute 25, 1
   9              		.eabi_attribute 26, 1
  10              		.eabi_attribute 30, 1
  11              		.eabi_attribute 34, 1
  12              		.eabi_attribute 18, 4
  13              		.thumb
  14              		.file	"main.c"
  15              		.text
  16              	.Ltext0:
  17              		.cfi_sections	.debug_frame
  18              		.section	.text.Configure_DMA,"ax",%progbits
  19              		.align	2
  20              		.global	Configure_DMA
  21              		.thumb
  22              		.thumb_func
  23              		.type	Configure_DMA, %function
  24              	Configure_DMA:
  25              	.LFB64:
  26              		.file 1 ".\\main.c"
   1:.\main.c      **** /* ========================================
   2:.\main.c      ****  *
   3:.\main.c      ****  * Copyright YOUR COMPANY, THE YEAR
   4:.\main.c      ****  * All Rights Reserved
   5:.\main.c      ****  * UNPUBLISHED, LICENSED SOFTWARE.
   6:.\main.c      ****  *
   7:.\main.c      ****  * CONFIDENTIAL AND PROPRIETARY INFORMATION
   8:.\main.c      ****  * WHICH IS THE PROPERTY OF your company.
   9:.\main.c      ****  *
  10:.\main.c      ****  * ========================================
  11:.\main.c      **** */
  12:.\main.c      **** #include <project.h>
  13:.\main.c      **** 
  14:.\main.c      **** /* Variable declarations for DMA_1 */
  15:.\main.c      **** /* Move these variable declarations to the top of the function */
  16:.\main.c      **** uint8 DMA_1_Chan;
  17:.\main.c      **** uint8 DMA_1_TD[1];
  18:.\main.c      **** uint16 source;
  19:.\main.c      **** 
  20:.\main.c      **** /* DMA Configuration for DMA_1 */
  21:.\main.c      **** #define num_samples 1
  22:.\main.c      **** #define DMA_1_BYTES_PER_BURST 2
  23:.\main.c      **** #define DMA_1_REQUEST_PER_BURST 1
  24:.\main.c      **** #define DMA_1_SRC_BASE (CYDEV_SRAM_BASE)
  25:.\main.c      **** #define DMA_1_DST_BASE (CYDEV_PERIPH_BASE)
  26:.\main.c      **** #define buffersize num_samples*DMA_1_BYTES_PER_BURST
  27:.\main.c      **** 
  28:.\main.c      **** void Configure_DMA();
  29:.\main.c      **** 
  30:.\main.c      **** int main()
  31:.\main.c      **** {
ARM GAS  C:\Users\SCOTTC~1\AppData\Local\Temp\cclG99B3.s 			page 2


  32:.\main.c      ****     
  33:.\main.c      ****     CyGlobalIntEnable; /* Enable global interrupts. */
  34:.\main.c      ****     
  35:.\main.c      ****     source=0x0001;
  36:.\main.c      ****     /* Place your initialization/startup code here (e.g. MyInst_Start()) */
  37:.\main.c      ****     Configure_DMA();
  38:.\main.c      ****     STC_Datapath16_v1_00_Start();
  39:.\main.c      ****     
  40:.\main.c      ****     for(;;)
  41:.\main.c      ****     {
  42:.\main.c      ****         /* Place your application code here. */
  43:.\main.c      ****     }
  44:.\main.c      **** }
  45:.\main.c      **** 
  46:.\main.c      **** /* [] END OF FILE */
  47:.\main.c      **** 
  48:.\main.c      **** void Configure_DMA(){
  27              		.loc 1 48 0
  28              		.cfi_startproc
  29              		@ args = 0, pretend = 0, frame = 0
  30              		@ frame_needed = 0, uses_anonymous_args = 0
  31 0000 38B5     		push	{r3, r4, r5, lr}
  32              		.cfi_def_cfa_offset 16
  33              		.cfi_offset 3, -16
  34              		.cfi_offset 4, -12
  35              		.cfi_offset 5, -8
  36              		.cfi_offset 14, -4
  49:.\main.c      **** DMA_1_Chan = DMA_1_DmaInitialize(DMA_1_BYTES_PER_BURST, DMA_1_REQUEST_PER_BURST, 
  37              		.loc 1 49 0
  38 0002 0220     		movs	r0, #2
  39 0004 0121     		movs	r1, #1
  40 0006 41F6FF72 		movw	r2, #8191
  41 000a 4FF48043 		mov	r3, #16384
  42 000e FFF7FEFF 		bl	DMA_1_DmaInitialize
  43              	.LVL0:
  44 0012 0D4C     		ldr	r4, .L2
  45 0014 2070     		strb	r0, [r4]
  50:.\main.c      ****     HI16(DMA_1_SRC_BASE), HI16(DMA_1_DST_BASE));
  51:.\main.c      **** DMA_1_TD[0] = CyDmaTdAllocate();
  46              		.loc 1 51 0
  47 0016 FFF7FEFF 		bl	CyDmaTdAllocate
  48              	.LVL1:
  49 001a 0C4D     		ldr	r5, .L2+4
  50 001c 2870     		strb	r0, [r5]
  52:.\main.c      **** CyDmaTdSetConfiguration(DMA_1_TD[0], buffersize, CY_DMA_DISABLE_TD, TD_INC_SRC_ADR);
  51              		.loc 1 52 0
  52 001e 0221     		movs	r1, #2
  53 0020 FE22     		movs	r2, #254
  54 0022 0123     		movs	r3, #1
  55 0024 FFF7FEFF 		bl	CyDmaTdSetConfiguration
  56              	.LVL2:
  53:.\main.c      **** CyDmaTdSetAddress(DMA_1_TD[0], LO16((uint32)source), LO16((uint32)STC_Datapath16_v1_00_A0_PTR));
  57              		.loc 1 53 0
  58 0028 2878     		ldrb	r0, [r5]	@ zero_extendqisi2
  59 002a 094B     		ldr	r3, .L2+8
  60 002c 1988     		ldrh	r1, [r3]
  61 002e 46F61402 		movw	r2, #26644
ARM GAS  C:\Users\SCOTTC~1\AppData\Local\Temp\cclG99B3.s 			page 3


  62 0032 FFF7FEFF 		bl	CyDmaTdSetAddress
  63              	.LVL3:
  54:.\main.c      **** CyDmaChSetInitialTd(DMA_1_Chan, DMA_1_TD[0]);
  64              		.loc 1 54 0
  65 0036 2078     		ldrb	r0, [r4]	@ zero_extendqisi2
  66 0038 2978     		ldrb	r1, [r5]	@ zero_extendqisi2
  67 003a FFF7FEFF 		bl	CyDmaChSetInitialTd
  68              	.LVL4:
  55:.\main.c      **** CyDmaChEnable(DMA_1_Chan, 1);
  69              		.loc 1 55 0
  70 003e 2078     		ldrb	r0, [r4]	@ zero_extendqisi2
  71 0040 0121     		movs	r1, #1
  72 0042 FFF7FEFF 		bl	CyDmaChEnable
  73              	.LVL5:
  74 0046 38BD     		pop	{r3, r4, r5, pc}
  75              	.L3:
  76              		.align	2
  77              	.L2:
  78 0048 00000000 		.word	DMA_1_Chan
  79 004c 00000000 		.word	DMA_1_TD
  80 0050 00000000 		.word	source
  81              		.cfi_endproc
  82              	.LFE64:
  83              		.size	Configure_DMA, .-Configure_DMA
  84              		.section	.text.main,"ax",%progbits
  85              		.align	2
  86              		.global	main
  87              		.thumb
  88              		.thumb_func
  89              		.type	main, %function
  90              	main:
  91              	.LFB63:
  31:.\main.c      **** {
  92              		.loc 1 31 0
  93              		.cfi_startproc
  94              		@ Volatile: function does not return.
  95              		@ args = 0, pretend = 0, frame = 0
  96              		@ frame_needed = 0, uses_anonymous_args = 0
  97 0000 08B5     		push	{r3, lr}
  98              		.cfi_def_cfa_offset 8
  99              		.cfi_offset 3, -8
 100              		.cfi_offset 14, -4
  33:.\main.c      ****     CyGlobalIntEnable; /* Enable global interrupts. */
 101              		.loc 1 33 0
 102              	@ 33 ".\main.c" 1
 103 0002 62B6     		CPSIE   i
 104              	@ 0 "" 2
  35:.\main.c      ****     source=0x0001;
 105              		.loc 1 35 0
 106              		.thumb
 107 0004 0122     		movs	r2, #1
 108 0006 034B     		ldr	r3, .L6
 109 0008 1A80     		strh	r2, [r3]	@ movhi
  37:.\main.c      ****     Configure_DMA();
 110              		.loc 1 37 0
 111 000a FFF7FEFF 		bl	Configure_DMA
 112              	.LVL6:
ARM GAS  C:\Users\SCOTTC~1\AppData\Local\Temp\cclG99B3.s 			page 4


  38:.\main.c      ****     STC_Datapath16_v1_00_Start();
 113              		.loc 1 38 0
 114 000e FFF7FEFF 		bl	STC_Datapath16_v1_00_Start
 115              	.LVL7:
 116              	.L5:
 117 0012 FEE7     		b	.L5
 118              	.L7:
 119              		.align	2
 120              	.L6:
 121 0014 00000000 		.word	source
 122              		.cfi_endproc
 123              	.LFE63:
 124              		.size	main, .-main
 125              		.comm	source,2,2
 126              		.comm	DMA_1_TD,1,4
 127              		.comm	DMA_1_Chan,1,1
 128              		.text
 129              	.Letext0:
 130              		.file 2 "c:\\program files\\cypress\\psoc creator\\3.2\\psoc creator\\import\\gnu\\arm\\4.8.4\\arm
 131              		.file 3 "c:\\program files\\cypress\\psoc creator\\3.2\\psoc creator\\import\\gnu\\arm\\4.8.4\\arm
 132              		.file 4 "Generated_Source\\PSoC5/cytypes.h"
 133              		.file 5 "Generated_Source\\PSoC5/core_cm3.h"
 134              		.file 6 "Generated_Source\\PSoC5/DMA_1_dma.h"
 135              		.file 7 "Generated_Source\\PSoC5/CYDMAC.H"
 136              		.file 8 "Generated_Source\\PSoC5/STC_Datapath16_v1_00.h"