ARM GAS  C:\Users\SCOTTC~1\AppData\Local\Temp\ccOmMcpa.s 			page 1


   1              		.syntax unified
   2              		.cpu cortex-m3
   3              		.fpu softvfp
   4              		.eabi_attribute 20, 1
   5              		.eabi_attribute 21, 1
   6              		.eabi_attribute 23, 3
   7              		.eabi_attribute 24, 1
   8              		.eabi_attribute 25, 1
   9              		.eabi_attribute 26, 1
  10              		.eabi_attribute 30, 6
  11              		.eabi_attribute 34, 1
  12              		.eabi_attribute 18, 4
  13              		.thumb
  14              		.file	"cyfitter_cfg.c"
  15              		.text
  16              	.Ltext0:
  17              		.cfi_sections	.debug_frame
  18              		.section	.text.CYMEMZERO,"ax",%progbits
  19              		.align	2
  20              		.thumb
  21              		.thumb_func
  22              		.type	CYMEMZERO, %function
  23              	CYMEMZERO:
  24              	.LFB0:
  25              		.file 1 ".\\Generated_Source\\PSoC5\\cyfitter_cfg.c"
   1:.\Generated_Source\PSoC5/cyfitter_cfg.c **** /*******************************************************************************
   2:.\Generated_Source\PSoC5/cyfitter_cfg.c **** * FILENAME: cyfitter_cfg.c
   3:.\Generated_Source\PSoC5/cyfitter_cfg.c **** * 
   4:.\Generated_Source\PSoC5/cyfitter_cfg.c **** * PSoC Creator  3.2 SP1
   5:.\Generated_Source\PSoC5/cyfitter_cfg.c **** *
   6:.\Generated_Source\PSoC5/cyfitter_cfg.c **** * DESCRIPTION:
   7:.\Generated_Source\PSoC5/cyfitter_cfg.c **** * This file contains device initialization code.
   8:.\Generated_Source\PSoC5/cyfitter_cfg.c **** * Except for the user defined sections in CyClockStartupError(), this file should not be modified.
   9:.\Generated_Source\PSoC5/cyfitter_cfg.c **** * This file is automatically generated by PSoC Creator.
  10:.\Generated_Source\PSoC5/cyfitter_cfg.c **** *
  11:.\Generated_Source\PSoC5/cyfitter_cfg.c **** ********************************************************************************
  12:.\Generated_Source\PSoC5/cyfitter_cfg.c **** * Copyright (c) 2007-2015 Cypress Semiconductor.  All rights reserved.
  13:.\Generated_Source\PSoC5/cyfitter_cfg.c **** * You may use this file only in accordance with the license, terms, conditions, 
  14:.\Generated_Source\PSoC5/cyfitter_cfg.c **** * disclaimers, and limitations in the end user license agreement accompanying 
  15:.\Generated_Source\PSoC5/cyfitter_cfg.c **** * the software package with which this file was provided.
  16:.\Generated_Source\PSoC5/cyfitter_cfg.c **** ********************************************************************************/
  17:.\Generated_Source\PSoC5/cyfitter_cfg.c **** 
  18:.\Generated_Source\PSoC5/cyfitter_cfg.c **** #include <string.h>
  19:.\Generated_Source\PSoC5/cyfitter_cfg.c **** #include "cytypes.h"
  20:.\Generated_Source\PSoC5/cyfitter_cfg.c **** #include "cydevice_trm.h"
  21:.\Generated_Source\PSoC5/cyfitter_cfg.c **** #include "cyfitter.h"
  22:.\Generated_Source\PSoC5/cyfitter_cfg.c **** #include "CyLib.h"
  23:.\Generated_Source\PSoC5/cyfitter_cfg.c **** #include "cyfitter_cfg.h"
  24:.\Generated_Source\PSoC5/cyfitter_cfg.c **** 
  25:.\Generated_Source\PSoC5/cyfitter_cfg.c **** #define CY_NEED_CYCLOCKSTARTUPERROR 1
  26:.\Generated_Source\PSoC5/cyfitter_cfg.c **** 
  27:.\Generated_Source\PSoC5/cyfitter_cfg.c **** 
  28:.\Generated_Source\PSoC5/cyfitter_cfg.c **** #if defined(__GNUC__) || defined(__ARMCC_VERSION)
  29:.\Generated_Source\PSoC5/cyfitter_cfg.c ****     #define CYPACKED 
  30:.\Generated_Source\PSoC5/cyfitter_cfg.c ****     #define CYPACKED_ATTR __attribute__ ((packed))
  31:.\Generated_Source\PSoC5/cyfitter_cfg.c ****     #define CYALIGNED __attribute__ ((aligned))
  32:.\Generated_Source\PSoC5/cyfitter_cfg.c ****     #define CY_CFG_UNUSED __attribute__ ((unused))
ARM GAS  C:\Users\SCOTTC~1\AppData\Local\Temp\ccOmMcpa.s 			page 2


  33:.\Generated_Source\PSoC5/cyfitter_cfg.c ****     #define CY_CFG_SECTION __attribute__ ((section(".psocinit")))
  34:.\Generated_Source\PSoC5/cyfitter_cfg.c ****     
  35:.\Generated_Source\PSoC5/cyfitter_cfg.c ****     #if CYDEV_CONFIGURATION_DMA
  36:.\Generated_Source\PSoC5/cyfitter_cfg.c ****         #if (defined(__ARMCC_VERSION) || defined(__GNUC__))
  37:.\Generated_Source\PSoC5/cyfitter_cfg.c ****             #define DMAINITSEC __attribute__ ((section(".dma_init")))
  38:.\Generated_Source\PSoC5/cyfitter_cfg.c ****         #elif defined(__ICCARM__)
  39:.\Generated_Source\PSoC5/cyfitter_cfg.c ****             #define DMAINITSEC _Pragma("location=\".dma_init\"")
  40:.\Generated_Source\PSoC5/cyfitter_cfg.c ****         #endif
  41:.\Generated_Source\PSoC5/cyfitter_cfg.c ****     #else
  42:.\Generated_Source\PSoC5/cyfitter_cfg.c ****         #define DMAINITSEC
  43:.\Generated_Source\PSoC5/cyfitter_cfg.c ****     #endif
  44:.\Generated_Source\PSoC5/cyfitter_cfg.c **** 
  45:.\Generated_Source\PSoC5/cyfitter_cfg.c ****     #if defined(__ARMCC_VERSION)
  46:.\Generated_Source\PSoC5/cyfitter_cfg.c ****         #define CY_CFG_MEMORY_BARRIER() __memory_changed()
  47:.\Generated_Source\PSoC5/cyfitter_cfg.c ****     #else
  48:.\Generated_Source\PSoC5/cyfitter_cfg.c ****         #define CY_CFG_MEMORY_BARRIER() __sync_synchronize()
  49:.\Generated_Source\PSoC5/cyfitter_cfg.c ****     #endif
  50:.\Generated_Source\PSoC5/cyfitter_cfg.c ****     
  51:.\Generated_Source\PSoC5/cyfitter_cfg.c **** #elif defined(__ICCARM__)
  52:.\Generated_Source\PSoC5/cyfitter_cfg.c ****     #include <intrinsics.h>
  53:.\Generated_Source\PSoC5/cyfitter_cfg.c **** 
  54:.\Generated_Source\PSoC5/cyfitter_cfg.c ****     #define CYPACKED __packed
  55:.\Generated_Source\PSoC5/cyfitter_cfg.c ****     #define CYPACKED_ATTR 
  56:.\Generated_Source\PSoC5/cyfitter_cfg.c ****     #define CYALIGNED _Pragma("data_alignment=4")
  57:.\Generated_Source\PSoC5/cyfitter_cfg.c ****     #define CY_CFG_UNUSED _Pragma("diag_suppress=Pe177")
  58:.\Generated_Source\PSoC5/cyfitter_cfg.c ****     #define CY_CFG_SECTION _Pragma("location=\".psocinit\"")
  59:.\Generated_Source\PSoC5/cyfitter_cfg.c ****     
  60:.\Generated_Source\PSoC5/cyfitter_cfg.c ****     #if CYDEV_CONFIGURATION_DMA
  61:.\Generated_Source\PSoC5/cyfitter_cfg.c ****         #if (defined(__ARMCC_VERSION) || defined(__GNUC__))
  62:.\Generated_Source\PSoC5/cyfitter_cfg.c ****             #define DMAINITSEC __attribute__ ((section(".dma_init")))
  63:.\Generated_Source\PSoC5/cyfitter_cfg.c ****         #elif defined(__ICCARM__)
  64:.\Generated_Source\PSoC5/cyfitter_cfg.c ****             #define DMAINITSEC _Pragma("location=\".dma_init\"")
  65:.\Generated_Source\PSoC5/cyfitter_cfg.c ****         #endif
  66:.\Generated_Source\PSoC5/cyfitter_cfg.c ****     #else
  67:.\Generated_Source\PSoC5/cyfitter_cfg.c ****         #define DMAINITSEC
  68:.\Generated_Source\PSoC5/cyfitter_cfg.c ****     #endif
  69:.\Generated_Source\PSoC5/cyfitter_cfg.c **** 
  70:.\Generated_Source\PSoC5/cyfitter_cfg.c ****     #define CY_CFG_MEMORY_BARRIER() __DMB()
  71:.\Generated_Source\PSoC5/cyfitter_cfg.c ****     
  72:.\Generated_Source\PSoC5/cyfitter_cfg.c **** #else
  73:.\Generated_Source\PSoC5/cyfitter_cfg.c ****     #error Unsupported toolchain
  74:.\Generated_Source\PSoC5/cyfitter_cfg.c **** #endif
  75:.\Generated_Source\PSoC5/cyfitter_cfg.c **** 
  76:.\Generated_Source\PSoC5/cyfitter_cfg.c **** 
  77:.\Generated_Source\PSoC5/cyfitter_cfg.c **** CY_CFG_UNUSED
  78:.\Generated_Source\PSoC5/cyfitter_cfg.c **** static void CYMEMZERO(void *s, size_t n);
  79:.\Generated_Source\PSoC5/cyfitter_cfg.c **** CY_CFG_UNUSED
  80:.\Generated_Source\PSoC5/cyfitter_cfg.c **** static void CYMEMZERO(void *s, size_t n)
  81:.\Generated_Source\PSoC5/cyfitter_cfg.c **** {
  26              		.loc 1 81 0
  27              		.cfi_startproc
  28              		@ args = 0, pretend = 0, frame = 8
  29              		@ frame_needed = 1, uses_anonymous_args = 0
  30 0000 80B5     		push	{r7, lr}
  31              		.cfi_def_cfa_offset 8
  32              		.cfi_offset 7, -8
  33              		.cfi_offset 14, -4
ARM GAS  C:\Users\SCOTTC~1\AppData\Local\Temp\ccOmMcpa.s 			page 3


  34 0002 82B0     		sub	sp, sp, #8
  35              		.cfi_def_cfa_offset 16
  36 0004 00AF     		add	r7, sp, #0
  37              		.cfi_def_cfa_register 7
  38 0006 7860     		str	r0, [r7, #4]
  39 0008 3960     		str	r1, [r7]
  82:.\Generated_Source\PSoC5/cyfitter_cfg.c **** 	(void)memset(s, 0, n);
  40              		.loc 1 82 0
  41 000a 7868     		ldr	r0, [r7, #4]
  42 000c 0021     		movs	r1, #0
  43 000e 3A68     		ldr	r2, [r7]
  44 0010 FFF7FEFF 		bl	memset
  83:.\Generated_Source\PSoC5/cyfitter_cfg.c **** }
  45              		.loc 1 83 0
  46 0014 0837     		adds	r7, r7, #8
  47 0016 BD46     		mov	sp, r7
  48              		@ sp needed
  49 0018 80BD     		pop	{r7, pc}
  50              		.cfi_endproc
  51              	.LFE0:
  52              		.size	CYMEMZERO, .-CYMEMZERO
  53 001a 00BF     		.section	.text.CYCONFIGCPY,"ax",%progbits
  54              		.align	2
  55              		.thumb
  56              		.thumb_func
  57              		.type	CYCONFIGCPY, %function
  58              	CYCONFIGCPY:
  59              	.LFB1:
  84:.\Generated_Source\PSoC5/cyfitter_cfg.c **** CY_CFG_UNUSED
  85:.\Generated_Source\PSoC5/cyfitter_cfg.c **** static void CYCONFIGCPY(void *dest, const void *src, size_t n);
  86:.\Generated_Source\PSoC5/cyfitter_cfg.c **** CY_CFG_UNUSED
  87:.\Generated_Source\PSoC5/cyfitter_cfg.c **** static void CYCONFIGCPY(void *dest, const void *src, size_t n)
  88:.\Generated_Source\PSoC5/cyfitter_cfg.c **** {
  60              		.loc 1 88 0
  61              		.cfi_startproc
  62              		@ args = 0, pretend = 0, frame = 16
  63              		@ frame_needed = 1, uses_anonymous_args = 0
  64 0000 80B5     		push	{r7, lr}
  65              		.cfi_def_cfa_offset 8
  66              		.cfi_offset 7, -8
  67              		.cfi_offset 14, -4
  68 0002 84B0     		sub	sp, sp, #16
  69              		.cfi_def_cfa_offset 24
  70 0004 00AF     		add	r7, sp, #0
  71              		.cfi_def_cfa_register 7
  72 0006 F860     		str	r0, [r7, #12]
  73 0008 B960     		str	r1, [r7, #8]
  74 000a 7A60     		str	r2, [r7, #4]
  89:.\Generated_Source\PSoC5/cyfitter_cfg.c **** 	(void)memcpy(dest, src, n);
  75              		.loc 1 89 0
  76 000c F868     		ldr	r0, [r7, #12]
  77 000e B968     		ldr	r1, [r7, #8]
  78 0010 7A68     		ldr	r2, [r7, #4]
  79 0012 FFF7FEFF 		bl	memcpy
  90:.\Generated_Source\PSoC5/cyfitter_cfg.c **** }
  80              		.loc 1 90 0
  81 0016 1037     		adds	r7, r7, #16
ARM GAS  C:\Users\SCOTTC~1\AppData\Local\Temp\ccOmMcpa.s 			page 4


  82 0018 BD46     		mov	sp, r7
  83              		@ sp needed
  84 001a 80BD     		pop	{r7, pc}
  85              		.cfi_endproc
  86              	.LFE1:
  87              		.size	CYCONFIGCPY, .-CYCONFIGCPY
  88              		.section	.text.CYCONFIGCPYCODE,"ax",%progbits
  89              		.align	2
  90              		.thumb
  91              		.thumb_func
  92              		.type	CYCONFIGCPYCODE, %function
  93              	CYCONFIGCPYCODE:
  94              	.LFB2:
  91:.\Generated_Source\PSoC5/cyfitter_cfg.c **** CY_CFG_UNUSED
  92:.\Generated_Source\PSoC5/cyfitter_cfg.c **** static void CYCONFIGCPYCODE(void *dest, const void *src, size_t n);
  93:.\Generated_Source\PSoC5/cyfitter_cfg.c **** CY_CFG_UNUSED
  94:.\Generated_Source\PSoC5/cyfitter_cfg.c **** static void CYCONFIGCPYCODE(void *dest, const void *src, size_t n)
  95:.\Generated_Source\PSoC5/cyfitter_cfg.c **** {
  95              		.loc 1 95 0
  96              		.cfi_startproc
  97              		@ args = 0, pretend = 0, frame = 16
  98              		@ frame_needed = 1, uses_anonymous_args = 0
  99 0000 80B5     		push	{r7, lr}
 100              		.cfi_def_cfa_offset 8
 101              		.cfi_offset 7, -8
 102              		.cfi_offset 14, -4
 103 0002 84B0     		sub	sp, sp, #16
 104              		.cfi_def_cfa_offset 24
 105 0004 00AF     		add	r7, sp, #0
 106              		.cfi_def_cfa_register 7
 107 0006 F860     		str	r0, [r7, #12]
 108 0008 B960     		str	r1, [r7, #8]
 109 000a 7A60     		str	r2, [r7, #4]
  96:.\Generated_Source\PSoC5/cyfitter_cfg.c **** 	(void)memcpy(dest, src, n);
 110              		.loc 1 96 0
 111 000c F868     		ldr	r0, [r7, #12]
 112 000e B968     		ldr	r1, [r7, #8]
 113 0010 7A68     		ldr	r2, [r7, #4]
 114 0012 FFF7FEFF 		bl	memcpy
  97:.\Generated_Source\PSoC5/cyfitter_cfg.c **** }
 115              		.loc 1 97 0
 116 0016 1037     		adds	r7, r7, #16
 117 0018 BD46     		mov	sp, r7
 118              		@ sp needed
 119 001a 80BD     		pop	{r7, pc}
 120              		.cfi_endproc
 121              	.LFE2:
 122              		.size	CYCONFIGCPYCODE, .-CYCONFIGCPYCODE
 123              		.section	.text.CyClockStartupError,"ax",%progbits
 124              		.align	2
 125              		.thumb
 126              		.thumb_func
 127              		.type	CyClockStartupError, %function
 128              	CyClockStartupError:
 129              	.LFB3:
  98:.\Generated_Source\PSoC5/cyfitter_cfg.c **** 
  99:.\Generated_Source\PSoC5/cyfitter_cfg.c **** 
ARM GAS  C:\Users\SCOTTC~1\AppData\Local\Temp\ccOmMcpa.s 			page 5


 100:.\Generated_Source\PSoC5/cyfitter_cfg.c **** 
 101:.\Generated_Source\PSoC5/cyfitter_cfg.c **** /* Clock startup error codes                                                   */
 102:.\Generated_Source\PSoC5/cyfitter_cfg.c **** #define CYCLOCKSTART_NO_ERROR    0u
 103:.\Generated_Source\PSoC5/cyfitter_cfg.c **** #define CYCLOCKSTART_XTAL_ERROR  1u
 104:.\Generated_Source\PSoC5/cyfitter_cfg.c **** #define CYCLOCKSTART_32KHZ_ERROR 2u
 105:.\Generated_Source\PSoC5/cyfitter_cfg.c **** #define CYCLOCKSTART_PLL_ERROR   3u
 106:.\Generated_Source\PSoC5/cyfitter_cfg.c **** 
 107:.\Generated_Source\PSoC5/cyfitter_cfg.c **** #ifdef CY_NEED_CYCLOCKSTARTUPERROR
 108:.\Generated_Source\PSoC5/cyfitter_cfg.c **** /*******************************************************************************
 109:.\Generated_Source\PSoC5/cyfitter_cfg.c **** * Function Name: CyClockStartupError
 110:.\Generated_Source\PSoC5/cyfitter_cfg.c **** ********************************************************************************
 111:.\Generated_Source\PSoC5/cyfitter_cfg.c **** * Summary:
 112:.\Generated_Source\PSoC5/cyfitter_cfg.c **** *  If an error is encountered during clock configuration (crystal startup error,
 113:.\Generated_Source\PSoC5/cyfitter_cfg.c **** *  PLL lock error, etc.), the system will end up here.  Unless reimplemented by
 114:.\Generated_Source\PSoC5/cyfitter_cfg.c **** *  the customer, this function will stop in an infinite loop.
 115:.\Generated_Source\PSoC5/cyfitter_cfg.c **** *
 116:.\Generated_Source\PSoC5/cyfitter_cfg.c **** * Parameters:
 117:.\Generated_Source\PSoC5/cyfitter_cfg.c **** *   void
 118:.\Generated_Source\PSoC5/cyfitter_cfg.c **** *
 119:.\Generated_Source\PSoC5/cyfitter_cfg.c **** * Return:
 120:.\Generated_Source\PSoC5/cyfitter_cfg.c **** *   void
 121:.\Generated_Source\PSoC5/cyfitter_cfg.c **** *
 122:.\Generated_Source\PSoC5/cyfitter_cfg.c **** *******************************************************************************/
 123:.\Generated_Source\PSoC5/cyfitter_cfg.c **** CY_CFG_UNUSED
 124:.\Generated_Source\PSoC5/cyfitter_cfg.c **** static void CyClockStartupError(uint8 errorCode);
 125:.\Generated_Source\PSoC5/cyfitter_cfg.c **** CY_CFG_UNUSED
 126:.\Generated_Source\PSoC5/cyfitter_cfg.c **** static void CyClockStartupError(uint8 errorCode)
 127:.\Generated_Source\PSoC5/cyfitter_cfg.c **** {
 130              		.loc 1 127 0
 131              		.cfi_startproc
 132              		@ args = 0, pretend = 0, frame = 8
 133              		@ frame_needed = 1, uses_anonymous_args = 0
 134              		@ link register save eliminated.
 135 0000 80B4     		push	{r7}
 136              		.cfi_def_cfa_offset 4
 137              		.cfi_offset 7, -4
 138 0002 83B0     		sub	sp, sp, #12
 139              		.cfi_def_cfa_offset 16
 140 0004 00AF     		add	r7, sp, #0
 141              		.cfi_def_cfa_register 7
 142 0006 0346     		mov	r3, r0
 143 0008 FB71     		strb	r3, [r7, #7]
 144              	.L5:
 128:.\Generated_Source\PSoC5/cyfitter_cfg.c ****     /* To remove the compiler warning if errorCode not used.                */
 129:.\Generated_Source\PSoC5/cyfitter_cfg.c ****     errorCode = errorCode;
 130:.\Generated_Source\PSoC5/cyfitter_cfg.c **** 
 131:.\Generated_Source\PSoC5/cyfitter_cfg.c ****     /* `#START CyClockStartupError` */
 132:.\Generated_Source\PSoC5/cyfitter_cfg.c **** 
 133:.\Generated_Source\PSoC5/cyfitter_cfg.c ****     /* If we have a clock startup error (bad MHz crystal, PLL lock, etc.),  */
 134:.\Generated_Source\PSoC5/cyfitter_cfg.c ****     /* we will end up here to allow the customer to implement something to  */
 135:.\Generated_Source\PSoC5/cyfitter_cfg.c ****     /* deal with the clock condition.                                       */
 136:.\Generated_Source\PSoC5/cyfitter_cfg.c **** 
 137:.\Generated_Source\PSoC5/cyfitter_cfg.c ****     /* `#END` */
 138:.\Generated_Source\PSoC5/cyfitter_cfg.c **** 
 139:.\Generated_Source\PSoC5/cyfitter_cfg.c ****     /* If nothing else, stop here since the clocks have not started         */
 140:.\Generated_Source\PSoC5/cyfitter_cfg.c ****     /* correctly.                                                           */
 141:.\Generated_Source\PSoC5/cyfitter_cfg.c ****     while(1) {}
ARM GAS  C:\Users\SCOTTC~1\AppData\Local\Temp\ccOmMcpa.s 			page 6


 145              		.loc 1 141 0 discriminator 1
 146 000a FEE7     		b	.L5
 147              		.cfi_endproc
 148              	.LFE3:
 149              		.size	CyClockStartupError, .-CyClockStartupError
 150              		.section	.text.cfg_dma_init,"ax",%progbits
 151              		.align	2
 152              		.thumb
 153              		.thumb_func
 154              		.type	cfg_dma_init, %function
 155              	cfg_dma_init:
 156              	.LFB4:
 142:.\Generated_Source\PSoC5/cyfitter_cfg.c **** }
 143:.\Generated_Source\PSoC5/cyfitter_cfg.c **** #endif
 144:.\Generated_Source\PSoC5/cyfitter_cfg.c **** 
 145:.\Generated_Source\PSoC5/cyfitter_cfg.c **** /* IDMUX Address: CYREG_IDMUX_DRQ_CTL0 Size (bytes): 6 */
 146:.\Generated_Source\PSoC5/cyfitter_cfg.c **** #define BS_IDMUX_VAL ((const uint8 CYFAR *)0x48000000u)
 147:.\Generated_Source\PSoC5/cyfitter_cfg.c **** 
 148:.\Generated_Source\PSoC5/cyfitter_cfg.c **** /* IOPORT_3 Address: CYDEV_PRTDSI_PRT3_BASE Size (bytes): 7 */
 149:.\Generated_Source\PSoC5/cyfitter_cfg.c **** #define BS_IOPORT_3_VAL ((const uint8 CYFAR *)0x48000008u)
 150:.\Generated_Source\PSoC5/cyfitter_cfg.c **** 
 151:.\Generated_Source\PSoC5/cyfitter_cfg.c **** /* UDB_0_3_1_CONFIG Address: CYDEV_UCFG_B0_P5_U1_BASE Size (bytes): 128 */
 152:.\Generated_Source\PSoC5/cyfitter_cfg.c **** #define BS_UDB_0_3_1_CONFIG_VAL ((const uint8 CYFAR *)0x48000010u)
 153:.\Generated_Source\PSoC5/cyfitter_cfg.c **** 
 154:.\Generated_Source\PSoC5/cyfitter_cfg.c **** /* DSI0_0_HV_ROUTING Address: CYDEV_UCFG_DSI13_BASE + 0x00000080u Size (bytes): 128 */
 155:.\Generated_Source\PSoC5/cyfitter_cfg.c **** #define BS_DSI0_0_HV_ROUTING_VAL ((const uint8 CYFAR *)0x48000090u)
 156:.\Generated_Source\PSoC5/cyfitter_cfg.c **** 
 157:.\Generated_Source\PSoC5/cyfitter_cfg.c **** /* DSI0_1_HV_ROUTING Address: CYDEV_UCFG_DSI12_BASE + 0x00000080u Size (bytes): 128 */
 158:.\Generated_Source\PSoC5/cyfitter_cfg.c **** #define BS_DSI0_1_HV_ROUTING_VAL ((const uint8 CYFAR *)0x48000110u)
 159:.\Generated_Source\PSoC5/cyfitter_cfg.c **** 
 160:.\Generated_Source\PSoC5/cyfitter_cfg.c **** /* DSI0_2_HV_ROUTING Address: CYDEV_UCFG_DSI7_BASE + 0x00000080u Size (bytes): 128 */
 161:.\Generated_Source\PSoC5/cyfitter_cfg.c **** #define BS_DSI0_2_HV_ROUTING_VAL ((const uint8 CYFAR *)0x48000190u)
 162:.\Generated_Source\PSoC5/cyfitter_cfg.c **** 
 163:.\Generated_Source\PSoC5/cyfitter_cfg.c **** /* DSISWITCH_0_3 Address: CYDEV_UCFG_DSI6_BASE Size (bytes): 128 */
 164:.\Generated_Source\PSoC5/cyfitter_cfg.c **** #define BS_DSISWITCH_0_3_VAL ((const uint8 CYFAR *)0x48000210u)
 165:.\Generated_Source\PSoC5/cyfitter_cfg.c **** 
 166:.\Generated_Source\PSoC5/cyfitter_cfg.c **** /* DSI0_3_HV_ROUTING Address: CYDEV_UCFG_DSI6_BASE + 0x00000080u Size (bytes): 128 */
 167:.\Generated_Source\PSoC5/cyfitter_cfg.c **** #define BS_DSI0_3_HV_ROUTING_VAL ((const uint8 CYFAR *)0x48000290u)
 168:.\Generated_Source\PSoC5/cyfitter_cfg.c **** 
 169:.\Generated_Source\PSoC5/cyfitter_cfg.c **** /* DSI0_4_HV_ROUTING Address: CYDEV_UCFG_DSI5_BASE + 0x00000080u Size (bytes): 128 */
 170:.\Generated_Source\PSoC5/cyfitter_cfg.c **** #define BS_DSI0_4_HV_ROUTING_VAL ((const uint8 CYFAR *)0x48000310u)
 171:.\Generated_Source\PSoC5/cyfitter_cfg.c **** 
 172:.\Generated_Source\PSoC5/cyfitter_cfg.c **** /* DSISWITCH_0_5 Address: CYDEV_UCFG_DSI4_BASE Size (bytes): 128 */
 173:.\Generated_Source\PSoC5/cyfitter_cfg.c **** #define BS_DSISWITCH_0_5_VAL ((const uint8 CYFAR *)0x48000390u)
 174:.\Generated_Source\PSoC5/cyfitter_cfg.c **** 
 175:.\Generated_Source\PSoC5/cyfitter_cfg.c **** /* DSI0_5_HV_ROUTING Address: CYDEV_UCFG_DSI4_BASE + 0x00000080u Size (bytes): 128 */
 176:.\Generated_Source\PSoC5/cyfitter_cfg.c **** #define BS_DSI0_5_HV_ROUTING_VAL ((const uint8 CYFAR *)0x48000410u)
 177:.\Generated_Source\PSoC5/cyfitter_cfg.c **** 
 178:.\Generated_Source\PSoC5/cyfitter_cfg.c **** /* UDB_1_0_HV_ROUTING Address: CYDEV_UCFG_B1_P5_ROUTE_BASE + 0x00000080u Size (bytes): 128 */
 179:.\Generated_Source\PSoC5/cyfitter_cfg.c **** #define BS_UDB_1_0_HV_ROUTING_VAL ((const uint8 CYFAR *)0x48000490u)
 180:.\Generated_Source\PSoC5/cyfitter_cfg.c **** 
 181:.\Generated_Source\PSoC5/cyfitter_cfg.c **** /* UDB_2_0_HV_ROUTING Address: CYDEV_UCFG_B1_P2_ROUTE_BASE + 0x00000080u Size (bytes): 128 */
 182:.\Generated_Source\PSoC5/cyfitter_cfg.c **** #define BS_UDB_2_0_HV_ROUTING_VAL ((const uint8 CYFAR *)0x48000510u)
 183:.\Generated_Source\PSoC5/cyfitter_cfg.c **** 
 184:.\Generated_Source\PSoC5/cyfitter_cfg.c **** /* UDB_1_2_HV_ROUTING Address: CYDEV_UCFG_B0_P4_ROUTE_BASE + 0x00000080u Size (bytes): 128 */
 185:.\Generated_Source\PSoC5/cyfitter_cfg.c **** #define BS_UDB_1_2_HV_ROUTING_VAL ((const uint8 CYFAR *)0x48000590u)
 186:.\Generated_Source\PSoC5/cyfitter_cfg.c **** 
ARM GAS  C:\Users\SCOTTC~1\AppData\Local\Temp\ccOmMcpa.s 			page 7


 187:.\Generated_Source\PSoC5/cyfitter_cfg.c **** /* UDBSWITCH_0_3 Address: CYDEV_UCFG_B0_P5_ROUTE_BASE Size (bytes): 128 */
 188:.\Generated_Source\PSoC5/cyfitter_cfg.c **** #define BS_UDBSWITCH_0_3_VAL ((const uint8 CYFAR *)0x48000610u)
 189:.\Generated_Source\PSoC5/cyfitter_cfg.c **** 
 190:.\Generated_Source\PSoC5/cyfitter_cfg.c **** /* DSISWITCH_1_0 Address: CYDEV_UCFG_DSI9_BASE Size (bytes): 128 */
 191:.\Generated_Source\PSoC5/cyfitter_cfg.c **** #define BS_DSISWITCH_1_0_VAL ((const uint8 CYFAR *)0x48000690u)
 192:.\Generated_Source\PSoC5/cyfitter_cfg.c **** 
 193:.\Generated_Source\PSoC5/cyfitter_cfg.c **** /* DSI3_0_HV_ROUTING Address: CYDEV_UCFG_DSI9_BASE + 0x00000080u Size (bytes): 128 */
 194:.\Generated_Source\PSoC5/cyfitter_cfg.c **** #define BS_DSI3_0_HV_ROUTING_VAL ((const uint8 CYFAR *)0x48000710u)
 195:.\Generated_Source\PSoC5/cyfitter_cfg.c **** 
 196:.\Generated_Source\PSoC5/cyfitter_cfg.c **** /* DSISWITCH_1_1 Address: CYDEV_UCFG_DSI8_BASE Size (bytes): 128 */
 197:.\Generated_Source\PSoC5/cyfitter_cfg.c **** #define BS_DSISWITCH_1_1_VAL ((const uint8 CYFAR *)0x48000790u)
 198:.\Generated_Source\PSoC5/cyfitter_cfg.c **** 
 199:.\Generated_Source\PSoC5/cyfitter_cfg.c **** /* DSI3_1_HV_ROUTING Address: CYDEV_UCFG_DSI8_BASE + 0x00000080u Size (bytes): 128 */
 200:.\Generated_Source\PSoC5/cyfitter_cfg.c **** #define BS_DSI3_1_HV_ROUTING_VAL ((const uint8 CYFAR *)0x48000810u)
 201:.\Generated_Source\PSoC5/cyfitter_cfg.c **** 
 202:.\Generated_Source\PSoC5/cyfitter_cfg.c **** /* DSISWITCH_1_2 Address: CYDEV_UCFG_DSI3_BASE Size (bytes): 128 */
 203:.\Generated_Source\PSoC5/cyfitter_cfg.c **** #define BS_DSISWITCH_1_2_VAL ((const uint8 CYFAR *)0x48000890u)
 204:.\Generated_Source\PSoC5/cyfitter_cfg.c **** 
 205:.\Generated_Source\PSoC5/cyfitter_cfg.c **** /* DSI3_2_HV_ROUTING Address: CYDEV_UCFG_DSI3_BASE + 0x00000080u Size (bytes): 128 */
 206:.\Generated_Source\PSoC5/cyfitter_cfg.c **** #define BS_DSI3_2_HV_ROUTING_VAL ((const uint8 CYFAR *)0x48000910u)
 207:.\Generated_Source\PSoC5/cyfitter_cfg.c **** 
 208:.\Generated_Source\PSoC5/cyfitter_cfg.c **** /* DSISWITCH_1_3 Address: CYDEV_UCFG_DSI2_BASE Size (bytes): 128 */
 209:.\Generated_Source\PSoC5/cyfitter_cfg.c **** #define BS_DSISWITCH_1_3_VAL ((const uint8 CYFAR *)0x48000990u)
 210:.\Generated_Source\PSoC5/cyfitter_cfg.c **** 
 211:.\Generated_Source\PSoC5/cyfitter_cfg.c **** /* DSI3_3_HV_ROUTING Address: CYDEV_UCFG_DSI2_BASE + 0x00000080u Size (bytes): 128 */
 212:.\Generated_Source\PSoC5/cyfitter_cfg.c **** #define BS_DSI3_3_HV_ROUTING_VAL ((const uint8 CYFAR *)0x48000A10u)
 213:.\Generated_Source\PSoC5/cyfitter_cfg.c **** 
 214:.\Generated_Source\PSoC5/cyfitter_cfg.c **** /* DSISWITCH_1_4 Address: CYDEV_UCFG_DSI1_BASE Size (bytes): 128 */
 215:.\Generated_Source\PSoC5/cyfitter_cfg.c **** #define BS_DSISWITCH_1_4_VAL ((const uint8 CYFAR *)0x48000A90u)
 216:.\Generated_Source\PSoC5/cyfitter_cfg.c **** 
 217:.\Generated_Source\PSoC5/cyfitter_cfg.c **** /* DSI3_4_HV_ROUTING Address: CYDEV_UCFG_DSI1_BASE + 0x00000080u Size (bytes): 128 */
 218:.\Generated_Source\PSoC5/cyfitter_cfg.c **** #define BS_DSI3_4_HV_ROUTING_VAL ((const uint8 CYFAR *)0x48000B10u)
 219:.\Generated_Source\PSoC5/cyfitter_cfg.c **** 
 220:.\Generated_Source\PSoC5/cyfitter_cfg.c **** /* DSISWITCH_1_5 Address: CYDEV_UCFG_DSI0_BASE Size (bytes): 128 */
 221:.\Generated_Source\PSoC5/cyfitter_cfg.c **** #define BS_DSISWITCH_1_5_VAL ((const uint8 CYFAR *)0x48000B90u)
 222:.\Generated_Source\PSoC5/cyfitter_cfg.c **** 
 223:.\Generated_Source\PSoC5/cyfitter_cfg.c **** /* DSI3_5_HV_ROUTING Address: CYDEV_UCFG_DSI0_BASE + 0x00000080u Size (bytes): 128 */
 224:.\Generated_Source\PSoC5/cyfitter_cfg.c **** #define BS_DSI3_5_HV_ROUTING_VAL ((const uint8 CYFAR *)0x48000C10u)
 225:.\Generated_Source\PSoC5/cyfitter_cfg.c **** 
 226:.\Generated_Source\PSoC5/cyfitter_cfg.c **** /* IOPINS0_0 Address: CYREG_PRT0_DM0 Size (bytes): 8 */
 227:.\Generated_Source\PSoC5/cyfitter_cfg.c **** #define BS_IOPINS0_0_VAL ((const uint8 CYFAR *)0x48000C90u)
 228:.\Generated_Source\PSoC5/cyfitter_cfg.c **** 
 229:.\Generated_Source\PSoC5/cyfitter_cfg.c **** /* IOPINS0_2 Address: CYREG_PRT2_DM0 Size (bytes): 8 */
 230:.\Generated_Source\PSoC5/cyfitter_cfg.c **** #define BS_IOPINS0_2_VAL ((const uint8 CYFAR *)0x48000C98u)
 231:.\Generated_Source\PSoC5/cyfitter_cfg.c **** 
 232:.\Generated_Source\PSoC5/cyfitter_cfg.c **** /* IOPINS0_3 Address: CYREG_PRT3_DM0 Size (bytes): 8 */
 233:.\Generated_Source\PSoC5/cyfitter_cfg.c **** #define BS_IOPINS0_3_VAL ((const uint8 CYFAR *)0x48000CA0u)
 234:.\Generated_Source\PSoC5/cyfitter_cfg.c **** 
 235:.\Generated_Source\PSoC5/cyfitter_cfg.c **** /* CYDEV_CLKDIST_ACFG0_CFG0 Address: CYREG_CLKDIST_ACFG0_CFG0 Size (bytes): 4 */
 236:.\Generated_Source\PSoC5/cyfitter_cfg.c **** #define BS_CYDEV_CLKDIST_ACFG0_CFG0_VAL ((const uint8 CYFAR *)0x48000CA8u)
 237:.\Generated_Source\PSoC5/cyfitter_cfg.c **** 
 238:.\Generated_Source\PSoC5/cyfitter_cfg.c **** /* PHUB_CFGMEM10 Address: CYREG_PHUB_CFGMEM10_CFG0 Size (bytes): 4 */
 239:.\Generated_Source\PSoC5/cyfitter_cfg.c **** #define BS_PHUB_CFGMEM10_VAL ((const uint8 CYFAR *)0x48000CACu)
 240:.\Generated_Source\PSoC5/cyfitter_cfg.c **** 
 241:.\Generated_Source\PSoC5/cyfitter_cfg.c **** /* PHUB_CFGMEM8 Address: CYREG_PHUB_CFGMEM8_CFG0 Size (bytes): 4 */
 242:.\Generated_Source\PSoC5/cyfitter_cfg.c **** #define BS_PHUB_CFGMEM8_VAL ((const uint8 CYFAR *)0x48000CB0u)
 243:.\Generated_Source\PSoC5/cyfitter_cfg.c **** 
ARM GAS  C:\Users\SCOTTC~1\AppData\Local\Temp\ccOmMcpa.s 			page 8


 244:.\Generated_Source\PSoC5/cyfitter_cfg.c **** 
 245:.\Generated_Source\PSoC5/cyfitter_cfg.c **** /*******************************************************************************
 246:.\Generated_Source\PSoC5/cyfitter_cfg.c **** * Function Name: cfg_dma_init
 247:.\Generated_Source\PSoC5/cyfitter_cfg.c **** ********************************************************************************
 248:.\Generated_Source\PSoC5/cyfitter_cfg.c **** * Summary:
 249:.\Generated_Source\PSoC5/cyfitter_cfg.c **** *  This function is used to copy device configuration data from constant values
 250:.\Generated_Source\PSoC5/cyfitter_cfg.c **** *  stored in memory into the proper chip configuration registers using DMA.  It
 251:.\Generated_Source\PSoC5/cyfitter_cfg.c **** *  pulls data out of the CFG_TD_LISTs to know exactly how/what to configure.
 252:.\Generated_Source\PSoC5/cyfitter_cfg.c **** *
 253:.\Generated_Source\PSoC5/cyfitter_cfg.c **** * Parameters:  
 254:.\Generated_Source\PSoC5/cyfitter_cfg.c **** *   void
 255:.\Generated_Source\PSoC5/cyfitter_cfg.c **** *
 256:.\Generated_Source\PSoC5/cyfitter_cfg.c **** * Return:
 257:.\Generated_Source\PSoC5/cyfitter_cfg.c **** *   void
 258:.\Generated_Source\PSoC5/cyfitter_cfg.c **** *
 259:.\Generated_Source\PSoC5/cyfitter_cfg.c **** *******************************************************************************/
 260:.\Generated_Source\PSoC5/cyfitter_cfg.c **** static void cfg_dma_init(void);
 261:.\Generated_Source\PSoC5/cyfitter_cfg.c **** static void cfg_dma_init(void)
 262:.\Generated_Source\PSoC5/cyfitter_cfg.c **** {
 157              		.loc 1 262 0
 158              		.cfi_startproc
 159              		@ args = 0, pretend = 0, frame = 8
 160              		@ frame_needed = 1, uses_anonymous_args = 0
 161 0000 80B5     		push	{r7, lr}
 162              		.cfi_def_cfa_offset 8
 163              		.cfi_offset 7, -8
 164              		.cfi_offset 14, -4
 165 0002 82B0     		sub	sp, sp, #8
 166              		.cfi_def_cfa_offset 16
 167 0004 00AF     		add	r7, sp, #0
 168              		.cfi_def_cfa_register 7
 263:.\Generated_Source\PSoC5/cyfitter_cfg.c **** 	/* TD structure for little-endian systems. Does not require endian swap */
 264:.\Generated_Source\PSoC5/cyfitter_cfg.c **** 	CYPACKED struct td_t {
 265:.\Generated_Source\PSoC5/cyfitter_cfg.c **** 		uint16 size;
 266:.\Generated_Source\PSoC5/cyfitter_cfg.c **** 		uint8 next_td_ptr;
 267:.\Generated_Source\PSoC5/cyfitter_cfg.c **** 		uint8 flags;
 268:.\Generated_Source\PSoC5/cyfitter_cfg.c **** 		uint16 src;
 269:.\Generated_Source\PSoC5/cyfitter_cfg.c **** 		uint16 dest;
 270:.\Generated_Source\PSoC5/cyfitter_cfg.c **** 	} CYPACKED_ATTR;
 271:.\Generated_Source\PSoC5/cyfitter_cfg.c **** 
 272:.\Generated_Source\PSoC5/cyfitter_cfg.c **** 	/* PHUB_CH1_CFGMEM_CFG0/1 initialization data */
 273:.\Generated_Source\PSoC5/cyfitter_cfg.c **** 	DMAINITSEC static const uint8 CYCODE CH1_ADDR_DATA0[] = { 0x01u, 0x00u, 0x00u, 0x00u, 0x00u, 0x20u
 274:.\Generated_Source\PSoC5/cyfitter_cfg.c **** 
 275:.\Generated_Source\PSoC5/cyfitter_cfg.c **** 	/* PHUB_CH2_CFGMEM_CFG0/1 initialization data */
 276:.\Generated_Source\PSoC5/cyfitter_cfg.c **** 	DMAINITSEC static const uint8 CYCODE CH2_ADDR_DATA0[] = { 0x01u, 0x00u, 0x00u, 0x00u, 0x00u, 0x20u
 277:.\Generated_Source\PSoC5/cyfitter_cfg.c **** 
 278:.\Generated_Source\PSoC5/cyfitter_cfg.c **** 	/* PHUB_CH5_CFGMEM_CFG0/1 initialization data */
 279:.\Generated_Source\PSoC5/cyfitter_cfg.c **** 	DMAINITSEC static const uint8 CYCODE CH5_ADDR_DATA0[] = { 0x01u, 0x00u, 0x00u, 0x00u, 0x00u, 0x48u
 280:.\Generated_Source\PSoC5/cyfitter_cfg.c **** 
 281:.\Generated_Source\PSoC5/cyfitter_cfg.c **** 	/* PHUB_CH6_CFGMEM_CFG0/1 initialization data */
 282:.\Generated_Source\PSoC5/cyfitter_cfg.c **** 	DMAINITSEC static const uint8 CYCODE CH6_ADDR_DATA0[] = { 0x01u, 0x00u, 0x00u, 0x00u, 0x00u, 0x48u
 283:.\Generated_Source\PSoC5/cyfitter_cfg.c **** 
 284:.\Generated_Source\PSoC5/cyfitter_cfg.c **** 	/* Initialization data for each DMA channel's TD registers */
 285:.\Generated_Source\PSoC5/cyfitter_cfg.c **** 	DMAINITSEC static const uint8 CYCODE DMA_TD_START_CMD[] = { 0x01u, 0x00u, 0x00u, 0x00u, 0x01u };
 286:.\Generated_Source\PSoC5/cyfitter_cfg.c **** 
 287:.\Generated_Source\PSoC5/cyfitter_cfg.c **** 	CYALIGNED static uint32 CYXDATA DMA_ZERO_VAL;
 288:.\Generated_Source\PSoC5/cyfitter_cfg.c **** 
ARM GAS  C:\Users\SCOTTC~1\AppData\Local\Temp\ccOmMcpa.s 			page 9


 289:.\Generated_Source\PSoC5/cyfitter_cfg.c **** 	/* This table holds all of the initialization data necessary for the DMA
 290:.\Generated_Source\PSoC5/cyfitter_cfg.c **** 	   process to transfer data from the source location to the destination. */
 291:.\Generated_Source\PSoC5/cyfitter_cfg.c **** 	/* Source addresses can be relocated, but only when in 32bit addresses.
 292:.\Generated_Source\PSoC5/cyfitter_cfg.c **** 	   Because the standard TD table only has 16bit addresses, we generate a
 293:.\Generated_Source\PSoC5/cyfitter_cfg.c **** 	   separate CFG_TD_ADDR table for the source addresses that supports 32bit
 294:.\Generated_Source\PSoC5/cyfitter_cfg.c **** 	   addresses. */
 295:.\Generated_Source\PSoC5/cyfitter_cfg.c **** 	DMAINITSEC static const struct td_t CYCODE CFG_TD_LIST0[] = {
 296:.\Generated_Source\PSoC5/cyfitter_cfg.c **** 		/* Size, Next, Flags, Source, Destination */
 297:.\Generated_Source\PSoC5/cyfitter_cfg.c **** 		{ 8u, 0x02u, 0x23u, (uint16)(uint32)(0u), (uint16)(CYREG_PHUB_CFGMEM1_CFG0) },	/* TD 1 */
 298:.\Generated_Source\PSoC5/cyfitter_cfg.c **** 		{ 8u, 0x03u, 0x23u, (uint16)(uint32)(0u), (uint16)(CYREG_PHUB_CFGMEM2_CFG0) },	/* TD 2 */
 299:.\Generated_Source\PSoC5/cyfitter_cfg.c **** 		{ 8u, 0x04u, 0x23u, (uint16)(uint32)(0u), (uint16)(CYREG_PHUB_CFGMEM5_CFG0) },	/* TD 3 */
 300:.\Generated_Source\PSoC5/cyfitter_cfg.c **** 		{ 8u, 0x05u, 0x23u, (uint16)(uint32)(0u), (uint16)(CYREG_PHUB_CFGMEM6_CFG0) },	/* TD 4 */
 301:.\Generated_Source\PSoC5/cyfitter_cfg.c **** 		{ 5u, 0x06u, 0x23u, (uint16)(uint32)(0u), (uint16)(CYREG_PHUB_CH1_BASIC_CFG) },	/* TD 5 */
 302:.\Generated_Source\PSoC5/cyfitter_cfg.c **** 		{ 5u, 0x07u, 0x23u, (uint16)(uint32)(0u), (uint16)(CYREG_PHUB_CH2_BASIC_CFG) },	/* TD 6 */
 303:.\Generated_Source\PSoC5/cyfitter_cfg.c **** 		{ 5u, 0x08u, 0x23u, (uint16)(uint32)(0u), (uint16)(CYREG_PHUB_CH5_BASIC_CFG) },	/* TD 7 */
 304:.\Generated_Source\PSoC5/cyfitter_cfg.c **** 		{ 5u, 0xFEu, 0x23u, (uint16)(uint32)(0u), (uint16)(CYREG_PHUB_CH6_BASIC_CFG) },	/* TD 8 */
 305:.\Generated_Source\PSoC5/cyfitter_cfg.c **** 		{ 16u, 0x0Au, 0x22u, (uint16)(uint32)(0u), (uint16)(CYREG_PRT1_DR) },	/* TD 9 */
 306:.\Generated_Source\PSoC5/cyfitter_cfg.c **** 		{ 48u, 0x0Bu, 0x22u, (uint16)(uint32)(0u), (uint16)(CYREG_PRT4_DR) },	/* TD 10 */
 307:.\Generated_Source\PSoC5/cyfitter_cfg.c **** 		{ 16u, 0x0Cu, 0x22u, (uint16)(uint32)(0u), (uint16)(CYREG_PRT12_DR) },	/* TD 11 */
 308:.\Generated_Source\PSoC5/cyfitter_cfg.c **** 		{ 16u, 0xFEu, 0x22u, (uint16)(uint32)(0u), (uint16)(CYREG_PRT15_DR) },	/* TD 12 */
 309:.\Generated_Source\PSoC5/cyfitter_cfg.c **** 		{ 2432u, 0x0Eu, 0x22u, (uint16)(uint32)(0u), (uint16)(CYDEV_UCFG_B0_P0_U0_BASE) },	/* TD 13 */
 310:.\Generated_Source\PSoC5/cyfitter_cfg.c **** 		{ 128u, 0x0Fu, 0x22u, (uint16)(uint32)(0u), (uint16)(CYDEV_UCFG_B0_P5_U0_BASE) },	/* TD 14 */
 311:.\Generated_Source\PSoC5/cyfitter_cfg.c **** 		{ 1152u, 0x10u, 0x22u, (uint16)(uint32)(0u), (uint16)(CYDEV_UCFG_B0_P5_ROUTE_BASE + 0x00000080u) 
 312:.\Generated_Source\PSoC5/cyfitter_cfg.c **** 		{ 384u, 0x11u, 0x22u, (uint16)(uint32)(0u), (uint16)(CYDEV_UCFG_B1_P2_U0_BASE) },	/* TD 16 */
 313:.\Generated_Source\PSoC5/cyfitter_cfg.c **** 		{ 1408u, 0x12u, 0x22u, (uint16)(uint32)(0u), (uint16)(CYDEV_UCFG_B1_P3_U0_BASE) },	/* TD 17 */
 314:.\Generated_Source\PSoC5/cyfitter_cfg.c **** 		{ 128u, 0x13u, 0x22u, (uint16)(uint32)(0u), (uint16)(CYDEV_UCFG_DSI5_BASE) },	/* TD 18 */
 315:.\Generated_Source\PSoC5/cyfitter_cfg.c **** 		{ 128u, 0x14u, 0x22u, (uint16)(uint32)(0u), (uint16)(CYDEV_UCFG_DSI7_BASE) },	/* TD 19 */
 316:.\Generated_Source\PSoC5/cyfitter_cfg.c **** 		{ 128u, 0x15u, 0x22u, (uint16)(uint32)(0u), (uint16)(CYDEV_UCFG_DSI12_BASE) },	/* TD 20 */
 317:.\Generated_Source\PSoC5/cyfitter_cfg.c **** 		{ 128u, 0x16u, 0x22u, (uint16)(uint32)(0u), (uint16)(CYDEV_UCFG_DSI13_BASE) },	/* TD 21 */
 318:.\Generated_Source\PSoC5/cyfitter_cfg.c **** 		{ 32u, 0xFEu, 0x22u, (uint16)(uint32)(0u), (uint16)(CYREG_BCTL0_MDCLK_EN) },	/* TD 22 */
 319:.\Generated_Source\PSoC5/cyfitter_cfg.c **** 		{ 7u, 0xFEu, 0x23u, (uint16)(uint32)(0u), (uint16)(CYDEV_PRTDSI_PRT3_BASE) },	/* TD 23 */
 320:.\Generated_Source\PSoC5/cyfitter_cfg.c **** 		{ 128u, 0x19u, 0x23u, (uint16)(uint32)(0u), (uint16)(CYDEV_UCFG_B0_P5_U1_BASE) },	/* TD 24 */
 321:.\Generated_Source\PSoC5/cyfitter_cfg.c **** 		{ 128u, 0x1Au, 0x23u, (uint16)(uint32)(0u), (uint16)(CYDEV_UCFG_DSI13_BASE + 0x00000080u) },	/* T
 322:.\Generated_Source\PSoC5/cyfitter_cfg.c **** 		{ 128u, 0x1Bu, 0x23u, (uint16)(uint32)(0u), (uint16)(CYDEV_UCFG_DSI12_BASE + 0x00000080u) },	/* T
 323:.\Generated_Source\PSoC5/cyfitter_cfg.c **** 		{ 128u, 0x1Cu, 0x23u, (uint16)(uint32)(0u), (uint16)(CYDEV_UCFG_DSI7_BASE + 0x00000080u) },	/* TD
 324:.\Generated_Source\PSoC5/cyfitter_cfg.c **** 		{ 128u, 0x1Du, 0x23u, (uint16)(uint32)(0u), (uint16)(CYDEV_UCFG_DSI6_BASE) },	/* TD 28 */
 325:.\Generated_Source\PSoC5/cyfitter_cfg.c **** 		{ 128u, 0x1Eu, 0x23u, (uint16)(uint32)(0u), (uint16)(CYDEV_UCFG_DSI6_BASE + 0x00000080u) },	/* TD
 326:.\Generated_Source\PSoC5/cyfitter_cfg.c **** 		{ 128u, 0x1Fu, 0x23u, (uint16)(uint32)(0u), (uint16)(CYDEV_UCFG_DSI5_BASE + 0x00000080u) },	/* TD
 327:.\Generated_Source\PSoC5/cyfitter_cfg.c **** 		{ 128u, 0x20u, 0x23u, (uint16)(uint32)(0u), (uint16)(CYDEV_UCFG_DSI4_BASE) },	/* TD 31 */
 328:.\Generated_Source\PSoC5/cyfitter_cfg.c **** 		{ 128u, 0x21u, 0x23u, (uint16)(uint32)(0u), (uint16)(CYDEV_UCFG_DSI4_BASE + 0x00000080u) },	/* TD
 329:.\Generated_Source\PSoC5/cyfitter_cfg.c **** 		{ 128u, 0x22u, 0x23u, (uint16)(uint32)(0u), (uint16)(CYDEV_UCFG_B1_P5_ROUTE_BASE + 0x00000080u) }
 330:.\Generated_Source\PSoC5/cyfitter_cfg.c **** 		{ 128u, 0x23u, 0x23u, (uint16)(uint32)(0u), (uint16)(CYDEV_UCFG_B1_P2_ROUTE_BASE + 0x00000080u) }
 331:.\Generated_Source\PSoC5/cyfitter_cfg.c **** 		{ 128u, 0x24u, 0x23u, (uint16)(uint32)(0u), (uint16)(CYDEV_UCFG_B0_P4_ROUTE_BASE + 0x00000080u) }
 332:.\Generated_Source\PSoC5/cyfitter_cfg.c **** 		{ 128u, 0x25u, 0x23u, (uint16)(uint32)(0u), (uint16)(CYDEV_UCFG_B0_P5_ROUTE_BASE) },	/* TD 36 */
 333:.\Generated_Source\PSoC5/cyfitter_cfg.c **** 		{ 128u, 0x26u, 0x23u, (uint16)(uint32)(0u), (uint16)(CYDEV_UCFG_DSI9_BASE) },	/* TD 37 */
 334:.\Generated_Source\PSoC5/cyfitter_cfg.c **** 		{ 128u, 0x27u, 0x23u, (uint16)(uint32)(0u), (uint16)(CYDEV_UCFG_DSI9_BASE + 0x00000080u) },	/* TD
 335:.\Generated_Source\PSoC5/cyfitter_cfg.c **** 		{ 128u, 0x28u, 0x23u, (uint16)(uint32)(0u), (uint16)(CYDEV_UCFG_DSI8_BASE) },	/* TD 39 */
 336:.\Generated_Source\PSoC5/cyfitter_cfg.c **** 		{ 128u, 0x29u, 0x23u, (uint16)(uint32)(0u), (uint16)(CYDEV_UCFG_DSI8_BASE + 0x00000080u) },	/* TD
 337:.\Generated_Source\PSoC5/cyfitter_cfg.c **** 		{ 128u, 0x2Au, 0x23u, (uint16)(uint32)(0u), (uint16)(CYDEV_UCFG_DSI3_BASE) },	/* TD 41 */
 338:.\Generated_Source\PSoC5/cyfitter_cfg.c **** 		{ 128u, 0x2Bu, 0x23u, (uint16)(uint32)(0u), (uint16)(CYDEV_UCFG_DSI3_BASE + 0x00000080u) },	/* TD
 339:.\Generated_Source\PSoC5/cyfitter_cfg.c **** 		{ 128u, 0x2Cu, 0x23u, (uint16)(uint32)(0u), (uint16)(CYDEV_UCFG_DSI2_BASE) },	/* TD 43 */
 340:.\Generated_Source\PSoC5/cyfitter_cfg.c **** 		{ 128u, 0x2Du, 0x23u, (uint16)(uint32)(0u), (uint16)(CYDEV_UCFG_DSI2_BASE + 0x00000080u) },	/* TD
 341:.\Generated_Source\PSoC5/cyfitter_cfg.c **** 		{ 128u, 0x2Eu, 0x23u, (uint16)(uint32)(0u), (uint16)(CYDEV_UCFG_DSI1_BASE) },	/* TD 45 */
 342:.\Generated_Source\PSoC5/cyfitter_cfg.c **** 		{ 128u, 0x2Fu, 0x23u, (uint16)(uint32)(0u), (uint16)(CYDEV_UCFG_DSI1_BASE + 0x00000080u) },	/* TD
 343:.\Generated_Source\PSoC5/cyfitter_cfg.c **** 		{ 128u, 0x30u, 0x23u, (uint16)(uint32)(0u), (uint16)(CYDEV_UCFG_DSI0_BASE) },	/* TD 47 */
 344:.\Generated_Source\PSoC5/cyfitter_cfg.c **** 		{ 128u, 0xFEu, 0x23u, (uint16)(uint32)(0u), (uint16)(CYDEV_UCFG_DSI0_BASE + 0x00000080u) },	/* TD
 345:.\Generated_Source\PSoC5/cyfitter_cfg.c **** 	};
ARM GAS  C:\Users\SCOTTC~1\AppData\Local\Temp\ccOmMcpa.s 			page 10


 346:.\Generated_Source\PSoC5/cyfitter_cfg.c **** 
 347:.\Generated_Source\PSoC5/cyfitter_cfg.c **** 	/* Source addresses can be relocated, but only when in 32bit addresses.
 348:.\Generated_Source\PSoC5/cyfitter_cfg.c **** 	   Because the standard TD table only has 16bit addresses, we generate a
 349:.\Generated_Source\PSoC5/cyfitter_cfg.c **** 	   separate table for the source addresses that does use 32bit addresses. This
 350:.\Generated_Source\PSoC5/cyfitter_cfg.c **** 	   table will be re-merged with the corresponding CFG_TD_LIST table during
 351:.\Generated_Source\PSoC5/cyfitter_cfg.c **** 	   initialization. */
 352:.\Generated_Source\PSoC5/cyfitter_cfg.c **** 	static const void * const CFG_TD_ADDR0[] = {
 353:.\Generated_Source\PSoC5/cyfitter_cfg.c **** 		(const void *)(CH1_ADDR_DATA0),	/* TD 1 */
 354:.\Generated_Source\PSoC5/cyfitter_cfg.c **** 		(const void *)(CH2_ADDR_DATA0),	/* TD 2 */
 355:.\Generated_Source\PSoC5/cyfitter_cfg.c **** 		(const void *)(CH5_ADDR_DATA0),	/* TD 3 */
 356:.\Generated_Source\PSoC5/cyfitter_cfg.c **** 		(const void *)(CH6_ADDR_DATA0),	/* TD 4 */
 357:.\Generated_Source\PSoC5/cyfitter_cfg.c **** 		(const void *)(DMA_TD_START_CMD),	/* TD 5 */
 358:.\Generated_Source\PSoC5/cyfitter_cfg.c **** 		(const void *)(DMA_TD_START_CMD),	/* TD 6 */
 359:.\Generated_Source\PSoC5/cyfitter_cfg.c **** 		(const void *)(DMA_TD_START_CMD),	/* TD 7 */
 360:.\Generated_Source\PSoC5/cyfitter_cfg.c **** 		(const void *)(DMA_TD_START_CMD),	/* TD 8 */
 361:.\Generated_Source\PSoC5/cyfitter_cfg.c **** 		(const void *)(&DMA_ZERO_VAL),	/* TD 9 */
 362:.\Generated_Source\PSoC5/cyfitter_cfg.c **** 		(const void *)(&DMA_ZERO_VAL),	/* TD 10 */
 363:.\Generated_Source\PSoC5/cyfitter_cfg.c **** 		(const void *)(&DMA_ZERO_VAL),	/* TD 11 */
 364:.\Generated_Source\PSoC5/cyfitter_cfg.c **** 		(const void *)(&DMA_ZERO_VAL),	/* TD 12 */
 365:.\Generated_Source\PSoC5/cyfitter_cfg.c **** 		(const void *)(&DMA_ZERO_VAL),	/* TD 13 */
 366:.\Generated_Source\PSoC5/cyfitter_cfg.c **** 		(const void *)(&DMA_ZERO_VAL),	/* TD 14 */
 367:.\Generated_Source\PSoC5/cyfitter_cfg.c **** 		(const void *)(&DMA_ZERO_VAL),	/* TD 15 */
 368:.\Generated_Source\PSoC5/cyfitter_cfg.c **** 		(const void *)(&DMA_ZERO_VAL),	/* TD 16 */
 369:.\Generated_Source\PSoC5/cyfitter_cfg.c **** 		(const void *)(&DMA_ZERO_VAL),	/* TD 17 */
 370:.\Generated_Source\PSoC5/cyfitter_cfg.c **** 		(const void *)(&DMA_ZERO_VAL),	/* TD 18 */
 371:.\Generated_Source\PSoC5/cyfitter_cfg.c **** 		(const void *)(&DMA_ZERO_VAL),	/* TD 19 */
 372:.\Generated_Source\PSoC5/cyfitter_cfg.c **** 		(const void *)(&DMA_ZERO_VAL),	/* TD 20 */
 373:.\Generated_Source\PSoC5/cyfitter_cfg.c **** 		(const void *)(&DMA_ZERO_VAL),	/* TD 21 */
 374:.\Generated_Source\PSoC5/cyfitter_cfg.c **** 		(const void *)(&DMA_ZERO_VAL),	/* TD 22 */
 375:.\Generated_Source\PSoC5/cyfitter_cfg.c **** 		(const void *)(BS_IOPORT_3_VAL),	/* TD 23 */
 376:.\Generated_Source\PSoC5/cyfitter_cfg.c **** 		(const void *)(BS_UDB_0_3_1_CONFIG_VAL),	/* TD 24 */
 377:.\Generated_Source\PSoC5/cyfitter_cfg.c **** 		(const void *)(BS_DSI0_0_HV_ROUTING_VAL),	/* TD 25 */
 378:.\Generated_Source\PSoC5/cyfitter_cfg.c **** 		(const void *)(BS_DSI0_1_HV_ROUTING_VAL),	/* TD 26 */
 379:.\Generated_Source\PSoC5/cyfitter_cfg.c **** 		(const void *)(BS_DSI0_2_HV_ROUTING_VAL),	/* TD 27 */
 380:.\Generated_Source\PSoC5/cyfitter_cfg.c **** 		(const void *)(BS_DSISWITCH_0_3_VAL),	/* TD 28 */
 381:.\Generated_Source\PSoC5/cyfitter_cfg.c **** 		(const void *)(BS_DSI0_3_HV_ROUTING_VAL),	/* TD 29 */
 382:.\Generated_Source\PSoC5/cyfitter_cfg.c **** 		(const void *)(BS_DSI0_4_HV_ROUTING_VAL),	/* TD 30 */
 383:.\Generated_Source\PSoC5/cyfitter_cfg.c **** 		(const void *)(BS_DSISWITCH_0_5_VAL),	/* TD 31 */
 384:.\Generated_Source\PSoC5/cyfitter_cfg.c **** 		(const void *)(BS_DSI0_5_HV_ROUTING_VAL),	/* TD 32 */
 385:.\Generated_Source\PSoC5/cyfitter_cfg.c **** 		(const void *)(BS_UDB_1_0_HV_ROUTING_VAL),	/* TD 33 */
 386:.\Generated_Source\PSoC5/cyfitter_cfg.c **** 		(const void *)(BS_UDB_2_0_HV_ROUTING_VAL),	/* TD 34 */
 387:.\Generated_Source\PSoC5/cyfitter_cfg.c **** 		(const void *)(BS_UDB_1_2_HV_ROUTING_VAL),	/* TD 35 */
 388:.\Generated_Source\PSoC5/cyfitter_cfg.c **** 		(const void *)(BS_UDBSWITCH_0_3_VAL),	/* TD 36 */
 389:.\Generated_Source\PSoC5/cyfitter_cfg.c **** 		(const void *)(BS_DSISWITCH_1_0_VAL),	/* TD 37 */
 390:.\Generated_Source\PSoC5/cyfitter_cfg.c **** 		(const void *)(BS_DSI3_0_HV_ROUTING_VAL),	/* TD 38 */
 391:.\Generated_Source\PSoC5/cyfitter_cfg.c **** 		(const void *)(BS_DSISWITCH_1_1_VAL),	/* TD 39 */
 392:.\Generated_Source\PSoC5/cyfitter_cfg.c **** 		(const void *)(BS_DSI3_1_HV_ROUTING_VAL),	/* TD 40 */
 393:.\Generated_Source\PSoC5/cyfitter_cfg.c **** 		(const void *)(BS_DSISWITCH_1_2_VAL),	/* TD 41 */
 394:.\Generated_Source\PSoC5/cyfitter_cfg.c **** 		(const void *)(BS_DSI3_2_HV_ROUTING_VAL),	/* TD 42 */
 395:.\Generated_Source\PSoC5/cyfitter_cfg.c **** 		(const void *)(BS_DSISWITCH_1_3_VAL),	/* TD 43 */
 396:.\Generated_Source\PSoC5/cyfitter_cfg.c **** 		(const void *)(BS_DSI3_3_HV_ROUTING_VAL),	/* TD 44 */
 397:.\Generated_Source\PSoC5/cyfitter_cfg.c **** 		(const void *)(BS_DSISWITCH_1_4_VAL),	/* TD 45 */
 398:.\Generated_Source\PSoC5/cyfitter_cfg.c **** 		(const void *)(BS_DSI3_4_HV_ROUTING_VAL),	/* TD 46 */
 399:.\Generated_Source\PSoC5/cyfitter_cfg.c **** 		(const void *)(BS_DSISWITCH_1_5_VAL),	/* TD 47 */
 400:.\Generated_Source\PSoC5/cyfitter_cfg.c **** 		(const void *)(BS_DSI3_5_HV_ROUTING_VAL),	/* TD 48 */
 401:.\Generated_Source\PSoC5/cyfitter_cfg.c **** 	};
 402:.\Generated_Source\PSoC5/cyfitter_cfg.c **** 
ARM GAS  C:\Users\SCOTTC~1\AppData\Local\Temp\ccOmMcpa.s 			page 11


 403:.\Generated_Source\PSoC5/cyfitter_cfg.c **** 
 404:.\Generated_Source\PSoC5/cyfitter_cfg.c **** 	uint32 i;
 405:.\Generated_Source\PSoC5/cyfitter_cfg.c **** 
 406:.\Generated_Source\PSoC5/cyfitter_cfg.c **** 	DMA_ZERO_VAL = 0u;
 169              		.loc 1 406 0
 170 0006 444B     		ldr	r3, .L15
 171 0008 0022     		movs	r2, #0
 172 000a 1A60     		str	r2, [r3]
 407:.\Generated_Source\PSoC5/cyfitter_cfg.c **** 	CY_SET_REG8((void CYXDATA *)CYREG_PHUB_CFGMEM0_CFG0, 0x10u);	/* set burstcnt */
 173              		.loc 1 407 0
 174 000c 434B     		ldr	r3, .L15+4
 175 000e 1022     		movs	r2, #16
 176 0010 1A70     		strb	r2, [r3]
 408:.\Generated_Source\PSoC5/cyfitter_cfg.c **** 	CY_SET_REG8((void CYXDATA *)CYREG_PHUB_CH0_BASIC_CFG, 0x01u);	/* enable ch0 */
 177              		.loc 1 408 0
 178 0012 434B     		ldr	r3, .L15+8
 179 0014 0122     		movs	r2, #1
 180 0016 1A70     		strb	r2, [r3]
 409:.\Generated_Source\PSoC5/cyfitter_cfg.c **** 	CY_SET_REG8((void CYXDATA *)(CYREG_PHUB_CH0_BASIC_STATUS+1u), 0x00u);	/* set first TD to 0 */
 181              		.loc 1 409 0
 182 0018 424B     		ldr	r3, .L15+12
 183 001a 0022     		movs	r2, #0
 184 001c 1A70     		strb	r2, [r3]
 410:.\Generated_Source\PSoC5/cyfitter_cfg.c **** 	CY_SET_REG16((void CYXDATA *)CYREG_PHUB_TDMEM0_ORIG_TD0, 48u*8u);	/* transfer size */
 185              		.loc 1 410 0
 186 001e 424B     		ldr	r3, .L15+16
 187 0020 4FF4C072 		mov	r2, #384
 188 0024 1A80     		strh	r2, [r3]	@ movhi
 411:.\Generated_Source\PSoC5/cyfitter_cfg.c **** 	CY_SET_REG8((void CYXDATA *)(CYREG_PHUB_TDMEM0_ORIG_TD0+2u), 0x01u);	/* set next TD to 1 */
 189              		.loc 1 411 0
 190 0026 414B     		ldr	r3, .L15+20
 191 0028 0122     		movs	r2, #1
 192 002a 1A70     		strb	r2, [r3]
 412:.\Generated_Source\PSoC5/cyfitter_cfg.c **** 	CY_SET_REG8((void CYXDATA *)(CYREG_PHUB_TDMEM0_ORIG_TD0+3u), 0x03u);	/* set TD flags */
 193              		.loc 1 412 0
 194 002c 404B     		ldr	r3, .L15+24
 195 002e 0322     		movs	r2, #3
 196 0030 1A70     		strb	r2, [r3]
 413:.\Generated_Source\PSoC5/cyfitter_cfg.c **** 	CY_SET_REG16((void CYXDATA *)CYREG_PHUB_TDMEM0_ORIG_TD1, (uint16)((uint32)CFG_TD_LIST0 & 0x0000FFF
 197              		.loc 1 413 0
 198 0032 404B     		ldr	r3, .L15+28
 199 0034 404A     		ldr	r2, .L15+32
 200 0036 92B2     		uxth	r2, r2
 201 0038 1A80     		strh	r2, [r3]	@ movhi
 414:.\Generated_Source\PSoC5/cyfitter_cfg.c **** 	CY_SET_REG16((void CYXDATA *)(CYREG_PHUB_TDMEM0_ORIG_TD1+2u), CYDEV_PHUB_TDMEM1_BASE);	/* set td0'
 202              		.loc 1 414 0
 203 003a 404B     		ldr	r3, .L15+36
 204 003c 47F60802 		movw	r2, #30728
 205 0040 1A80     		strh	r2, [r3]	@ movhi
 415:.\Generated_Source\PSoC5/cyfitter_cfg.c **** 	CY_SET_REG16((void CYXDATA *)CYREG_PHUB_CFGMEM0_CFG1, (uint16)(CYDEV_FLASH_BASE >> 16));	/* set ch
 206              		.loc 1 415 0
 207 0042 3F4B     		ldr	r3, .L15+40
 208 0044 0022     		movs	r2, #0
 209 0046 1A80     		strh	r2, [r3]	@ movhi
 416:.\Generated_Source\PSoC5/cyfitter_cfg.c **** 	CY_SET_REG16((void CYXDATA *)(CYREG_PHUB_CFGMEM0_CFG1+2u), (uint16)(CYDEV_PHUB_TDMEM1_BASE >> 16))
 210              		.loc 1 416 0
 211 0048 3E4B     		ldr	r3, .L15+44
ARM GAS  C:\Users\SCOTTC~1\AppData\Local\Temp\ccOmMcpa.s 			page 12


 212 004a 4FF48042 		mov	r2, #16384
 213 004e 1A80     		strh	r2, [r3]	@ movhi
 417:.\Generated_Source\PSoC5/cyfitter_cfg.c **** 	CY_SET_REG8((void CYXDATA *)(CYREG_PHUB_CH1_BASIC_STATUS+1u), 0x09u);	/* ch1 first TD: 9 */
 214              		.loc 1 417 0
 215 0050 3D4B     		ldr	r3, .L15+48
 216 0052 0922     		movs	r2, #9
 217 0054 1A70     		strb	r2, [r3]
 418:.\Generated_Source\PSoC5/cyfitter_cfg.c **** 	CY_SET_REG8((void CYXDATA *)(CYREG_PHUB_CH2_BASIC_STATUS+1u), 0x0Du);	/* ch2 first TD: 13 */
 218              		.loc 1 418 0
 219 0056 3D4B     		ldr	r3, .L15+52
 220 0058 0D22     		movs	r2, #13
 221 005a 1A70     		strb	r2, [r3]
 419:.\Generated_Source\PSoC5/cyfitter_cfg.c **** 	CY_SET_REG8((void CYXDATA *)(CYREG_PHUB_CH5_BASIC_STATUS+1u), 0x17u);	/* ch5 first TD: 23 */
 222              		.loc 1 419 0
 223 005c 3C4B     		ldr	r3, .L15+56
 224 005e 1722     		movs	r2, #23
 225 0060 1A70     		strb	r2, [r3]
 420:.\Generated_Source\PSoC5/cyfitter_cfg.c **** 	CY_SET_REG8((void CYXDATA *)(CYREG_PHUB_CH6_BASIC_STATUS+1u), 0x18u);	/* ch6 first TD: 24 */
 226              		.loc 1 420 0
 227 0062 3C4B     		ldr	r3, .L15+60
 228 0064 1822     		movs	r2, #24
 229 0066 1A70     		strb	r2, [r3]
 421:.\Generated_Source\PSoC5/cyfitter_cfg.c **** 
 422:.\Generated_Source\PSoC5/cyfitter_cfg.c **** 	CY_CFG_MEMORY_BARRIER();
 230              		.loc 1 422 0
 231 0068 BFF35F8F 		dmb	sy
 423:.\Generated_Source\PSoC5/cyfitter_cfg.c **** 	CY_SET_REG8((void CYXDATA *)CYREG_PHUB_CH0_ACTION, 0x01u); /* cpu_req */
 232              		.loc 1 423 0
 233 006c 3A4B     		ldr	r3, .L15+64
 234 006e 0122     		movs	r2, #1
 235 0070 1A70     		strb	r2, [r3]
 424:.\Generated_Source\PSoC5/cyfitter_cfg.c **** 	CY_CFG_MEMORY_BARRIER();
 236              		.loc 1 424 0
 237 0072 BFF35F8F 		dmb	sy
 425:.\Generated_Source\PSoC5/cyfitter_cfg.c **** 
 426:.\Generated_Source\PSoC5/cyfitter_cfg.c **** 	/* Wait for TDs to be copied into TDMEM */
 427:.\Generated_Source\PSoC5/cyfitter_cfg.c **** 	while (CY_GET_REG16((void CYXDATA *)CYREG_PHUB_TDMEM0_ORIG_TD0) != 0u) { }
 238              		.loc 1 427 0
 239 0076 00BF     		nop
 240              	.L7:
 241              		.loc 1 427 0 is_stmt 0 discriminator 1
 242 0078 2B4B     		ldr	r3, .L15+16
 243 007a 1B88     		ldrh	r3, [r3]	@ movhi
 244 007c 9BB2     		uxth	r3, r3
 245 007e 002B     		cmp	r3, #0
 246 0080 FAD1     		bne	.L7
 428:.\Generated_Source\PSoC5/cyfitter_cfg.c **** 
 429:.\Generated_Source\PSoC5/cyfitter_cfg.c **** 	/* Recombine TD source table (CFG_TD_ADDR0) with full TD table (CFG_TD_LIST0) */
 430:.\Generated_Source\PSoC5/cyfitter_cfg.c **** 	for (i = 0u; i < 48u; i++)
 247              		.loc 1 430 0 is_stmt 1
 248 0082 0023     		movs	r3, #0
 249 0084 7B60     		str	r3, [r7, #4]
 250 0086 0CE0     		b	.L8
 251              	.L9:
 431:.\Generated_Source\PSoC5/cyfitter_cfg.c **** 	{
 432:.\Generated_Source\PSoC5/cyfitter_cfg.c **** 		CY_SET_REG16((void CYXDATA *)(CYREG_PHUB_TDMEM1_ORIG_TD1 + (sizeof(struct td_t)*i)), (uint16)(uin
 252              		.loc 1 432 0 discriminator 2
ARM GAS  C:\Users\SCOTTC~1\AppData\Local\Temp\ccOmMcpa.s 			page 13


 253 0088 7B68     		ldr	r3, [r7, #4]
 254 008a DA00     		lsls	r2, r3, #3
 255 008c 334B     		ldr	r3, .L15+68
 256 008e 1344     		add	r3, r3, r2
 257 0090 334A     		ldr	r2, .L15+72
 258 0092 7968     		ldr	r1, [r7, #4]
 259 0094 52F82120 		ldr	r2, [r2, r1, lsl #2]
 260 0098 92B2     		uxth	r2, r2
 261 009a 1A80     		strh	r2, [r3]	@ movhi
 430:.\Generated_Source\PSoC5/cyfitter_cfg.c **** 	for (i = 0u; i < 48u; i++)
 262              		.loc 1 430 0 discriminator 2
 263 009c 7B68     		ldr	r3, [r7, #4]
 264 009e 0133     		adds	r3, r3, #1
 265 00a0 7B60     		str	r3, [r7, #4]
 266              	.L8:
 430:.\Generated_Source\PSoC5/cyfitter_cfg.c **** 	for (i = 0u; i < 48u; i++)
 267              		.loc 1 430 0 is_stmt 0 discriminator 1
 268 00a2 7B68     		ldr	r3, [r7, #4]
 269 00a4 2F2B     		cmp	r3, #47
 270 00a6 EFD9     		bls	.L9
 433:.\Generated_Source\PSoC5/cyfitter_cfg.c **** 	}
 434:.\Generated_Source\PSoC5/cyfitter_cfg.c **** 
 435:.\Generated_Source\PSoC5/cyfitter_cfg.c **** 	CY_CFG_MEMORY_BARRIER();
 271              		.loc 1 435 0 is_stmt 1
 272 00a8 BFF35F8F 		dmb	sy
 436:.\Generated_Source\PSoC5/cyfitter_cfg.c **** 	CY_SET_REG8((void CYXDATA *)CYREG_PHUB_CH0_ACTION, 0x01u); /* cpu_req */
 273              		.loc 1 436 0
 274 00ac 2A4B     		ldr	r3, .L15+64
 275 00ae 0122     		movs	r2, #1
 276 00b0 1A70     		strb	r2, [r3]
 437:.\Generated_Source\PSoC5/cyfitter_cfg.c **** 	CY_CFG_MEMORY_BARRIER();
 277              		.loc 1 437 0
 278 00b2 BFF35F8F 		dmb	sy
 438:.\Generated_Source\PSoC5/cyfitter_cfg.c **** 
 439:.\Generated_Source\PSoC5/cyfitter_cfg.c **** 	/* Wait for all DMA transfers to complete */
 440:.\Generated_Source\PSoC5/cyfitter_cfg.c **** 	while(0u != (CY_GET_REG8((void CYXDATA *)CYREG_PHUB_CH0_BASIC_STATUS) & 0x01u)){}
 279              		.loc 1 440 0
 280 00b6 00BF     		nop
 281              	.L10:
 282              		.loc 1 440 0 is_stmt 0 discriminator 1
 283 00b8 2A4B     		ldr	r3, .L15+76
 284 00ba 1B78     		ldrb	r3, [r3]
 285 00bc DBB2     		uxtb	r3, r3
 286 00be 03F00103 		and	r3, r3, #1
 287 00c2 002B     		cmp	r3, #0
 288 00c4 F8D1     		bne	.L10
 441:.\Generated_Source\PSoC5/cyfitter_cfg.c **** 	while(0u != (CY_GET_REG8((void CYXDATA *)CYREG_PHUB_CH1_BASIC_STATUS) & 0x01u)){}
 289              		.loc 1 441 0 is_stmt 1
 290 00c6 00BF     		nop
 291              	.L11:
 292              		.loc 1 441 0 is_stmt 0 discriminator 1
 293 00c8 274B     		ldr	r3, .L15+80
 294 00ca 1B78     		ldrb	r3, [r3]
 295 00cc DBB2     		uxtb	r3, r3
 296 00ce 03F00103 		and	r3, r3, #1
 297 00d2 002B     		cmp	r3, #0
 298 00d4 F8D1     		bne	.L11
ARM GAS  C:\Users\SCOTTC~1\AppData\Local\Temp\ccOmMcpa.s 			page 14


 442:.\Generated_Source\PSoC5/cyfitter_cfg.c **** 	while(0u != (CY_GET_REG8((void CYXDATA *)CYREG_PHUB_CH2_BASIC_STATUS) & 0x01u)){}
 299              		.loc 1 442 0 is_stmt 1
 300 00d6 00BF     		nop
 301              	.L12:
 302              		.loc 1 442 0 is_stmt 0 discriminator 1
 303 00d8 244B     		ldr	r3, .L15+84
 304 00da 1B78     		ldrb	r3, [r3]
 305 00dc DBB2     		uxtb	r3, r3
 306 00de 03F00103 		and	r3, r3, #1
 307 00e2 002B     		cmp	r3, #0
 308 00e4 F8D1     		bne	.L12
 443:.\Generated_Source\PSoC5/cyfitter_cfg.c **** 	while(0u != (CY_GET_REG8((void CYXDATA *)CYREG_PHUB_CH5_BASIC_STATUS) & 0x01u)){}
 309              		.loc 1 443 0 is_stmt 1
 310 00e6 00BF     		nop
 311              	.L13:
 312              		.loc 1 443 0 is_stmt 0 discriminator 1
 313 00e8 214B     		ldr	r3, .L15+88
 314 00ea 1B78     		ldrb	r3, [r3]
 315 00ec DBB2     		uxtb	r3, r3
 316 00ee 03F00103 		and	r3, r3, #1
 317 00f2 002B     		cmp	r3, #0
 318 00f4 F8D1     		bne	.L13
 444:.\Generated_Source\PSoC5/cyfitter_cfg.c **** 	while(0u != (CY_GET_REG8((void CYXDATA *)CYREG_PHUB_CH6_BASIC_STATUS) & 0x01u)){}
 319              		.loc 1 444 0 is_stmt 1
 320 00f6 00BF     		nop
 321              	.L14:
 322              		.loc 1 444 0 is_stmt 0 discriminator 1
 323 00f8 1E4B     		ldr	r3, .L15+92
 324 00fa 1B78     		ldrb	r3, [r3]
 325 00fc DBB2     		uxtb	r3, r3
 326 00fe 03F00103 		and	r3, r3, #1
 327 0102 002B     		cmp	r3, #0
 328 0104 F8D1     		bne	.L14
 445:.\Generated_Source\PSoC5/cyfitter_cfg.c **** 
 446:.\Generated_Source\PSoC5/cyfitter_cfg.c **** 
 447:.\Generated_Source\PSoC5/cyfitter_cfg.c **** 	CYCONFIGCPY((void CYFAR *)(CYREG_IDMUX_DRQ_CTL0), (const void CYFAR *)(BS_IDMUX_VAL), 6u);
 329              		.loc 1 447 0 is_stmt 1
 330 0106 1C48     		ldr	r0, .L15+96
 331 0108 4FF09041 		mov	r1, #1207959552
 332 010c 0622     		movs	r2, #6
 333 010e FFF7FEFF 		bl	CYCONFIGCPY
 448:.\Generated_Source\PSoC5/cyfitter_cfg.c **** 
 449:.\Generated_Source\PSoC5/cyfitter_cfg.c **** }
 334              		.loc 1 449 0
 335 0112 0837     		adds	r7, r7, #8
 336 0114 BD46     		mov	sp, r7
 337              		@ sp needed
 338 0116 80BD     		pop	{r7, pc}
 339              	.L16:
 340              		.align	2
 341              	.L15:
 342 0118 00000000 		.word	DMA_ZERO_VAL.4813
 343 011c 00760040 		.word	1073772032
 344 0120 10700040 		.word	1073770512
 345 0124 19700040 		.word	1073770521
 346 0128 00780040 		.word	1073772544
 347 012c 02780040 		.word	1073772546
ARM GAS  C:\Users\SCOTTC~1\AppData\Local\Temp\ccOmMcpa.s 			page 15


 348 0130 03780040 		.word	1073772547
 349 0134 04780040 		.word	1073772548
 350 0138 00000000 		.word	CFG_TD_LIST0.4814
 351 013c 06780040 		.word	1073772550
 352 0140 04760040 		.word	1073772036
 353 0144 06760040 		.word	1073772038
 354 0148 29700040 		.word	1073770537
 355 014c 39700040 		.word	1073770553
 356 0150 69700040 		.word	1073770601
 357 0154 79700040 		.word	1073770617
 358 0158 14700040 		.word	1073770516
 359 015c 0C780040 		.word	1073772556
 360 0160 0C000000 		.word	CFG_TD_ADDR0.4815
 361 0164 18700040 		.word	1073770520
 362 0168 28700040 		.word	1073770536
 363 016c 38700040 		.word	1073770552
 364 0170 68700040 		.word	1073770600
 365 0174 78700040 		.word	1073770616
 366 0178 10510140 		.word	1073828112
 367              		.cfi_endproc
 368              	.LFE4:
 369              		.size	cfg_dma_init, .-cfg_dma_init
 370              		.section	.text.ClockSetup,"ax",%progbits
 371              		.align	2
 372              		.thumb
 373              		.thumb_func
 374              		.type	ClockSetup, %function
 375              	ClockSetup:
 376              	.LFB5:
 450:.\Generated_Source\PSoC5/cyfitter_cfg.c **** /*******************************************************************************
 451:.\Generated_Source\PSoC5/cyfitter_cfg.c **** * Function Name: ClockSetup
 452:.\Generated_Source\PSoC5/cyfitter_cfg.c **** ********************************************************************************
 453:.\Generated_Source\PSoC5/cyfitter_cfg.c **** *
 454:.\Generated_Source\PSoC5/cyfitter_cfg.c **** * Summary:
 455:.\Generated_Source\PSoC5/cyfitter_cfg.c **** *  Performs the initialization of all of the clocks in the device based on the
 456:.\Generated_Source\PSoC5/cyfitter_cfg.c **** *  settings in the Clock tab of the DWR.  This includes enabling the requested
 457:.\Generated_Source\PSoC5/cyfitter_cfg.c **** *  clocks and setting the necessary dividers to produce the desired frequency. 
 458:.\Generated_Source\PSoC5/cyfitter_cfg.c **** *
 459:.\Generated_Source\PSoC5/cyfitter_cfg.c **** * Parameters:
 460:.\Generated_Source\PSoC5/cyfitter_cfg.c **** *  void
 461:.\Generated_Source\PSoC5/cyfitter_cfg.c **** *
 462:.\Generated_Source\PSoC5/cyfitter_cfg.c **** * Return:
 463:.\Generated_Source\PSoC5/cyfitter_cfg.c **** *  void
 464:.\Generated_Source\PSoC5/cyfitter_cfg.c **** *
 465:.\Generated_Source\PSoC5/cyfitter_cfg.c **** *******************************************************************************/
 466:.\Generated_Source\PSoC5/cyfitter_cfg.c **** static void ClockSetup(void);
 467:.\Generated_Source\PSoC5/cyfitter_cfg.c **** static void ClockSetup(void)
 468:.\Generated_Source\PSoC5/cyfitter_cfg.c **** {
 377              		.loc 1 468 0
 378              		.cfi_startproc
 379              		@ args = 0, pretend = 0, frame = 8
 380              		@ frame_needed = 1, uses_anonymous_args = 0
 381 0000 80B5     		push	{r7, lr}
 382              		.cfi_def_cfa_offset 8
 383              		.cfi_offset 7, -8
 384              		.cfi_offset 14, -4
 385 0002 82B0     		sub	sp, sp, #8
ARM GAS  C:\Users\SCOTTC~1\AppData\Local\Temp\ccOmMcpa.s 			page 16


 386              		.cfi_def_cfa_offset 16
 387 0004 00AF     		add	r7, sp, #0
 388              		.cfi_def_cfa_register 7
 469:.\Generated_Source\PSoC5/cyfitter_cfg.c **** 	uint32 timeout;
 470:.\Generated_Source\PSoC5/cyfitter_cfg.c **** 	uint8 pllLock;
 471:.\Generated_Source\PSoC5/cyfitter_cfg.c **** 
 472:.\Generated_Source\PSoC5/cyfitter_cfg.c **** 
 473:.\Generated_Source\PSoC5/cyfitter_cfg.c **** 	/* Configure Digital Clocks based on settings from Clock DWR */
 474:.\Generated_Source\PSoC5/cyfitter_cfg.c **** 	CY_SET_XTND_REG16((void CYFAR *)(CYREG_CLKDIST_DCFG0_CFG0), 0x0000u);
 389              		.loc 1 474 0
 390 0006 3C4B     		ldr	r3, .L22
 391 0008 0022     		movs	r2, #0
 392 000a 1A80     		strh	r2, [r3]	@ movhi
 475:.\Generated_Source\PSoC5/cyfitter_cfg.c **** 	CY_SET_XTND_REG8((void CYFAR *)(CYREG_CLKDIST_DCFG0_CFG0 + 0x2u), 0x50u);
 393              		.loc 1 475 0
 394 000c 3B4B     		ldr	r3, .L22+4
 395 000e 5022     		movs	r2, #80
 396 0010 1A70     		strb	r2, [r3]
 476:.\Generated_Source\PSoC5/cyfitter_cfg.c **** 
 477:.\Generated_Source\PSoC5/cyfitter_cfg.c **** 	/* Configure Analog Clocks based on settings from Clock DWR */
 478:.\Generated_Source\PSoC5/cyfitter_cfg.c **** 	CYCONFIGCPY((void CYFAR *)(CYREG_CLKDIST_ACFG0_CFG0), (const void CYFAR *)(BS_CYDEV_CLKDIST_ACFG0_
 397              		.loc 1 478 0
 398 0012 3B48     		ldr	r0, .L22+8
 399 0014 3B49     		ldr	r1, .L22+12
 400 0016 0422     		movs	r2, #4
 401 0018 FFF7FEFF 		bl	CYCONFIGCPY
 479:.\Generated_Source\PSoC5/cyfitter_cfg.c **** 
 480:.\Generated_Source\PSoC5/cyfitter_cfg.c **** 	/* Configure ILO based on settings from Clock DWR */
 481:.\Generated_Source\PSoC5/cyfitter_cfg.c **** 	CY_SET_XTND_REG8((void CYFAR *)(CYREG_SLOWCLK_ILO_CR0), 0x02u);
 402              		.loc 1 481 0
 403 001c 3A4B     		ldr	r3, .L22+16
 404 001e 0222     		movs	r2, #2
 405 0020 1A70     		strb	r2, [r3]
 482:.\Generated_Source\PSoC5/cyfitter_cfg.c **** 	CY_SET_XTND_REG8((void CYFAR *)(CYREG_CLKDIST_CR), 0x08u);
 406              		.loc 1 482 0
 407 0022 4FF04023 		mov	r3, #1073758208
 408 0026 0822     		movs	r2, #8
 409 0028 1A70     		strb	r2, [r3]
 483:.\Generated_Source\PSoC5/cyfitter_cfg.c **** 
 484:.\Generated_Source\PSoC5/cyfitter_cfg.c **** 	/* Configure IMO based on settings from Clock DWR */
 485:.\Generated_Source\PSoC5/cyfitter_cfg.c **** 	CY_SET_XTND_REG8((void CYFAR *)(CYREG_FASTCLK_IMO_CR), 0x03u);
 410              		.loc 1 485 0
 411 002a 384B     		ldr	r3, .L22+20
 412 002c 0322     		movs	r2, #3
 413 002e 1A70     		strb	r2, [r3]
 486:.\Generated_Source\PSoC5/cyfitter_cfg.c **** 	CY_SET_XTND_REG8((void CYFAR *)(CYREG_IMO_TR1), (CY_GET_XTND_REG8((void CYFAR *)CYREG_FLSHID_CUST_
 414              		.loc 1 486 0
 415 0030 374B     		ldr	r3, .L22+24
 416 0032 384A     		ldr	r2, .L22+28
 417 0034 1278     		ldrb	r2, [r2]
 418 0036 D2B2     		uxtb	r2, r2
 419 0038 1A70     		strb	r2, [r3]
 487:.\Generated_Source\PSoC5/cyfitter_cfg.c **** 
 488:.\Generated_Source\PSoC5/cyfitter_cfg.c **** 	/* Configure PLL based on settings from Clock DWR */
 489:.\Generated_Source\PSoC5/cyfitter_cfg.c **** 	CY_SET_XTND_REG16((void CYFAR *)(CYREG_FASTCLK_PLL_P), 0x0221u);
 420              		.loc 1 489 0
 421 003a 374B     		ldr	r3, .L22+32
ARM GAS  C:\Users\SCOTTC~1\AppData\Local\Temp\ccOmMcpa.s 			page 17


 422 003c 40F22122 		movw	r2, #545
 423 0040 1A80     		strh	r2, [r3]	@ movhi
 490:.\Generated_Source\PSoC5/cyfitter_cfg.c **** 	CY_SET_XTND_REG16((void CYFAR *)(CYREG_FASTCLK_PLL_CFG0), 0x1251u);
 424              		.loc 1 490 0
 425 0042 364B     		ldr	r3, .L22+36
 426 0044 41F25122 		movw	r2, #4689
 427 0048 1A80     		strh	r2, [r3]	@ movhi
 491:.\Generated_Source\PSoC5/cyfitter_cfg.c **** 	/* Wait up to 250us for the PLL to lock */
 492:.\Generated_Source\PSoC5/cyfitter_cfg.c **** 	pllLock = 0u;
 428              		.loc 1 492 0
 429 004a 0023     		movs	r3, #0
 430 004c FB70     		strb	r3, [r7, #3]
 493:.\Generated_Source\PSoC5/cyfitter_cfg.c **** 	for (timeout = 250u / 10u; (timeout > 0u) && (pllLock != 0x03u); timeout--)
 431              		.loc 1 493 0
 432 004e 1923     		movs	r3, #25
 433 0050 7B60     		str	r3, [r7, #4]
 434 0052 13E0     		b	.L18
 435              	.L20:
 494:.\Generated_Source\PSoC5/cyfitter_cfg.c **** 	{ 
 495:.\Generated_Source\PSoC5/cyfitter_cfg.c **** 		pllLock = 0x03u & ((uint8)((uint8)pllLock << 1) | ((CY_GET_XTND_REG8((void CYFAR *)CYREG_FASTCLK_
 436              		.loc 1 495 0 discriminator 1
 437 0054 FB78     		ldrb	r3, [r7, #3]
 438 0056 5B00     		lsls	r3, r3, #1
 439 0058 DAB2     		uxtb	r2, r3
 440 005a 314B     		ldr	r3, .L22+40
 441 005c 1B78     		ldrb	r3, [r3]
 442 005e DBB2     		uxtb	r3, r3
 443 0060 03F00103 		and	r3, r3, #1
 444 0064 DBB2     		uxtb	r3, r3
 445 0066 1343     		orrs	r3, r3, r2
 446 0068 DBB2     		uxtb	r3, r3
 447 006a 03F00303 		and	r3, r3, #3
 448 006e FB70     		strb	r3, [r7, #3]
 496:.\Generated_Source\PSoC5/cyfitter_cfg.c **** 		CyDelayCycles(10u * 12u); /* Delay 10us based on 12MHz clock */
 449              		.loc 1 496 0 discriminator 1
 450 0070 7820     		movs	r0, #120
 451 0072 FFF7FEFF 		bl	CyDelayCycles
 493:.\Generated_Source\PSoC5/cyfitter_cfg.c **** 	for (timeout = 250u / 10u; (timeout > 0u) && (pllLock != 0x03u); timeout--)
 452              		.loc 1 493 0 discriminator 1
 453 0076 7B68     		ldr	r3, [r7, #4]
 454 0078 013B     		subs	r3, r3, #1
 455 007a 7B60     		str	r3, [r7, #4]
 456              	.L18:
 457 007c 7B68     		ldr	r3, [r7, #4]
 458 007e 002B     		cmp	r3, #0
 459 0080 02D0     		beq	.L19
 493:.\Generated_Source\PSoC5/cyfitter_cfg.c **** 	for (timeout = 250u / 10u; (timeout > 0u) && (pllLock != 0x03u); timeout--)
 460              		.loc 1 493 0 is_stmt 0 discriminator 2
 461 0082 FB78     		ldrb	r3, [r7, #3]	@ zero_extendqisi2
 462 0084 032B     		cmp	r3, #3
 463 0086 E5D1     		bne	.L20
 464              	.L19:
 497:.\Generated_Source\PSoC5/cyfitter_cfg.c **** 	}
 498:.\Generated_Source\PSoC5/cyfitter_cfg.c **** 	/* If we ran out of time the PLL didn't lock so go to the error function */
 499:.\Generated_Source\PSoC5/cyfitter_cfg.c **** 	if (timeout == 0u)
 465              		.loc 1 499 0 is_stmt 1
 466 0088 7B68     		ldr	r3, [r7, #4]
ARM GAS  C:\Users\SCOTTC~1\AppData\Local\Temp\ccOmMcpa.s 			page 18


 467 008a 002B     		cmp	r3, #0
 468 008c 02D1     		bne	.L21
 500:.\Generated_Source\PSoC5/cyfitter_cfg.c **** 	{
 501:.\Generated_Source\PSoC5/cyfitter_cfg.c **** 		CyClockStartupError(CYCLOCKSTART_PLL_ERROR);
 469              		.loc 1 501 0
 470 008e 0320     		movs	r0, #3
 471 0090 FFF7FEFF 		bl	CyClockStartupError
 472              	.L21:
 502:.\Generated_Source\PSoC5/cyfitter_cfg.c **** 	}
 503:.\Generated_Source\PSoC5/cyfitter_cfg.c **** 
 504:.\Generated_Source\PSoC5/cyfitter_cfg.c **** 	/* Configure Bus/Master Clock based on settings from Clock DWR */
 505:.\Generated_Source\PSoC5/cyfitter_cfg.c **** 	CY_SET_XTND_REG16((void CYFAR *)(CYREG_CLKDIST_MSTR0), 0x0100u);
 473              		.loc 1 505 0
 474 0094 234B     		ldr	r3, .L22+44
 475 0096 4FF48072 		mov	r2, #256
 476 009a 1A80     		strh	r2, [r3]	@ movhi
 506:.\Generated_Source\PSoC5/cyfitter_cfg.c **** 	CY_SET_XTND_REG8((void CYFAR *)(CYREG_CLKDIST_MSTR0), 0x07u);
 477              		.loc 1 506 0
 478 009c 214B     		ldr	r3, .L22+44
 479 009e 0722     		movs	r2, #7
 480 00a0 1A70     		strb	r2, [r3]
 507:.\Generated_Source\PSoC5/cyfitter_cfg.c **** 	CY_SET_XTND_REG8((void CYFAR *)(CYREG_CLKDIST_BCFG0), 0x00u);
 481              		.loc 1 507 0
 482 00a2 214B     		ldr	r3, .L22+48
 483 00a4 0022     		movs	r2, #0
 484 00a6 1A70     		strb	r2, [r3]
 508:.\Generated_Source\PSoC5/cyfitter_cfg.c **** 	CY_SET_XTND_REG8((void CYFAR *)(CYREG_CLKDIST_BCFG2), 0x48u);
 485              		.loc 1 508 0
 486 00a8 204B     		ldr	r3, .L22+52
 487 00aa 4822     		movs	r2, #72
 488 00ac 1A70     		strb	r2, [r3]
 509:.\Generated_Source\PSoC5/cyfitter_cfg.c **** 	CY_SET_XTND_REG8((void CYFAR *)(CYREG_CLKDIST_MSTR0), 0x00u);
 489              		.loc 1 509 0
 490 00ae 1D4B     		ldr	r3, .L22+44
 491 00b0 0022     		movs	r2, #0
 492 00b2 1A70     		strb	r2, [r3]
 510:.\Generated_Source\PSoC5/cyfitter_cfg.c **** 	CY_SET_XTND_REG8((void CYFAR *)(CYREG_CLKDIST_LD), 0x02u);
 493              		.loc 1 510 0
 494 00b4 1E4B     		ldr	r3, .L22+56
 495 00b6 0222     		movs	r2, #2
 496 00b8 1A70     		strb	r2, [r3]
 511:.\Generated_Source\PSoC5/cyfitter_cfg.c **** 	CY_SET_XTND_REG8((void CYFAR *)(CYREG_CLKDIST_DLY1), 0x04u);
 497              		.loc 1 511 0
 498 00ba 1E4B     		ldr	r3, .L22+60
 499 00bc 0422     		movs	r2, #4
 500 00be 1A70     		strb	r2, [r3]
 512:.\Generated_Source\PSoC5/cyfitter_cfg.c **** 
 513:.\Generated_Source\PSoC5/cyfitter_cfg.c **** 	CY_SET_XTND_REG8((void CYFAR *)(CYREG_PM_ACT_CFG2), ((CY_GET_XTND_REG8((void CYFAR *)CYREG_PM_ACT_
 501              		.loc 1 513 0
 502 00c0 1D4B     		ldr	r3, .L22+64
 503 00c2 1D4A     		ldr	r2, .L22+64
 504 00c4 1278     		ldrb	r2, [r2]
 505 00c6 D2B2     		uxtb	r2, r2
 506 00c8 42F00102 		orr	r2, r2, #1
 507 00cc D2B2     		uxtb	r2, r2
 508 00ce 1A70     		strb	r2, [r3]
 514:.\Generated_Source\PSoC5/cyfitter_cfg.c **** 	CY_SET_XTND_REG8((void CYFAR *)(CYREG_PM_ACT_CFG1), ((CY_GET_XTND_REG8((void CYFAR *)CYREG_PM_ACT_
ARM GAS  C:\Users\SCOTTC~1\AppData\Local\Temp\ccOmMcpa.s 			page 19


 509              		.loc 1 514 0
 510 00d0 1A4B     		ldr	r3, .L22+68
 511 00d2 1A4A     		ldr	r2, .L22+68
 512 00d4 1278     		ldrb	r2, [r2]
 513 00d6 D2B2     		uxtb	r2, r2
 514 00d8 42F00102 		orr	r2, r2, #1
 515 00dc D2B2     		uxtb	r2, r2
 516 00de 1A70     		strb	r2, [r3]
 515:.\Generated_Source\PSoC5/cyfitter_cfg.c **** 	CY_SET_XTND_REG8((void CYFAR *)(CYREG_PM_ACT_CFG0), ((CY_GET_XTND_REG8((void CYFAR *)CYREG_PM_ACT_
 517              		.loc 1 515 0
 518 00e0 174B     		ldr	r3, .L22+72
 519 00e2 174A     		ldr	r2, .L22+72
 520 00e4 1278     		ldrb	r2, [r2]
 521 00e6 D2B2     		uxtb	r2, r2
 522 00e8 62F07F02 		orn	r2, r2, #127
 523 00ec D2B2     		uxtb	r2, r2
 524 00ee 1A70     		strb	r2, [r3]
 516:.\Generated_Source\PSoC5/cyfitter_cfg.c **** }
 525              		.loc 1 516 0
 526 00f0 0837     		adds	r7, r7, #8
 527 00f2 BD46     		mov	sp, r7
 528              		@ sp needed
 529 00f4 80BD     		pop	{r7, pc}
 530              	.L23:
 531 00f6 00BF     		.align	2
 532              	.L22:
 533 00f8 80400040 		.word	1073758336
 534 00fc 82400040 		.word	1073758338
 535 0100 00410040 		.word	1073758464
 536 0104 A80C0048 		.word	1207962792
 537 0108 00430040 		.word	1073758976
 538 010c 00420040 		.word	1073758720
 539 0110 A1460040 		.word	1073759905
 540 0114 08010049 		.word	1224737032
 541 0118 22420040 		.word	1073758754
 542 011c 20420040 		.word	1073758752
 543 0120 25420040 		.word	1073758757
 544 0124 04400040 		.word	1073758212
 545 0128 06400040 		.word	1073758214
 546 012c 08400040 		.word	1073758216
 547 0130 01400040 		.word	1073758209
 548 0134 0B400040 		.word	1073758219
 549 0138 A2430040 		.word	1073759138
 550 013c A1430040 		.word	1073759137
 551 0140 A0430040 		.word	1073759136
 552              		.cfi_endproc
 553              	.LFE5:
 554              		.size	ClockSetup, .-ClockSetup
 555              		.section	.text.AnalogSetDefault,"ax",%progbits
 556              		.align	2
 557              		.thumb
 558              		.thumb_func
 559              		.type	AnalogSetDefault, %function
 560              	AnalogSetDefault:
 561              	.LFB6:
 517:.\Generated_Source\PSoC5/cyfitter_cfg.c **** 
 518:.\Generated_Source\PSoC5/cyfitter_cfg.c **** 
ARM GAS  C:\Users\SCOTTC~1\AppData\Local\Temp\ccOmMcpa.s 			page 20


 519:.\Generated_Source\PSoC5/cyfitter_cfg.c **** /* Analog API Functions */
 520:.\Generated_Source\PSoC5/cyfitter_cfg.c **** 
 521:.\Generated_Source\PSoC5/cyfitter_cfg.c **** 
 522:.\Generated_Source\PSoC5/cyfitter_cfg.c **** /*******************************************************************************
 523:.\Generated_Source\PSoC5/cyfitter_cfg.c **** * Function Name: AnalogSetDefault
 524:.\Generated_Source\PSoC5/cyfitter_cfg.c **** ********************************************************************************
 525:.\Generated_Source\PSoC5/cyfitter_cfg.c **** *
 526:.\Generated_Source\PSoC5/cyfitter_cfg.c **** * Summary:
 527:.\Generated_Source\PSoC5/cyfitter_cfg.c **** *  Sets up the analog portions of the chip to default values based on chip
 528:.\Generated_Source\PSoC5/cyfitter_cfg.c **** *  configuration options from the project.
 529:.\Generated_Source\PSoC5/cyfitter_cfg.c **** *
 530:.\Generated_Source\PSoC5/cyfitter_cfg.c **** * Parameters:
 531:.\Generated_Source\PSoC5/cyfitter_cfg.c **** *  void
 532:.\Generated_Source\PSoC5/cyfitter_cfg.c **** *
 533:.\Generated_Source\PSoC5/cyfitter_cfg.c **** * Return:
 534:.\Generated_Source\PSoC5/cyfitter_cfg.c **** *  void
 535:.\Generated_Source\PSoC5/cyfitter_cfg.c **** *
 536:.\Generated_Source\PSoC5/cyfitter_cfg.c **** *******************************************************************************/
 537:.\Generated_Source\PSoC5/cyfitter_cfg.c **** static void AnalogSetDefault(void);
 538:.\Generated_Source\PSoC5/cyfitter_cfg.c **** static void AnalogSetDefault(void)
 539:.\Generated_Source\PSoC5/cyfitter_cfg.c **** {
 562              		.loc 1 539 0
 563              		.cfi_startproc
 564              		@ args = 0, pretend = 0, frame = 8
 565              		@ frame_needed = 1, uses_anonymous_args = 0
 566              		@ link register save eliminated.
 567 0000 80B4     		push	{r7}
 568              		.cfi_def_cfa_offset 4
 569              		.cfi_offset 7, -4
 570 0002 83B0     		sub	sp, sp, #12
 571              		.cfi_def_cfa_offset 16
 572 0004 00AF     		add	r7, sp, #0
 573              		.cfi_def_cfa_register 7
 540:.\Generated_Source\PSoC5/cyfitter_cfg.c **** 	uint8 bg_xover_inl_trim = CY_GET_XTND_REG8((void CYFAR *)(CYREG_FLSHID_MFG_CFG_BG_XOVER_INL_TRIM +
 574              		.loc 1 540 0
 575 0006 0E4B     		ldr	r3, .L25
 576 0008 1B78     		ldrb	r3, [r3]
 577 000a FB71     		strb	r3, [r7, #7]
 541:.\Generated_Source\PSoC5/cyfitter_cfg.c **** 	CY_SET_XTND_REG8((void CYFAR *)(CYREG_BG_DFT0), (bg_xover_inl_trim & 0x07u));
 578              		.loc 1 541 0
 579 000c 0D4B     		ldr	r3, .L25+4
 580 000e FA79     		ldrb	r2, [r7, #7]
 581 0010 02F00702 		and	r2, r2, #7
 582 0014 D2B2     		uxtb	r2, r2
 583 0016 1A70     		strb	r2, [r3]
 542:.\Generated_Source\PSoC5/cyfitter_cfg.c **** 	CY_SET_XTND_REG8((void CYFAR *)(CYREG_BG_DFT1), ((bg_xover_inl_trim >> 4) & 0x0Fu));
 584              		.loc 1 542 0
 585 0018 0B4B     		ldr	r3, .L25+8
 586 001a FA79     		ldrb	r2, [r7, #7]	@ zero_extendqisi2
 587 001c 1209     		lsrs	r2, r2, #4
 588 001e D2B2     		uxtb	r2, r2
 589 0020 1A70     		strb	r2, [r3]
 543:.\Generated_Source\PSoC5/cyfitter_cfg.c **** 	CY_SET_XTND_REG8((void CYFAR *)CYREG_PRT0_AG, 0x01u);
 590              		.loc 1 543 0
 591 0022 0A4B     		ldr	r3, .L25+12
 592 0024 0122     		movs	r2, #1
 593 0026 1A70     		strb	r2, [r3]
ARM GAS  C:\Users\SCOTTC~1\AppData\Local\Temp\ccOmMcpa.s 			page 21


 544:.\Generated_Source\PSoC5/cyfitter_cfg.c **** 	CY_SET_XTND_REG8((void CYFAR *)CYREG_DSM0_SW0, 0x10u);
 594              		.loc 1 544 0
 595 0028 094B     		ldr	r3, .L25+16
 596 002a 1022     		movs	r2, #16
 597 002c 1A70     		strb	r2, [r3]
 545:.\Generated_Source\PSoC5/cyfitter_cfg.c **** 	CY_SET_XTND_REG8((void CYFAR *)CYREG_PUMP_CR0, 0x44u);
 598              		.loc 1 545 0
 599 002e 094B     		ldr	r3, .L25+20
 600 0030 4422     		movs	r2, #68
 601 0032 1A70     		strb	r2, [r3]
 546:.\Generated_Source\PSoC5/cyfitter_cfg.c **** }
 602              		.loc 1 546 0
 603 0034 0C37     		adds	r7, r7, #12
 604 0036 BD46     		mov	sp, r7
 605              		@ sp needed
 606 0038 5DF8047B 		ldr	r7, [sp], #4
 607 003c 7047     		bx	lr
 608              	.L26:
 609 003e 00BF     		.align	2
 610              	.L25:
 611 0040 CF010049 		.word	1224737231
 612 0044 6E580040 		.word	1073764462
 613 0048 6F580040 		.word	1073764463
 614 004c 0D510040 		.word	1073762573
 615 0050 005B0040 		.word	1073765120
 616 0054 76580040 		.word	1073764470
 617              		.cfi_endproc
 618              	.LFE6:
 619              		.size	AnalogSetDefault, .-AnalogSetDefault
 620              		.section	.text.SetAnalogRoutingPumps,"ax",%progbits
 621              		.align	2
 622              		.global	SetAnalogRoutingPumps
 623              		.thumb
 624              		.thumb_func
 625              		.type	SetAnalogRoutingPumps, %function
 626              	SetAnalogRoutingPumps:
 627              	.LFB7:
 547:.\Generated_Source\PSoC5/cyfitter_cfg.c **** 
 548:.\Generated_Source\PSoC5/cyfitter_cfg.c **** 
 549:.\Generated_Source\PSoC5/cyfitter_cfg.c **** /*******************************************************************************
 550:.\Generated_Source\PSoC5/cyfitter_cfg.c **** * Function Name: SetAnalogRoutingPumps
 551:.\Generated_Source\PSoC5/cyfitter_cfg.c **** ********************************************************************************
 552:.\Generated_Source\PSoC5/cyfitter_cfg.c **** *
 553:.\Generated_Source\PSoC5/cyfitter_cfg.c **** * Summary:
 554:.\Generated_Source\PSoC5/cyfitter_cfg.c **** * Enables or disables the analog pumps feeding analog routing switches.
 555:.\Generated_Source\PSoC5/cyfitter_cfg.c **** * Intended to be called at startup, based on the Vdda system configuration;
 556:.\Generated_Source\PSoC5/cyfitter_cfg.c **** * may be called during operation when the user informs us that the Vdda voltage
 557:.\Generated_Source\PSoC5/cyfitter_cfg.c **** * crossed the pump threshold.
 558:.\Generated_Source\PSoC5/cyfitter_cfg.c **** *
 559:.\Generated_Source\PSoC5/cyfitter_cfg.c **** * Parameters:
 560:.\Generated_Source\PSoC5/cyfitter_cfg.c **** *  enabled - 1 to enable the pumps, 0 to disable the pumps
 561:.\Generated_Source\PSoC5/cyfitter_cfg.c **** *
 562:.\Generated_Source\PSoC5/cyfitter_cfg.c **** * Return:
 563:.\Generated_Source\PSoC5/cyfitter_cfg.c **** *  void
 564:.\Generated_Source\PSoC5/cyfitter_cfg.c **** *
 565:.\Generated_Source\PSoC5/cyfitter_cfg.c **** *******************************************************************************/
 566:.\Generated_Source\PSoC5/cyfitter_cfg.c **** void SetAnalogRoutingPumps(uint8 enabled)
ARM GAS  C:\Users\SCOTTC~1\AppData\Local\Temp\ccOmMcpa.s 			page 22


 567:.\Generated_Source\PSoC5/cyfitter_cfg.c **** {
 628              		.loc 1 567 0
 629              		.cfi_startproc
 630              		@ args = 0, pretend = 0, frame = 16
 631              		@ frame_needed = 1, uses_anonymous_args = 0
 632              		@ link register save eliminated.
 633 0000 80B4     		push	{r7}
 634              		.cfi_def_cfa_offset 4
 635              		.cfi_offset 7, -4
 636 0002 85B0     		sub	sp, sp, #20
 637              		.cfi_def_cfa_offset 24
 638 0004 00AF     		add	r7, sp, #0
 639              		.cfi_def_cfa_register 7
 640 0006 0346     		mov	r3, r0
 641 0008 FB71     		strb	r3, [r7, #7]
 568:.\Generated_Source\PSoC5/cyfitter_cfg.c **** 	uint8 regValue = CY_GET_XTND_REG8((void CYFAR *)CYREG_PUMP_CR0);
 642              		.loc 1 568 0
 643 000a 0B4B     		ldr	r3, .L30
 644 000c 1B78     		ldrb	r3, [r3]
 645 000e FB73     		strb	r3, [r7, #15]
 569:.\Generated_Source\PSoC5/cyfitter_cfg.c **** 	if (enabled != 0u)
 646              		.loc 1 569 0
 647 0010 FB79     		ldrb	r3, [r7, #7]	@ zero_extendqisi2
 648 0012 002B     		cmp	r3, #0
 649 0014 04D0     		beq	.L28
 570:.\Generated_Source\PSoC5/cyfitter_cfg.c **** 	{
 571:.\Generated_Source\PSoC5/cyfitter_cfg.c **** 		regValue |= 0x22u;
 650              		.loc 1 571 0
 651 0016 FB7B     		ldrb	r3, [r7, #15]
 652 0018 43F02203 		orr	r3, r3, #34
 653 001c FB73     		strb	r3, [r7, #15]
 654 001e 03E0     		b	.L29
 655              	.L28:
 572:.\Generated_Source\PSoC5/cyfitter_cfg.c **** 	}
 573:.\Generated_Source\PSoC5/cyfitter_cfg.c **** 	else
 574:.\Generated_Source\PSoC5/cyfitter_cfg.c **** 	{
 575:.\Generated_Source\PSoC5/cyfitter_cfg.c **** 		regValue &= (uint8)~0x22u;
 656              		.loc 1 575 0
 657 0020 FB7B     		ldrb	r3, [r7, #15]
 658 0022 23F02203 		bic	r3, r3, #34
 659 0026 FB73     		strb	r3, [r7, #15]
 660              	.L29:
 576:.\Generated_Source\PSoC5/cyfitter_cfg.c **** 	}
 577:.\Generated_Source\PSoC5/cyfitter_cfg.c **** 	CY_SET_XTND_REG8((void CYFAR *)CYREG_PUMP_CR0, regValue);
 661              		.loc 1 577 0
 662 0028 034B     		ldr	r3, .L30
 663 002a FA7B     		ldrb	r2, [r7, #15]
 664 002c 1A70     		strb	r2, [r3]
 578:.\Generated_Source\PSoC5/cyfitter_cfg.c **** }
 665              		.loc 1 578 0
 666 002e 1437     		adds	r7, r7, #20
 667 0030 BD46     		mov	sp, r7
 668              		@ sp needed
 669 0032 5DF8047B 		ldr	r7, [sp], #4
 670 0036 7047     		bx	lr
 671              	.L31:
 672              		.align	2
ARM GAS  C:\Users\SCOTTC~1\AppData\Local\Temp\ccOmMcpa.s 			page 23


 673              	.L30:
 674 0038 76580040 		.word	1073764470
 675              		.cfi_endproc
 676              	.LFE7:
 677              		.size	SetAnalogRoutingPumps, .-SetAnalogRoutingPumps
 678              		.global	ADC_AMux__addrTable
 679              		.section	.rodata
 680              		.align	2
 681              		.type	ADC_AMux__addrTable, %object
 682              		.size	ADC_AMux__addrTable, 8
 683              	ADC_AMux__addrTable:
 684 0000 035B0040 		.word	1073765123
 685 0004 24430040 		.word	1073759012
 686              		.global	ADC_AMux__maskTable
 687              		.align	2
 688              		.type	ADC_AMux__maskTable, %object
 689              		.size	ADC_AMux__maskTable, 2
 690              	ADC_AMux__maskTable:
 691 0008 40       		.byte	64
 692 0009 00       		.byte	0
 693              		.section	.text.ADC_AMux_Set,"ax",%progbits
 694              		.align	2
 695              		.global	ADC_AMux_Set
 696              		.thumb
 697              		.thumb_func
 698              		.type	ADC_AMux_Set, %function
 699              	ADC_AMux_Set:
 700              	.LFB8:
 579:.\Generated_Source\PSoC5/cyfitter_cfg.c **** 
 580:.\Generated_Source\PSoC5/cyfitter_cfg.c **** #define CY_AMUX_UNUSED CYREG_BOOST_SR
 581:.\Generated_Source\PSoC5/cyfitter_cfg.c **** /* This is an implementation detail of the AMux. Code that depends on it may be
 582:.\Generated_Source\PSoC5/cyfitter_cfg.c ****    incompatible with other versions of PSoC Creator. */
 583:.\Generated_Source\PSoC5/cyfitter_cfg.c **** uint8 CYXDATA * const CYCODE ADC_AMux__addrTable[2] = {
 584:.\Generated_Source\PSoC5/cyfitter_cfg.c **** 	(uint8 CYXDATA *)CYREG_DSM0_SW3, 
 585:.\Generated_Source\PSoC5/cyfitter_cfg.c **** 	(uint8 CYXDATA *)CY_AMUX_UNUSED, 
 586:.\Generated_Source\PSoC5/cyfitter_cfg.c **** };
 587:.\Generated_Source\PSoC5/cyfitter_cfg.c **** 
 588:.\Generated_Source\PSoC5/cyfitter_cfg.c **** /* This is an implementation detail of the AMux. Code that depends on it may be
 589:.\Generated_Source\PSoC5/cyfitter_cfg.c ****    incompatible with other versions of PSoC Creator. */
 590:.\Generated_Source\PSoC5/cyfitter_cfg.c **** const uint8 CYCODE ADC_AMux__maskTable[2] = {
 591:.\Generated_Source\PSoC5/cyfitter_cfg.c **** 	0x40u, 
 592:.\Generated_Source\PSoC5/cyfitter_cfg.c **** 	0x00u, 
 593:.\Generated_Source\PSoC5/cyfitter_cfg.c **** };
 594:.\Generated_Source\PSoC5/cyfitter_cfg.c **** 
 595:.\Generated_Source\PSoC5/cyfitter_cfg.c **** /*******************************************************************************
 596:.\Generated_Source\PSoC5/cyfitter_cfg.c **** * Function Name: ADC_AMux_Set
 597:.\Generated_Source\PSoC5/cyfitter_cfg.c **** ********************************************************************************
 598:.\Generated_Source\PSoC5/cyfitter_cfg.c **** * Summary:
 599:.\Generated_Source\PSoC5/cyfitter_cfg.c **** *  This function is used to set a particular channel as active on the AMux.
 600:.\Generated_Source\PSoC5/cyfitter_cfg.c **** *
 601:.\Generated_Source\PSoC5/cyfitter_cfg.c **** * Parameters:  
 602:.\Generated_Source\PSoC5/cyfitter_cfg.c **** *   channel - The mux channel input to set as active
 603:.\Generated_Source\PSoC5/cyfitter_cfg.c **** *
 604:.\Generated_Source\PSoC5/cyfitter_cfg.c **** * Return:
 605:.\Generated_Source\PSoC5/cyfitter_cfg.c **** *   void
 606:.\Generated_Source\PSoC5/cyfitter_cfg.c **** *
 607:.\Generated_Source\PSoC5/cyfitter_cfg.c **** *******************************************************************************/
ARM GAS  C:\Users\SCOTTC~1\AppData\Local\Temp\ccOmMcpa.s 			page 24


 608:.\Generated_Source\PSoC5/cyfitter_cfg.c **** void ADC_AMux_Set(uint8 channel)
 609:.\Generated_Source\PSoC5/cyfitter_cfg.c **** {
 701              		.loc 1 609 0
 702              		.cfi_startproc
 703              		@ args = 0, pretend = 0, frame = 8
 704              		@ frame_needed = 1, uses_anonymous_args = 0
 705              		@ link register save eliminated.
 706 0000 80B4     		push	{r7}
 707              		.cfi_def_cfa_offset 4
 708              		.cfi_offset 7, -4
 709 0002 83B0     		sub	sp, sp, #12
 710              		.cfi_def_cfa_offset 16
 711 0004 00AF     		add	r7, sp, #0
 712              		.cfi_def_cfa_register 7
 713 0006 0346     		mov	r3, r0
 714 0008 FB71     		strb	r3, [r7, #7]
 610:.\Generated_Source\PSoC5/cyfitter_cfg.c **** 	if (channel < 2)
 715              		.loc 1 610 0
 716 000a FB79     		ldrb	r3, [r7, #7]	@ zero_extendqisi2
 717 000c 012B     		cmp	r3, #1
 718 000e 0ED8     		bhi	.L32
 611:.\Generated_Source\PSoC5/cyfitter_cfg.c **** 	{
 612:.\Generated_Source\PSoC5/cyfitter_cfg.c **** 		*ADC_AMux__addrTable[channel] |= ADC_AMux__maskTable[channel];
 719              		.loc 1 612 0
 720 0010 FA79     		ldrb	r2, [r7, #7]	@ zero_extendqisi2
 721 0012 094B     		ldr	r3, .L34
 722 0014 53F82230 		ldr	r3, [r3, r2, lsl #2]
 723 0018 F979     		ldrb	r1, [r7, #7]	@ zero_extendqisi2
 724 001a 074A     		ldr	r2, .L34
 725 001c 52F82120 		ldr	r2, [r2, r1, lsl #2]
 726 0020 1178     		ldrb	r1, [r2]	@ zero_extendqisi2
 727 0022 FA79     		ldrb	r2, [r7, #7]	@ zero_extendqisi2
 728 0024 0548     		ldr	r0, .L34+4
 729 0026 825C     		ldrb	r2, [r0, r2]	@ zero_extendqisi2
 730 0028 0A43     		orrs	r2, r2, r1
 731 002a D2B2     		uxtb	r2, r2
 732 002c 1A70     		strb	r2, [r3]
 733              	.L32:
 613:.\Generated_Source\PSoC5/cyfitter_cfg.c **** 	}
 614:.\Generated_Source\PSoC5/cyfitter_cfg.c **** }
 734              		.loc 1 614 0
 735 002e 0C37     		adds	r7, r7, #12
 736 0030 BD46     		mov	sp, r7
 737              		@ sp needed
 738 0032 5DF8047B 		ldr	r7, [sp], #4
 739 0036 7047     		bx	lr
 740              	.L35:
 741              		.align	2
 742              	.L34:
 743 0038 00000000 		.word	ADC_AMux__addrTable
 744 003c 00000000 		.word	ADC_AMux__maskTable
 745              		.cfi_endproc
 746              	.LFE8:
 747              		.size	ADC_AMux_Set, .-ADC_AMux_Set
 748              		.section	.text.ADC_AMux_Unset,"ax",%progbits
 749              		.align	2
 750              		.global	ADC_AMux_Unset
ARM GAS  C:\Users\SCOTTC~1\AppData\Local\Temp\ccOmMcpa.s 			page 25


 751              		.thumb
 752              		.thumb_func
 753              		.type	ADC_AMux_Unset, %function
 754              	ADC_AMux_Unset:
 755              	.LFB9:
 615:.\Generated_Source\PSoC5/cyfitter_cfg.c **** 
 616:.\Generated_Source\PSoC5/cyfitter_cfg.c **** /*******************************************************************************
 617:.\Generated_Source\PSoC5/cyfitter_cfg.c **** * Function Name: ADC_AMux_Unset
 618:.\Generated_Source\PSoC5/cyfitter_cfg.c **** ********************************************************************************
 619:.\Generated_Source\PSoC5/cyfitter_cfg.c **** * Summary:
 620:.\Generated_Source\PSoC5/cyfitter_cfg.c **** *  This function is used to clear a particular channel from being active on the
 621:.\Generated_Source\PSoC5/cyfitter_cfg.c **** *  AMux.
 622:.\Generated_Source\PSoC5/cyfitter_cfg.c **** *
 623:.\Generated_Source\PSoC5/cyfitter_cfg.c **** * Parameters:  
 624:.\Generated_Source\PSoC5/cyfitter_cfg.c **** *   channel - The mux channel input to mark inactive
 625:.\Generated_Source\PSoC5/cyfitter_cfg.c **** *
 626:.\Generated_Source\PSoC5/cyfitter_cfg.c **** * Return:
 627:.\Generated_Source\PSoC5/cyfitter_cfg.c **** *   void
 628:.\Generated_Source\PSoC5/cyfitter_cfg.c **** *
 629:.\Generated_Source\PSoC5/cyfitter_cfg.c **** *******************************************************************************/
 630:.\Generated_Source\PSoC5/cyfitter_cfg.c **** void ADC_AMux_Unset(uint8 channel)
 631:.\Generated_Source\PSoC5/cyfitter_cfg.c **** {
 756              		.loc 1 631 0
 757              		.cfi_startproc
 758              		@ args = 0, pretend = 0, frame = 8
 759              		@ frame_needed = 1, uses_anonymous_args = 0
 760              		@ link register save eliminated.
 761 0000 80B4     		push	{r7}
 762              		.cfi_def_cfa_offset 4
 763              		.cfi_offset 7, -4
 764 0002 83B0     		sub	sp, sp, #12
 765              		.cfi_def_cfa_offset 16
 766 0004 00AF     		add	r7, sp, #0
 767              		.cfi_def_cfa_register 7
 768 0006 0346     		mov	r3, r0
 769 0008 FB71     		strb	r3, [r7, #7]
 632:.\Generated_Source\PSoC5/cyfitter_cfg.c **** 	if (channel < 2)
 770              		.loc 1 632 0
 771 000a FB79     		ldrb	r3, [r7, #7]	@ zero_extendqisi2
 772 000c 012B     		cmp	r3, #1
 773 000e 10D8     		bhi	.L36
 633:.\Generated_Source\PSoC5/cyfitter_cfg.c **** 	{
 634:.\Generated_Source\PSoC5/cyfitter_cfg.c **** 		*ADC_AMux__addrTable[channel] &= (uint8)~ADC_AMux__maskTable[channel];
 774              		.loc 1 634 0
 775 0010 FA79     		ldrb	r2, [r7, #7]	@ zero_extendqisi2
 776 0012 0A4B     		ldr	r3, .L38
 777 0014 53F82230 		ldr	r3, [r3, r2, lsl #2]
 778 0018 F979     		ldrb	r1, [r7, #7]	@ zero_extendqisi2
 779 001a 084A     		ldr	r2, .L38
 780 001c 52F82120 		ldr	r2, [r2, r1, lsl #2]
 781 0020 1178     		ldrb	r1, [r2]	@ zero_extendqisi2
 782 0022 FA79     		ldrb	r2, [r7, #7]	@ zero_extendqisi2
 783 0024 0648     		ldr	r0, .L38+4
 784 0026 825C     		ldrb	r2, [r0, r2]	@ zero_extendqisi2
 785 0028 D243     		mvns	r2, r2
 786 002a D2B2     		uxtb	r2, r2
 787 002c 0A40     		ands	r2, r2, r1
ARM GAS  C:\Users\SCOTTC~1\AppData\Local\Temp\ccOmMcpa.s 			page 26


 788 002e D2B2     		uxtb	r2, r2
 789 0030 1A70     		strb	r2, [r3]
 790              	.L36:
 635:.\Generated_Source\PSoC5/cyfitter_cfg.c **** 	}
 636:.\Generated_Source\PSoC5/cyfitter_cfg.c **** }
 791              		.loc 1 636 0
 792 0032 0C37     		adds	r7, r7, #12
 793 0034 BD46     		mov	sp, r7
 794              		@ sp needed
 795 0036 5DF8047B 		ldr	r7, [sp], #4
 796 003a 7047     		bx	lr
 797              	.L39:
 798              		.align	2
 799              	.L38:
 800 003c 00000000 		.word	ADC_AMux__addrTable
 801 0040 00000000 		.word	ADC_AMux__maskTable
 802              		.cfi_endproc
 803              	.LFE9:
 804              		.size	ADC_AMux_Unset, .-ADC_AMux_Unset
 805              		.section	.text.cyfitter_cfg,"ax",%progbits
 806              		.align	2
 807              		.global	cyfitter_cfg
 808              		.thumb
 809              		.thumb_func
 810              		.type	cyfitter_cfg, %function
 811              	cyfitter_cfg:
 812              	.LFB10:
 637:.\Generated_Source\PSoC5/cyfitter_cfg.c **** 
 638:.\Generated_Source\PSoC5/cyfitter_cfg.c **** 
 639:.\Generated_Source\PSoC5/cyfitter_cfg.c **** 
 640:.\Generated_Source\PSoC5/cyfitter_cfg.c **** /*******************************************************************************
 641:.\Generated_Source\PSoC5/cyfitter_cfg.c **** * Function Name: cyfitter_cfg
 642:.\Generated_Source\PSoC5/cyfitter_cfg.c **** ********************************************************************************
 643:.\Generated_Source\PSoC5/cyfitter_cfg.c **** * Summary:
 644:.\Generated_Source\PSoC5/cyfitter_cfg.c **** *  This function is called by the start-up code for the selected device. It
 645:.\Generated_Source\PSoC5/cyfitter_cfg.c **** *  performs all of the necessary device configuration based on the design
 646:.\Generated_Source\PSoC5/cyfitter_cfg.c **** *  settings.  This includes settings from the Design Wide Resources (DWR) such
 647:.\Generated_Source\PSoC5/cyfitter_cfg.c **** *  as Clocks and Pins as well as any component configuration that is necessary.
 648:.\Generated_Source\PSoC5/cyfitter_cfg.c **** *
 649:.\Generated_Source\PSoC5/cyfitter_cfg.c **** * Parameters:  
 650:.\Generated_Source\PSoC5/cyfitter_cfg.c **** *   void
 651:.\Generated_Source\PSoC5/cyfitter_cfg.c **** *
 652:.\Generated_Source\PSoC5/cyfitter_cfg.c **** * Return:
 653:.\Generated_Source\PSoC5/cyfitter_cfg.c **** *   void
 654:.\Generated_Source\PSoC5/cyfitter_cfg.c **** *
 655:.\Generated_Source\PSoC5/cyfitter_cfg.c **** *******************************************************************************/
 656:.\Generated_Source\PSoC5/cyfitter_cfg.c **** 
 657:.\Generated_Source\PSoC5/cyfitter_cfg.c **** void cyfitter_cfg(void)
 658:.\Generated_Source\PSoC5/cyfitter_cfg.c **** {
 813              		.loc 1 658 0
 814              		.cfi_startproc
 815              		@ args = 0, pretend = 0, frame = 0
 816              		@ frame_needed = 1, uses_anonymous_args = 0
 817 0000 80B5     		push	{r7, lr}
 818              		.cfi_def_cfa_offset 8
 819              		.cfi_offset 7, -8
 820              		.cfi_offset 14, -4
ARM GAS  C:\Users\SCOTTC~1\AppData\Local\Temp\ccOmMcpa.s 			page 27


 821 0002 00AF     		add	r7, sp, #0
 822              		.cfi_def_cfa_register 7
 659:.\Generated_Source\PSoC5/cyfitter_cfg.c **** #ifdef CYGlobalIntDisable
 660:.\Generated_Source\PSoC5/cyfitter_cfg.c **** 	/* Disable interrupts by default. Let user enable if/when they want. */
 661:.\Generated_Source\PSoC5/cyfitter_cfg.c **** 	CYGlobalIntDisable
 823              		.loc 1 661 0
 824              	@ 661 ".\Generated_Source\PSoC5\cyfitter_cfg.c" 1
 825 0004 72B6     		CPSID   i
 826              	@ 0 "" 2
 662:.\Generated_Source\PSoC5/cyfitter_cfg.c **** #endif
 663:.\Generated_Source\PSoC5/cyfitter_cfg.c **** 
 664:.\Generated_Source\PSoC5/cyfitter_cfg.c **** 
 665:.\Generated_Source\PSoC5/cyfitter_cfg.c **** 	/* Set Flash Cycles based on max possible frequency in case a glitch occurs during ClockSetup(). *
 666:.\Generated_Source\PSoC5/cyfitter_cfg.c **** 	CY_SET_XTND_REG8((void CYFAR *)(CYREG_CACHE_CC_CTL), (((CYDEV_INSTRUCT_CACHE_ENABLED) != 0) ? 0x01
 827              		.loc 1 666 0
 828              		.thumb
 829 0006 364B     		ldr	r3, .L41
 830 0008 0122     		movs	r2, #1
 831 000a 1A70     		strb	r2, [r3]
 667:.\Generated_Source\PSoC5/cyfitter_cfg.c **** 	/* Setup clocks based on selections from Clock DWR */
 668:.\Generated_Source\PSoC5/cyfitter_cfg.c **** 	ClockSetup();
 832              		.loc 1 668 0
 833 000c FFF7FEFF 		bl	ClockSetup
 669:.\Generated_Source\PSoC5/cyfitter_cfg.c **** 	/* Set Flash Cycles based on newly configured 33.00MHz Bus Clock. */
 670:.\Generated_Source\PSoC5/cyfitter_cfg.c **** 	CY_SET_XTND_REG8((void CYFAR *)(CYREG_CACHE_CC_CTL), (((CYDEV_INSTRUCT_CACHE_ENABLED) != 0) ? 0x81
 834              		.loc 1 670 0
 835 0010 334B     		ldr	r3, .L41
 836 0012 8122     		movs	r2, #129
 837 0014 1A70     		strb	r2, [r3]
 671:.\Generated_Source\PSoC5/cyfitter_cfg.c **** 	/* Enable/Disable Debug functionality based on settings from System DWR */
 672:.\Generated_Source\PSoC5/cyfitter_cfg.c **** 	CY_SET_XTND_REG8((void CYFAR *)CYREG_MLOGIC_DEBUG, (CY_GET_XTND_REG8((void CYFAR *)CYREG_MLOGIC_DE
 838              		.loc 1 672 0
 839 0016 334B     		ldr	r3, .L41+4
 840 0018 324A     		ldr	r2, .L41+4
 841 001a 1278     		ldrb	r2, [r2]
 842 001c D2B2     		uxtb	r2, r2
 843 001e 42F00402 		orr	r2, r2, #4
 844 0022 D2B2     		uxtb	r2, r2
 845 0024 1A70     		strb	r2, [r3]
 673:.\Generated_Source\PSoC5/cyfitter_cfg.c **** 
 674:.\Generated_Source\PSoC5/cyfitter_cfg.c **** 	{
 675:.\Generated_Source\PSoC5/cyfitter_cfg.c **** 		cfg_dma_init();
 846              		.loc 1 675 0
 847 0026 FFF7FEFF 		bl	cfg_dma_init
 676:.\Generated_Source\PSoC5/cyfitter_cfg.c **** 
 677:.\Generated_Source\PSoC5/cyfitter_cfg.c **** 		/* Perform normal device configuration. Order is not critical for these items. */
 678:.\Generated_Source\PSoC5/cyfitter_cfg.c **** 		CY_SET_XTND_REG8((void CYFAR *)(CYREG_DSM0_CR3), 0x0Au);
 848              		.loc 1 678 0
 849 002a 2F4B     		ldr	r3, .L41+8
 850 002c 0A22     		movs	r2, #10
 851 002e 1A70     		strb	r2, [r3]
 679:.\Generated_Source\PSoC5/cyfitter_cfg.c **** 		CYMEMZERO((void CYFAR *)(CYREG_PHUB_CFGMEM0_CFG0), 4u);
 852              		.loc 1 679 0
 853 0030 2E48     		ldr	r0, .L41+12
 854 0032 0421     		movs	r1, #4
 855 0034 FFF7FEFF 		bl	CYMEMZERO
 680:.\Generated_Source\PSoC5/cyfitter_cfg.c **** 		CYCONFIGCPY((void CYFAR *)(CYREG_PHUB_CFGMEM10_CFG0), (const void CYFAR *)(BS_PHUB_CFGMEM10_VAL),
ARM GAS  C:\Users\SCOTTC~1\AppData\Local\Temp\ccOmMcpa.s 			page 28


 856              		.loc 1 680 0
 857 0038 2D48     		ldr	r0, .L41+16
 858 003a 2E49     		ldr	r1, .L41+20
 859 003c 0422     		movs	r2, #4
 860 003e FFF7FEFF 		bl	CYCONFIGCPY
 681:.\Generated_Source\PSoC5/cyfitter_cfg.c **** 		CYMEMZERO((void CYFAR *)(CYREG_PHUB_CFGMEM1_CFG0), 4u);
 861              		.loc 1 681 0
 862 0042 2D48     		ldr	r0, .L41+24
 863 0044 0421     		movs	r1, #4
 864 0046 FFF7FEFF 		bl	CYMEMZERO
 682:.\Generated_Source\PSoC5/cyfitter_cfg.c **** 		CYMEMZERO((void CYFAR *)(CYREG_PHUB_CFGMEM2_CFG0), 4u);
 865              		.loc 1 682 0
 866 004a 2C48     		ldr	r0, .L41+28
 867 004c 0421     		movs	r1, #4
 868 004e FFF7FEFF 		bl	CYMEMZERO
 683:.\Generated_Source\PSoC5/cyfitter_cfg.c **** 		CYCONFIGCPY((void CYFAR *)(CYREG_PHUB_CFGMEM8_CFG0), (const void CYFAR *)(BS_PHUB_CFGMEM8_VAL), 4
 869              		.loc 1 683 0
 870 0052 2B48     		ldr	r0, .L41+32
 871 0054 2B49     		ldr	r1, .L41+36
 872 0056 0422     		movs	r2, #4
 873 0058 FFF7FEFF 		bl	CYCONFIGCPY
 684:.\Generated_Source\PSoC5/cyfitter_cfg.c **** 
 685:.\Generated_Source\PSoC5/cyfitter_cfg.c **** 		/* Enable digital routing */
 686:.\Generated_Source\PSoC5/cyfitter_cfg.c **** 		CY_SET_XTND_REG8((void CYFAR *)CYREG_BCTL0_BANK_CTL, CY_GET_XTND_REG8((void CYFAR *)CYREG_BCTL0_B
 874              		.loc 1 686 0
 875 005c 2A4B     		ldr	r3, .L41+40
 876 005e 2A4A     		ldr	r2, .L41+40
 877 0060 1278     		ldrb	r2, [r2]
 878 0062 D2B2     		uxtb	r2, r2
 879 0064 42F00202 		orr	r2, r2, #2
 880 0068 D2B2     		uxtb	r2, r2
 881 006a 1A70     		strb	r2, [r3]
 687:.\Generated_Source\PSoC5/cyfitter_cfg.c **** 		CY_SET_XTND_REG8((void CYFAR *)CYREG_BCTL1_BANK_CTL, CY_GET_XTND_REG8((void CYFAR *)CYREG_BCTL1_B
 882              		.loc 1 687 0
 883 006c 274B     		ldr	r3, .L41+44
 884 006e 274A     		ldr	r2, .L41+44
 885 0070 1278     		ldrb	r2, [r2]
 886 0072 D2B2     		uxtb	r2, r2
 887 0074 42F00202 		orr	r2, r2, #2
 888 0078 D2B2     		uxtb	r2, r2
 889 007a 1A70     		strb	r2, [r3]
 688:.\Generated_Source\PSoC5/cyfitter_cfg.c **** 
 689:.\Generated_Source\PSoC5/cyfitter_cfg.c **** 		/* Enable UDB array */
 690:.\Generated_Source\PSoC5/cyfitter_cfg.c **** 		CY_SET_XTND_REG8((void CYFAR *)CYREG_PM_ACT_CFG0, CY_GET_XTND_REG8((void CYFAR *)CYREG_PM_ACT_CFG
 890              		.loc 1 690 0
 891 007c 244B     		ldr	r3, .L41+48
 892 007e 244A     		ldr	r2, .L41+48
 893 0080 1278     		ldrb	r2, [r2]
 894 0082 D2B2     		uxtb	r2, r2
 895 0084 42F04002 		orr	r2, r2, #64
 896 0088 D2B2     		uxtb	r2, r2
 897 008a 1A70     		strb	r2, [r3]
 691:.\Generated_Source\PSoC5/cyfitter_cfg.c **** 		CY_SET_XTND_REG8((void CYFAR *)CYREG_PM_AVAIL_CR2, CY_GET_XTND_REG8((void CYFAR *)CYREG_PM_AVAIL_
 898              		.loc 1 691 0
 899 008c 214B     		ldr	r3, .L41+52
 900 008e 214A     		ldr	r2, .L41+52
 901 0090 1278     		ldrb	r2, [r2]
ARM GAS  C:\Users\SCOTTC~1\AppData\Local\Temp\ccOmMcpa.s 			page 29


 902 0092 D2B2     		uxtb	r2, r2
 903 0094 42F01002 		orr	r2, r2, #16
 904 0098 D2B2     		uxtb	r2, r2
 905 009a 1A70     		strb	r2, [r3]
 692:.\Generated_Source\PSoC5/cyfitter_cfg.c **** 	}
 693:.\Generated_Source\PSoC5/cyfitter_cfg.c **** 
 694:.\Generated_Source\PSoC5/cyfitter_cfg.c **** 
 695:.\Generated_Source\PSoC5/cyfitter_cfg.c **** 	/* Perform second pass device configuration. These items must be configured in specific order afte
 696:.\Generated_Source\PSoC5/cyfitter_cfg.c **** 	CYCONFIGCPY((void CYFAR *)(CYREG_PRT0_DM0), (const void CYFAR *)(BS_IOPINS0_0_VAL), 8u);
 906              		.loc 1 696 0
 907 009c 1E48     		ldr	r0, .L41+56
 908 009e 1F49     		ldr	r1, .L41+60
 909 00a0 0822     		movs	r2, #8
 910 00a2 FFF7FEFF 		bl	CYCONFIGCPY
 697:.\Generated_Source\PSoC5/cyfitter_cfg.c **** 	CYCONFIGCPY((void CYFAR *)(CYREG_PRT2_DM0), (const void CYFAR *)(BS_IOPINS0_2_VAL), 8u);
 911              		.loc 1 697 0
 912 00a6 1E48     		ldr	r0, .L41+64
 913 00a8 1E49     		ldr	r1, .L41+68
 914 00aa 0822     		movs	r2, #8
 915 00ac FFF7FEFF 		bl	CYCONFIGCPY
 698:.\Generated_Source\PSoC5/cyfitter_cfg.c **** 	CYCONFIGCPY((void CYFAR *)(CYREG_PRT3_DM0), (const void CYFAR *)(BS_IOPINS0_3_VAL), 8u);
 916              		.loc 1 698 0
 917 00b0 1D48     		ldr	r0, .L41+72
 918 00b2 1E49     		ldr	r1, .L41+76
 919 00b4 0822     		movs	r2, #8
 920 00b6 FFF7FEFF 		bl	CYCONFIGCPY
 699:.\Generated_Source\PSoC5/cyfitter_cfg.c **** 	/* Switch Boost to the precision bandgap reference from its internal reference */
 700:.\Generated_Source\PSoC5/cyfitter_cfg.c **** 	CY_SET_REG8((void CYXDATA *)CYREG_BOOST_CR2, (CY_GET_REG8((void CYXDATA *)CYREG_BOOST_CR2) | 0x08u
 921              		.loc 1 700 0
 922 00ba 1D4B     		ldr	r3, .L41+80
 923 00bc 1C4A     		ldr	r2, .L41+80
 924 00be 1278     		ldrb	r2, [r2]
 925 00c0 D2B2     		uxtb	r2, r2
 926 00c2 42F00802 		orr	r2, r2, #8
 927 00c6 D2B2     		uxtb	r2, r2
 928 00c8 1A70     		strb	r2, [r3]
 701:.\Generated_Source\PSoC5/cyfitter_cfg.c **** 	CY_SET_XTND_REG8((void CYFAR *)(CYREG_PANTHER_WAITPIPE), 0x01u);
 929              		.loc 1 701 0
 930 00ca 1A4B     		ldr	r3, .L41+84
 931 00cc 0122     		movs	r2, #1
 932 00ce 1A70     		strb	r2, [r3]
 702:.\Generated_Source\PSoC5/cyfitter_cfg.c **** 
 703:.\Generated_Source\PSoC5/cyfitter_cfg.c **** 	/* Perform basic analog initialization to defaults */
 704:.\Generated_Source\PSoC5/cyfitter_cfg.c **** 	AnalogSetDefault();
 933              		.loc 1 704 0
 934 00d0 FFF7FEFF 		bl	AnalogSetDefault
 705:.\Generated_Source\PSoC5/cyfitter_cfg.c **** 
 706:.\Generated_Source\PSoC5/cyfitter_cfg.c **** 	/* Configure alternate active mode */
 707:.\Generated_Source\PSoC5/cyfitter_cfg.c **** 	CYCONFIGCPY((void CYFAR *)CYDEV_PM_STBY_BASE, (const void CYFAR *)CYDEV_PM_ACT_BASE, 14u);
 935              		.loc 1 707 0
 936 00d4 1848     		ldr	r0, .L41+88
 937 00d6 0E49     		ldr	r1, .L41+48
 938 00d8 0E22     		movs	r2, #14
 939 00da FFF7FEFF 		bl	CYCONFIGCPY
 708:.\Generated_Source\PSoC5/cyfitter_cfg.c **** }
 940              		.loc 1 708 0
 941 00de 80BD     		pop	{r7, pc}
ARM GAS  C:\Users\SCOTTC~1\AppData\Local\Temp\ccOmMcpa.s 			page 30


 942              	.L42:
 943              		.align	2
 944              	.L41:
 945 00e0 00480040 		.word	1073760256
 946 00e4 E8460040 		.word	1073759976
 947 00e8 83580040 		.word	1073764483
 948 00ec 00760040 		.word	1073772032
 949 00f0 50760040 		.word	1073772112
 950 00f4 AC0C0048 		.word	1207962796
 951 00f8 08760040 		.word	1073772040
 952 00fc 10760040 		.word	1073772048
 953 0100 40760040 		.word	1073772096
 954 0104 B00C0048 		.word	1207962800
 955 0108 03500140 		.word	1073827843
 956 010c 13500140 		.word	1073827859
 957 0110 A0430040 		.word	1073759136
 958 0114 C2430040 		.word	1073759170
 959 0118 02510040 		.word	1073762562
 960 011c 900C0048 		.word	1207962768
 961 0120 22510040 		.word	1073762594
 962 0124 980C0048 		.word	1207962776
 963 0128 32510040 		.word	1073762610
 964 012c A00C0048 		.word	1207962784
 965 0130 22430040 		.word	1073759010
 966 0134 04000840 		.word	1074266116
 967 0138 B0430040 		.word	1073759152
 968              		.cfi_endproc
 969              	.LFE10:
 970              		.size	cyfitter_cfg, .-cyfitter_cfg
 971              		.bss
 972              		.align	3
 973              	DMA_ZERO_VAL.4813:
 974 0000 00000000 		.space	4
 975 0004 00000000 		.section	.dma_init,"a",%progbits
 976              		.align	2
 977              		.type	CFG_TD_LIST0.4814, %object
 978              		.size	CFG_TD_LIST0.4814, 384
 979              	CFG_TD_LIST0.4814:
 980 0000 0800     		.short	8
 981 0002 02       		.byte	2
 982 0003 23       		.byte	35
 983 0004 0000     		.short	0
 984 0006 0876     		.short	30216
 985 0008 0800     		.short	8
 986 000a 03       		.byte	3
 987 000b 23       		.byte	35
 988 000c 0000     		.short	0
 989 000e 1076     		.short	30224
 990 0010 0800     		.short	8
 991 0012 04       		.byte	4
 992 0013 23       		.byte	35
 993 0014 0000     		.short	0
 994 0016 2876     		.short	30248
 995 0018 0800     		.short	8
 996 001a 05       		.byte	5
 997 001b 23       		.byte	35
 998 001c 0000     		.short	0
ARM GAS  C:\Users\SCOTTC~1\AppData\Local\Temp\ccOmMcpa.s 			page 31


 999 001e 3076     		.short	30256
 1000 0020 0500     		.short	5
 1001 0022 06       		.byte	6
 1002 0023 23       		.byte	35
 1003 0024 0000     		.short	0
 1004 0026 2070     		.short	28704
 1005 0028 0500     		.short	5
 1006 002a 07       		.byte	7
 1007 002b 23       		.byte	35
 1008 002c 0000     		.short	0
 1009 002e 3070     		.short	28720
 1010 0030 0500     		.short	5
 1011 0032 08       		.byte	8
 1012 0033 23       		.byte	35
 1013 0034 0000     		.short	0
 1014 0036 6070     		.short	28768
 1015 0038 0500     		.short	5
 1016 003a FE       		.byte	-2
 1017 003b 23       		.byte	35
 1018 003c 0000     		.short	0
 1019 003e 7070     		.short	28784
 1020 0040 1000     		.short	16
 1021 0042 0A       		.byte	10
 1022 0043 22       		.byte	34
 1023 0044 0000     		.short	0
 1024 0046 1051     		.short	20752
 1025 0048 3000     		.short	48
 1026 004a 0B       		.byte	11
 1027 004b 22       		.byte	34
 1028 004c 0000     		.short	0
 1029 004e 4051     		.short	20800
 1030 0050 1000     		.short	16
 1031 0052 0C       		.byte	12
 1032 0053 22       		.byte	34
 1033 0054 0000     		.short	0
 1034 0056 C051     		.short	20928
 1035 0058 1000     		.short	16
 1036 005a FE       		.byte	-2
 1037 005b 22       		.byte	34
 1038 005c 0000     		.short	0
 1039 005e F051     		.short	20976
 1040 0060 8009     		.short	2432
 1041 0062 0E       		.byte	14
 1042 0063 22       		.byte	34
 1043 0064 0000     		.short	0
 1044 0066 0000     		.short	0
 1045 0068 8000     		.short	128
 1046 006a 0F       		.byte	15
 1047 006b 22       		.byte	34
 1048 006c 0000     		.short	0
 1049 006e 000A     		.short	2560
 1050 0070 8004     		.short	1152
 1051 0072 10       		.byte	16
 1052 0073 22       		.byte	34
 1053 0074 0000     		.short	0
 1054 0076 800B     		.short	2944
 1055 0078 8001     		.short	384
ARM GAS  C:\Users\SCOTTC~1\AppData\Local\Temp\ccOmMcpa.s 			page 32


 1056 007a 11       		.byte	17
 1057 007b 22       		.byte	34
 1058 007c 0000     		.short	0
 1059 007e 0014     		.short	5120
 1060 0080 8005     		.short	1408
 1061 0082 12       		.byte	18
 1062 0083 22       		.byte	34
 1063 0084 0000     		.short	0
 1064 0086 0016     		.short	5632
 1065 0088 8000     		.short	128
 1066 008a 13       		.byte	19
 1067 008b 22       		.byte	34
 1068 008c 0000     		.short	0
 1069 008e 0045     		.short	17664
 1070 0090 8000     		.short	128
 1071 0092 14       		.byte	20
 1072 0093 22       		.byte	34
 1073 0094 0000     		.short	0
 1074 0096 0047     		.short	18176
 1075 0098 8000     		.short	128
 1076 009a 15       		.byte	21
 1077 009b 22       		.byte	34
 1078 009c 0000     		.short	0
 1079 009e 004C     		.short	19456
 1080 00a0 8000     		.short	128
 1081 00a2 16       		.byte	22
 1082 00a3 22       		.byte	34
 1083 00a4 0000     		.short	0
 1084 00a6 004D     		.short	19712
 1085 00a8 2000     		.short	32
 1086 00aa FE       		.byte	-2
 1087 00ab 22       		.byte	34
 1088 00ac 0000     		.short	0
 1089 00ae 0050     		.short	20480
 1090 00b0 0700     		.short	7
 1091 00b2 FE       		.byte	-2
 1092 00b3 23       		.byte	35
 1093 00b4 0000     		.short	0
 1094 00b6 1852     		.short	21016
 1095 00b8 8000     		.short	128
 1096 00ba 19       		.byte	25
 1097 00bb 23       		.byte	35
 1098 00bc 0000     		.short	0
 1099 00be 800A     		.short	2688
 1100 00c0 8000     		.short	128
 1101 00c2 1A       		.byte	26
 1102 00c3 23       		.byte	35
 1103 00c4 0000     		.short	0
 1104 00c6 804D     		.short	19840
 1105 00c8 8000     		.short	128
 1106 00ca 1B       		.byte	27
 1107 00cb 23       		.byte	35
 1108 00cc 0000     		.short	0
 1109 00ce 804C     		.short	19584
 1110 00d0 8000     		.short	128
 1111 00d2 1C       		.byte	28
 1112 00d3 23       		.byte	35
ARM GAS  C:\Users\SCOTTC~1\AppData\Local\Temp\ccOmMcpa.s 			page 33


 1113 00d4 0000     		.short	0
 1114 00d6 8047     		.short	18304
 1115 00d8 8000     		.short	128
 1116 00da 1D       		.byte	29
 1117 00db 23       		.byte	35
 1118 00dc 0000     		.short	0
 1119 00de 0046     		.short	17920
 1120 00e0 8000     		.short	128
 1121 00e2 1E       		.byte	30
 1122 00e3 23       		.byte	35
 1123 00e4 0000     		.short	0
 1124 00e6 8046     		.short	18048
 1125 00e8 8000     		.short	128
 1126 00ea 1F       		.byte	31
 1127 00eb 23       		.byte	35
 1128 00ec 0000     		.short	0
 1129 00ee 8045     		.short	17792
 1130 00f0 8000     		.short	128
 1131 00f2 20       		.byte	32
 1132 00f3 23       		.byte	35
 1133 00f4 0000     		.short	0
 1134 00f6 0044     		.short	17408
 1135 00f8 8000     		.short	128
 1136 00fa 21       		.byte	33
 1137 00fb 23       		.byte	35
 1138 00fc 0000     		.short	0
 1139 00fe 8044     		.short	17536
 1140 0100 8000     		.short	128
 1141 0102 22       		.byte	34
 1142 0103 23       		.byte	35
 1143 0104 0000     		.short	0
 1144 0106 801B     		.short	7040
 1145 0108 8000     		.short	128
 1146 010a 23       		.byte	35
 1147 010b 23       		.byte	35
 1148 010c 0000     		.short	0
 1149 010e 8015     		.short	5504
 1150 0110 8000     		.short	128
 1151 0112 24       		.byte	36
 1152 0113 23       		.byte	35
 1153 0114 0000     		.short	0
 1154 0116 8009     		.short	2432
 1155 0118 8000     		.short	128
 1156 011a 25       		.byte	37
 1157 011b 23       		.byte	35
 1158 011c 0000     		.short	0
 1159 011e 000B     		.short	2816
 1160 0120 8000     		.short	128
 1161 0122 26       		.byte	38
 1162 0123 23       		.byte	35
 1163 0124 0000     		.short	0
 1164 0126 0049     		.short	18688
 1165 0128 8000     		.short	128
 1166 012a 27       		.byte	39
 1167 012b 23       		.byte	35
 1168 012c 0000     		.short	0
 1169 012e 8049     		.short	18816
ARM GAS  C:\Users\SCOTTC~1\AppData\Local\Temp\ccOmMcpa.s 			page 34


 1170 0130 8000     		.short	128
 1171 0132 28       		.byte	40
 1172 0133 23       		.byte	35
 1173 0134 0000     		.short	0
 1174 0136 0048     		.short	18432
 1175 0138 8000     		.short	128
 1176 013a 29       		.byte	41
 1177 013b 23       		.byte	35
 1178 013c 0000     		.short	0
 1179 013e 8048     		.short	18560
 1180 0140 8000     		.short	128
 1181 0142 2A       		.byte	42
 1182 0143 23       		.byte	35
 1183 0144 0000     		.short	0
 1184 0146 0043     		.short	17152
 1185 0148 8000     		.short	128
 1186 014a 2B       		.byte	43
 1187 014b 23       		.byte	35
 1188 014c 0000     		.short	0
 1189 014e 8043     		.short	17280
 1190 0150 8000     		.short	128
 1191 0152 2C       		.byte	44
 1192 0153 23       		.byte	35
 1193 0154 0000     		.short	0
 1194 0156 0042     		.short	16896
 1195 0158 8000     		.short	128
 1196 015a 2D       		.byte	45
 1197 015b 23       		.byte	35
 1198 015c 0000     		.short	0
 1199 015e 8042     		.short	17024
 1200 0160 8000     		.short	128
 1201 0162 2E       		.byte	46
 1202 0163 23       		.byte	35
 1203 0164 0000     		.short	0
 1204 0166 0041     		.short	16640
 1205 0168 8000     		.short	128
 1206 016a 2F       		.byte	47
 1207 016b 23       		.byte	35
 1208 016c 0000     		.short	0
 1209 016e 8041     		.short	16768
 1210 0170 8000     		.short	128
 1211 0172 30       		.byte	48
 1212 0173 23       		.byte	35
 1213 0174 0000     		.short	0
 1214 0176 0040     		.short	16384
 1215 0178 8000     		.short	128
 1216 017a FE       		.byte	-2
 1217 017b 23       		.byte	35
 1218 017c 0000     		.short	0
 1219 017e 8040     		.short	16512
 1220              		.section	.rodata
 1221 000a 0000     		.align	2
 1222              		.type	CFG_TD_ADDR0.4815, %object
 1223              		.size	CFG_TD_ADDR0.4815, 192
 1224              	CFG_TD_ADDR0.4815:
 1225 000c A0010000 		.word	CH1_ADDR_DATA0.4808
 1226 0010 98010000 		.word	CH2_ADDR_DATA0.4809
ARM GAS  C:\Users\SCOTTC~1\AppData\Local\Temp\ccOmMcpa.s 			page 35


 1227 0014 90010000 		.word	CH5_ADDR_DATA0.4810
 1228 0018 88010000 		.word	CH6_ADDR_DATA0.4811
 1229 001c 80010000 		.word	DMA_TD_START_CMD.4812
 1230 0020 80010000 		.word	DMA_TD_START_CMD.4812
 1231 0024 80010000 		.word	DMA_TD_START_CMD.4812
 1232 0028 80010000 		.word	DMA_TD_START_CMD.4812
 1233 002c 00000000 		.word	DMA_ZERO_VAL.4813
 1234 0030 00000000 		.word	DMA_ZERO_VAL.4813
 1235 0034 00000000 		.word	DMA_ZERO_VAL.4813
 1236 0038 00000000 		.word	DMA_ZERO_VAL.4813
 1237 003c 00000000 		.word	DMA_ZERO_VAL.4813
 1238 0040 00000000 		.word	DMA_ZERO_VAL.4813
 1239 0044 00000000 		.word	DMA_ZERO_VAL.4813
 1240 0048 00000000 		.word	DMA_ZERO_VAL.4813
 1241 004c 00000000 		.word	DMA_ZERO_VAL.4813
 1242 0050 00000000 		.word	DMA_ZERO_VAL.4813
 1243 0054 00000000 		.word	DMA_ZERO_VAL.4813
 1244 0058 00000000 		.word	DMA_ZERO_VAL.4813
 1245 005c 00000000 		.word	DMA_ZERO_VAL.4813
 1246 0060 00000000 		.word	DMA_ZERO_VAL.4813
 1247 0064 08000048 		.word	1207959560
 1248 0068 10000048 		.word	1207959568
 1249 006c 90000048 		.word	1207959696
 1250 0070 10010048 		.word	1207959824
 1251 0074 90010048 		.word	1207959952
 1252 0078 10020048 		.word	1207960080
 1253 007c 90020048 		.word	1207960208
 1254 0080 10030048 		.word	1207960336
 1255 0084 90030048 		.word	1207960464
 1256 0088 10040048 		.word	1207960592
 1257 008c 90040048 		.word	1207960720
 1258 0090 10050048 		.word	1207960848
 1259 0094 90050048 		.word	1207960976
 1260 0098 10060048 		.word	1207961104
 1261 009c 90060048 		.word	1207961232
 1262 00a0 10070048 		.word	1207961360
 1263 00a4 90070048 		.word	1207961488
 1264 00a8 10080048 		.word	1207961616
 1265 00ac 90080048 		.word	1207961744
 1266 00b0 10090048 		.word	1207961872
 1267 00b4 90090048 		.word	1207962000
 1268 00b8 100A0048 		.word	1207962128
 1269 00bc 900A0048 		.word	1207962256
 1270 00c0 100B0048 		.word	1207962384
 1271 00c4 900B0048 		.word	1207962512
 1272 00c8 100C0048 		.word	1207962640
 1273              		.section	.dma_init
 1274              		.align	2
 1275              		.type	DMA_TD_START_CMD.4812, %object
 1276              		.size	DMA_TD_START_CMD.4812, 5
 1277              	DMA_TD_START_CMD.4812:
 1278 0180 01       		.byte	1
 1279 0181 00       		.byte	0
 1280 0182 00       		.byte	0
 1281 0183 00       		.byte	0
 1282 0184 01       		.byte	1
 1283 0185 000000   		.align	2
ARM GAS  C:\Users\SCOTTC~1\AppData\Local\Temp\ccOmMcpa.s 			page 36


 1284              		.type	CH6_ADDR_DATA0.4811, %object
 1285              		.size	CH6_ADDR_DATA0.4811, 8
 1286              	CH6_ADDR_DATA0.4811:
 1287 0188 01       		.byte	1
 1288 0189 00       		.byte	0
 1289 018a 00       		.byte	0
 1290 018b 00       		.byte	0
 1291 018c 00       		.byte	0
 1292 018d 48       		.byte	72
 1293 018e 01       		.byte	1
 1294 018f 40       		.byte	64
 1295              		.align	2
 1296              		.type	CH5_ADDR_DATA0.4810, %object
 1297              		.size	CH5_ADDR_DATA0.4810, 8
 1298              	CH5_ADDR_DATA0.4810:
 1299 0190 01       		.byte	1
 1300 0191 00       		.byte	0
 1301 0192 00       		.byte	0
 1302 0193 00       		.byte	0
 1303 0194 00       		.byte	0
 1304 0195 48       		.byte	72
 1305 0196 00       		.byte	0
 1306 0197 40       		.byte	64
 1307              		.align	2
 1308              		.type	CH2_ADDR_DATA0.4809, %object
 1309              		.size	CH2_ADDR_DATA0.4809, 8
 1310              	CH2_ADDR_DATA0.4809:
 1311 0198 01       		.byte	1
 1312 0199 00       		.byte	0
 1313 019a 00       		.byte	0
 1314 019b 00       		.byte	0
 1315 019c 00       		.byte	0
 1316 019d 20       		.byte	32
 1317 019e 01       		.byte	1
 1318 019f 40       		.byte	64
 1319              		.align	2
 1320              		.type	CH1_ADDR_DATA0.4808, %object
 1321              		.size	CH1_ADDR_DATA0.4808, 8
 1322              	CH1_ADDR_DATA0.4808:
 1323 01a0 01       		.byte	1
 1324 01a1 00       		.byte	0
 1325 01a2 00       		.byte	0
 1326 01a3 00       		.byte	0
 1327 01a4 00       		.byte	0
 1328 01a5 20       		.byte	32
 1329 01a6 00       		.byte	0
 1330 01a7 40       		.byte	64
 1331              		.text
 1332              	.Letext0:
 1333              		.file 2 "c:\\program files\\cypress\\psoc creator\\3.2\\psoc creator\\import\\gnu\\arm\\4.8.4\\lib
 1334              		.file 3 ".\\Generated_Source\\PSoC5\\cytypes.h"