ARM GAS  C:\Users\SCOTTC~1\AppData\Local\Temp\ccbnr13E.s 			page 1


   1              		.syntax unified
   2              		.cpu cortex-m3
   3              		.fpu softvfp
   4              		.eabi_attribute 20, 1
   5              		.eabi_attribute 21, 1
   6              		.eabi_attribute 23, 3
   7              		.eabi_attribute 24, 1
   8              		.eabi_attribute 25, 1
   9              		.eabi_attribute 26, 1
  10              		.eabi_attribute 30, 6
  11              		.eabi_attribute 34, 1
  12              		.eabi_attribute 18, 4
  13              		.thumb
  14              		.file	"Delay_PWM.c"
  15              		.text
  16              	.Ltext0:
  17              		.cfi_sections	.debug_frame
  18              		.global	Delay_PWM_initVar
  19              		.bss
  20              		.type	Delay_PWM_initVar, %object
  21              		.size	Delay_PWM_initVar, 1
  22              	Delay_PWM_initVar:
  23 0000 00       		.space	1
  24              		.section	.text.Delay_PWM_Start,"ax",%progbits
  25              		.align	2
  26              		.global	Delay_PWM_Start
  27              		.thumb
  28              		.thumb_func
  29              		.type	Delay_PWM_Start, %function
  30              	Delay_PWM_Start:
  31              	.LFB0:
  32              		.file 1 ".\\Generated_Source\\PSoC5\\Delay_PWM.c"
   1:.\Generated_Source\PSoC5/Delay_PWM.c **** /*******************************************************************************
   2:.\Generated_Source\PSoC5/Delay_PWM.c **** * File Name: Delay_PWM.c  
   3:.\Generated_Source\PSoC5/Delay_PWM.c **** * Version 3.0
   4:.\Generated_Source\PSoC5/Delay_PWM.c **** *
   5:.\Generated_Source\PSoC5/Delay_PWM.c **** * Description:
   6:.\Generated_Source\PSoC5/Delay_PWM.c **** *  The PWM User Module consist of an 8 or 16-bit counter with two 8 or 16-bit
   7:.\Generated_Source\PSoC5/Delay_PWM.c **** *  comparitors. Each instance of this user module is capable of generating
   8:.\Generated_Source\PSoC5/Delay_PWM.c **** *  two PWM outputs with the same period. The pulse width is selectable between
   9:.\Generated_Source\PSoC5/Delay_PWM.c **** *  1 and 255/65535. The period is selectable between 2 and 255/65536 clocks. 
  10:.\Generated_Source\PSoC5/Delay_PWM.c **** *  The compare value output may be configured to be active when the present 
  11:.\Generated_Source\PSoC5/Delay_PWM.c **** *  counter is less than or less than/equal to the compare value.
  12:.\Generated_Source\PSoC5/Delay_PWM.c **** *  A terminal count output is also provided. It generates a pulse one clock
  13:.\Generated_Source\PSoC5/Delay_PWM.c **** *  width wide when the counter is equal to zero.
  14:.\Generated_Source\PSoC5/Delay_PWM.c **** *
  15:.\Generated_Source\PSoC5/Delay_PWM.c **** * Note:
  16:.\Generated_Source\PSoC5/Delay_PWM.c **** *
  17:.\Generated_Source\PSoC5/Delay_PWM.c **** *******************************************************************************
  18:.\Generated_Source\PSoC5/Delay_PWM.c **** * Copyright 2008-2012, Cypress Semiconductor Corporation.  All rights reserved.
  19:.\Generated_Source\PSoC5/Delay_PWM.c **** * You may use this file only in accordance with the license, terms, conditions, 
  20:.\Generated_Source\PSoC5/Delay_PWM.c **** * disclaimers, and limitations in the end user license agreement accompanying 
  21:.\Generated_Source\PSoC5/Delay_PWM.c **** * the software package with which this file was provided.
  22:.\Generated_Source\PSoC5/Delay_PWM.c **** ********************************************************************************/
  23:.\Generated_Source\PSoC5/Delay_PWM.c **** 
  24:.\Generated_Source\PSoC5/Delay_PWM.c **** #include "cytypes.h"
  25:.\Generated_Source\PSoC5/Delay_PWM.c **** #include "Delay_PWM.h"
ARM GAS  C:\Users\SCOTTC~1\AppData\Local\Temp\ccbnr13E.s 			page 2


  26:.\Generated_Source\PSoC5/Delay_PWM.c **** 
  27:.\Generated_Source\PSoC5/Delay_PWM.c **** uint8 Delay_PWM_initVar = 0u;
  28:.\Generated_Source\PSoC5/Delay_PWM.c **** 
  29:.\Generated_Source\PSoC5/Delay_PWM.c **** 
  30:.\Generated_Source\PSoC5/Delay_PWM.c **** /*******************************************************************************
  31:.\Generated_Source\PSoC5/Delay_PWM.c **** * Function Name: Delay_PWM_Start
  32:.\Generated_Source\PSoC5/Delay_PWM.c **** ********************************************************************************
  33:.\Generated_Source\PSoC5/Delay_PWM.c **** *
  34:.\Generated_Source\PSoC5/Delay_PWM.c **** * Summary:
  35:.\Generated_Source\PSoC5/Delay_PWM.c **** *  The start function initializes the pwm with the default values, the 
  36:.\Generated_Source\PSoC5/Delay_PWM.c **** *  enables the counter to begin counting.  It does not enable interrupts,
  37:.\Generated_Source\PSoC5/Delay_PWM.c **** *  the EnableInt command should be called if interrupt generation is required.
  38:.\Generated_Source\PSoC5/Delay_PWM.c **** *
  39:.\Generated_Source\PSoC5/Delay_PWM.c **** * Parameters:  
  40:.\Generated_Source\PSoC5/Delay_PWM.c **** *  None  
  41:.\Generated_Source\PSoC5/Delay_PWM.c **** *
  42:.\Generated_Source\PSoC5/Delay_PWM.c **** * Return: 
  43:.\Generated_Source\PSoC5/Delay_PWM.c **** *  None
  44:.\Generated_Source\PSoC5/Delay_PWM.c **** *
  45:.\Generated_Source\PSoC5/Delay_PWM.c **** * Global variables:
  46:.\Generated_Source\PSoC5/Delay_PWM.c **** *  Delay_PWM_initVar: Is modified when this function is called for the 
  47:.\Generated_Source\PSoC5/Delay_PWM.c **** *   first time. Is used to ensure that initialization happens only once.
  48:.\Generated_Source\PSoC5/Delay_PWM.c **** *
  49:.\Generated_Source\PSoC5/Delay_PWM.c **** *******************************************************************************/
  50:.\Generated_Source\PSoC5/Delay_PWM.c **** void Delay_PWM_Start(void) 
  51:.\Generated_Source\PSoC5/Delay_PWM.c **** {
  33              		.loc 1 51 0
  34              		.cfi_startproc
  35              		@ args = 0, pretend = 0, frame = 0
  36              		@ frame_needed = 1, uses_anonymous_args = 0
  37 0000 80B5     		push	{r7, lr}
  38              		.cfi_def_cfa_offset 8
  39              		.cfi_offset 7, -8
  40              		.cfi_offset 14, -4
  41 0002 00AF     		add	r7, sp, #0
  42              		.cfi_def_cfa_register 7
  52:.\Generated_Source\PSoC5/Delay_PWM.c ****     /* If not Initialized then initialize all required hardware and software */
  53:.\Generated_Source\PSoC5/Delay_PWM.c ****     if(Delay_PWM_initVar == 0u)
  43              		.loc 1 53 0
  44 0004 054B     		ldr	r3, .L3
  45 0006 1B78     		ldrb	r3, [r3]	@ zero_extendqisi2
  46 0008 002B     		cmp	r3, #0
  47 000a 04D1     		bne	.L2
  54:.\Generated_Source\PSoC5/Delay_PWM.c ****     {
  55:.\Generated_Source\PSoC5/Delay_PWM.c ****         Delay_PWM_Init();
  48              		.loc 1 55 0
  49 000c FFF7FEFF 		bl	Delay_PWM_Init
  56:.\Generated_Source\PSoC5/Delay_PWM.c ****         Delay_PWM_initVar = 1u;
  50              		.loc 1 56 0
  51 0010 024B     		ldr	r3, .L3
  52 0012 0122     		movs	r2, #1
  53 0014 1A70     		strb	r2, [r3]
  54              	.L2:
  57:.\Generated_Source\PSoC5/Delay_PWM.c ****     }
  58:.\Generated_Source\PSoC5/Delay_PWM.c ****     Delay_PWM_Enable();
  55              		.loc 1 58 0
  56 0016 FFF7FEFF 		bl	Delay_PWM_Enable
ARM GAS  C:\Users\SCOTTC~1\AppData\Local\Temp\ccbnr13E.s 			page 3


  59:.\Generated_Source\PSoC5/Delay_PWM.c **** 
  60:.\Generated_Source\PSoC5/Delay_PWM.c **** }
  57              		.loc 1 60 0
  58 001a 80BD     		pop	{r7, pc}
  59              	.L4:
  60              		.align	2
  61              	.L3:
  62 001c 00000000 		.word	Delay_PWM_initVar
  63              		.cfi_endproc
  64              	.LFE0:
  65              		.size	Delay_PWM_Start, .-Delay_PWM_Start
  66              		.section	.text.Delay_PWM_Init,"ax",%progbits
  67              		.align	2
  68              		.global	Delay_PWM_Init
  69              		.thumb
  70              		.thumb_func
  71              		.type	Delay_PWM_Init, %function
  72              	Delay_PWM_Init:
  73              	.LFB1:
  61:.\Generated_Source\PSoC5/Delay_PWM.c **** 
  62:.\Generated_Source\PSoC5/Delay_PWM.c **** 
  63:.\Generated_Source\PSoC5/Delay_PWM.c **** /*******************************************************************************
  64:.\Generated_Source\PSoC5/Delay_PWM.c **** * Function Name: Delay_PWM_Init
  65:.\Generated_Source\PSoC5/Delay_PWM.c **** ********************************************************************************
  66:.\Generated_Source\PSoC5/Delay_PWM.c **** *
  67:.\Generated_Source\PSoC5/Delay_PWM.c **** * Summary:
  68:.\Generated_Source\PSoC5/Delay_PWM.c **** *  Initialize component's parameters to the parameters set by user in the 
  69:.\Generated_Source\PSoC5/Delay_PWM.c **** *  customizer of the component placed onto schematic. Usually called in 
  70:.\Generated_Source\PSoC5/Delay_PWM.c **** *  Delay_PWM_Start().
  71:.\Generated_Source\PSoC5/Delay_PWM.c **** *
  72:.\Generated_Source\PSoC5/Delay_PWM.c **** * Parameters:  
  73:.\Generated_Source\PSoC5/Delay_PWM.c **** *  None
  74:.\Generated_Source\PSoC5/Delay_PWM.c **** *
  75:.\Generated_Source\PSoC5/Delay_PWM.c **** * Return: 
  76:.\Generated_Source\PSoC5/Delay_PWM.c **** *  None
  77:.\Generated_Source\PSoC5/Delay_PWM.c **** *
  78:.\Generated_Source\PSoC5/Delay_PWM.c **** *******************************************************************************/
  79:.\Generated_Source\PSoC5/Delay_PWM.c **** void Delay_PWM_Init(void) 
  80:.\Generated_Source\PSoC5/Delay_PWM.c **** {
  74              		.loc 1 80 0
  75              		.cfi_startproc
  76              		@ args = 0, pretend = 0, frame = 8
  77              		@ frame_needed = 1, uses_anonymous_args = 0
  78 0000 80B5     		push	{r7, lr}
  79              		.cfi_def_cfa_offset 8
  80              		.cfi_offset 7, -8
  81              		.cfi_offset 14, -4
  82 0002 82B0     		sub	sp, sp, #8
  83              		.cfi_def_cfa_offset 16
  84 0004 00AF     		add	r7, sp, #0
  85              		.cfi_def_cfa_register 7
  81:.\Generated_Source\PSoC5/Delay_PWM.c ****     #if (Delay_PWM_UsingFixedFunction || Delay_PWM_UseControl)
  82:.\Generated_Source\PSoC5/Delay_PWM.c ****         uint8 ctrl;
  83:.\Generated_Source\PSoC5/Delay_PWM.c ****     #endif /* (Delay_PWM_UsingFixedFunction || Delay_PWM_UseControl) */
  84:.\Generated_Source\PSoC5/Delay_PWM.c ****     
  85:.\Generated_Source\PSoC5/Delay_PWM.c ****     #if(!Delay_PWM_UsingFixedFunction) 
  86:.\Generated_Source\PSoC5/Delay_PWM.c ****         #if(Delay_PWM_UseStatus)
ARM GAS  C:\Users\SCOTTC~1\AppData\Local\Temp\ccbnr13E.s 			page 4


  87:.\Generated_Source\PSoC5/Delay_PWM.c ****             /* Interrupt State Backup for Critical Region*/
  88:.\Generated_Source\PSoC5/Delay_PWM.c ****             uint8 Delay_PWM_interruptState;
  89:.\Generated_Source\PSoC5/Delay_PWM.c ****         #endif /* (Delay_PWM_UseStatus) */
  90:.\Generated_Source\PSoC5/Delay_PWM.c ****     #endif /* (!Delay_PWM_UsingFixedFunction) */
  91:.\Generated_Source\PSoC5/Delay_PWM.c ****     
  92:.\Generated_Source\PSoC5/Delay_PWM.c ****     #if (Delay_PWM_UsingFixedFunction)
  93:.\Generated_Source\PSoC5/Delay_PWM.c ****         /* You are allowed to write the compare value (FF only) */
  94:.\Generated_Source\PSoC5/Delay_PWM.c ****         Delay_PWM_CONTROL |= Delay_PWM_CFG0_MODE;
  95:.\Generated_Source\PSoC5/Delay_PWM.c ****         #if (Delay_PWM_DeadBand2_4)
  96:.\Generated_Source\PSoC5/Delay_PWM.c ****             Delay_PWM_CONTROL |= Delay_PWM_CFG0_DB;
  97:.\Generated_Source\PSoC5/Delay_PWM.c ****         #endif /* (Delay_PWM_DeadBand2_4) */
  98:.\Generated_Source\PSoC5/Delay_PWM.c ****                 
  99:.\Generated_Source\PSoC5/Delay_PWM.c ****         ctrl = Delay_PWM_CONTROL3 & ((uint8 )(~Delay_PWM_CTRL_CMPMODE1_MASK));
 100:.\Generated_Source\PSoC5/Delay_PWM.c ****         Delay_PWM_CONTROL3 = ctrl | Delay_PWM_DEFAULT_COMPARE1_MODE;
 101:.\Generated_Source\PSoC5/Delay_PWM.c ****         
 102:.\Generated_Source\PSoC5/Delay_PWM.c ****          /* Clear and Set SYNCTC and SYNCCMP bits of RT1 register */
 103:.\Generated_Source\PSoC5/Delay_PWM.c ****         Delay_PWM_RT1 &= ((uint8)(~Delay_PWM_RT1_MASK));
 104:.\Generated_Source\PSoC5/Delay_PWM.c ****         Delay_PWM_RT1 |= Delay_PWM_SYNC;     
 105:.\Generated_Source\PSoC5/Delay_PWM.c ****                 
 106:.\Generated_Source\PSoC5/Delay_PWM.c ****         /*Enable DSI Sync all all inputs of the PWM*/
 107:.\Generated_Source\PSoC5/Delay_PWM.c ****         Delay_PWM_RT1 &= ((uint8)(~Delay_PWM_SYNCDSI_MASK));
 108:.\Generated_Source\PSoC5/Delay_PWM.c ****         Delay_PWM_RT1 |= Delay_PWM_SYNCDSI_EN;
 109:.\Generated_Source\PSoC5/Delay_PWM.c ****        
 110:.\Generated_Source\PSoC5/Delay_PWM.c ****     #elif (Delay_PWM_UseControl)
 111:.\Generated_Source\PSoC5/Delay_PWM.c ****         /* Set the default compare mode defined in the parameter */
 112:.\Generated_Source\PSoC5/Delay_PWM.c ****         ctrl = Delay_PWM_CONTROL & ((uint8)(~Delay_PWM_CTRL_CMPMODE2_MASK)) & ((uint8)(~Delay_PWM_C
  86              		.loc 1 112 0
  87 0006 1A4B     		ldr	r3, .L6
  88 0008 1B78     		ldrb	r3, [r3]
  89 000a DBB2     		uxtb	r3, r3
  90 000c 23F03F03 		bic	r3, r3, #63
  91 0010 FB71     		strb	r3, [r7, #7]
 113:.\Generated_Source\PSoC5/Delay_PWM.c ****         Delay_PWM_CONTROL = ctrl | Delay_PWM_DEFAULT_COMPARE2_MODE | 
  92              		.loc 1 113 0
  93 0012 174B     		ldr	r3, .L6
  94 0014 FA79     		ldrb	r2, [r7, #7]
  95 0016 42F00B02 		orr	r2, r2, #11
  96 001a D2B2     		uxtb	r2, r2
  97 001c 1A70     		strb	r2, [r3]
 114:.\Generated_Source\PSoC5/Delay_PWM.c ****                                    Delay_PWM_DEFAULT_COMPARE1_MODE;
 115:.\Generated_Source\PSoC5/Delay_PWM.c ****     #endif /* (Delay_PWM_UsingFixedFunction) */
 116:.\Generated_Source\PSoC5/Delay_PWM.c ****         
 117:.\Generated_Source\PSoC5/Delay_PWM.c ****     #if (!Delay_PWM_UsingFixedFunction)
 118:.\Generated_Source\PSoC5/Delay_PWM.c ****         #if (Delay_PWM_Resolution == 8)
 119:.\Generated_Source\PSoC5/Delay_PWM.c ****             /* Set FIFO 0 to 1 byte register for period*/
 120:.\Generated_Source\PSoC5/Delay_PWM.c ****             Delay_PWM_AUX_CONTROLDP0 |= (Delay_PWM_AUX_CTRL_FIFO0_CLR);
  98              		.loc 1 120 0
  99 001e 154B     		ldr	r3, .L6+4
 100 0020 144A     		ldr	r2, .L6+4
 101 0022 1278     		ldrb	r2, [r2]
 102 0024 D2B2     		uxtb	r2, r2
 103 0026 42F00102 		orr	r2, r2, #1
 104 002a D2B2     		uxtb	r2, r2
 105 002c 1A70     		strb	r2, [r3]
 121:.\Generated_Source\PSoC5/Delay_PWM.c ****         #else /* (Delay_PWM_Resolution == 16)*/
 122:.\Generated_Source\PSoC5/Delay_PWM.c ****             /* Set FIFO 0 to 1 byte register for period */
 123:.\Generated_Source\PSoC5/Delay_PWM.c ****             Delay_PWM_AUX_CONTROLDP0 |= (Delay_PWM_AUX_CTRL_FIFO0_CLR);
ARM GAS  C:\Users\SCOTTC~1\AppData\Local\Temp\ccbnr13E.s 			page 5


 124:.\Generated_Source\PSoC5/Delay_PWM.c ****             Delay_PWM_AUX_CONTROLDP1 |= (Delay_PWM_AUX_CTRL_FIFO0_CLR);
 125:.\Generated_Source\PSoC5/Delay_PWM.c ****         #endif /* (Delay_PWM_Resolution == 8) */
 126:.\Generated_Source\PSoC5/Delay_PWM.c **** 
 127:.\Generated_Source\PSoC5/Delay_PWM.c ****         Delay_PWM_WriteCounter(Delay_PWM_INIT_PERIOD_VALUE);
 106              		.loc 1 127 0
 107 002e 3120     		movs	r0, #49
 108 0030 FFF7FEFF 		bl	Delay_PWM_WriteCounter
 128:.\Generated_Source\PSoC5/Delay_PWM.c ****     #endif /* (!Delay_PWM_UsingFixedFunction) */
 129:.\Generated_Source\PSoC5/Delay_PWM.c ****         
 130:.\Generated_Source\PSoC5/Delay_PWM.c ****     Delay_PWM_WritePeriod(Delay_PWM_INIT_PERIOD_VALUE);
 109              		.loc 1 130 0
 110 0034 3120     		movs	r0, #49
 111 0036 FFF7FEFF 		bl	Delay_PWM_WritePeriod
 131:.\Generated_Source\PSoC5/Delay_PWM.c **** 
 132:.\Generated_Source\PSoC5/Delay_PWM.c ****         #if (Delay_PWM_UseOneCompareMode)
 133:.\Generated_Source\PSoC5/Delay_PWM.c ****             Delay_PWM_WriteCompare(Delay_PWM_INIT_COMPARE_VALUE1);
 112              		.loc 1 133 0
 113 003a 1820     		movs	r0, #24
 114 003c FFF7FEFF 		bl	Delay_PWM_WriteCompare
 134:.\Generated_Source\PSoC5/Delay_PWM.c ****         #else
 135:.\Generated_Source\PSoC5/Delay_PWM.c ****             Delay_PWM_WriteCompare1(Delay_PWM_INIT_COMPARE_VALUE1);
 136:.\Generated_Source\PSoC5/Delay_PWM.c ****             Delay_PWM_WriteCompare2(Delay_PWM_INIT_COMPARE_VALUE2);
 137:.\Generated_Source\PSoC5/Delay_PWM.c ****         #endif /* (Delay_PWM_UseOneCompareMode) */
 138:.\Generated_Source\PSoC5/Delay_PWM.c ****         
 139:.\Generated_Source\PSoC5/Delay_PWM.c ****         #if (Delay_PWM_KillModeMinTime)
 140:.\Generated_Source\PSoC5/Delay_PWM.c ****             Delay_PWM_WriteKillTime(Delay_PWM_MinimumKillTime);
 141:.\Generated_Source\PSoC5/Delay_PWM.c ****         #endif /* (Delay_PWM_KillModeMinTime) */
 142:.\Generated_Source\PSoC5/Delay_PWM.c ****         
 143:.\Generated_Source\PSoC5/Delay_PWM.c ****         #if (Delay_PWM_DeadBandUsed)
 144:.\Generated_Source\PSoC5/Delay_PWM.c ****             Delay_PWM_WriteDeadTime(Delay_PWM_INIT_DEAD_TIME);
 145:.\Generated_Source\PSoC5/Delay_PWM.c ****         #endif /* (Delay_PWM_DeadBandUsed) */
 146:.\Generated_Source\PSoC5/Delay_PWM.c **** 
 147:.\Generated_Source\PSoC5/Delay_PWM.c ****     #if (Delay_PWM_UseStatus || Delay_PWM_UsingFixedFunction)
 148:.\Generated_Source\PSoC5/Delay_PWM.c ****         Delay_PWM_SetInterruptMode(Delay_PWM_INIT_INTERRUPTS_MODE);
 115              		.loc 1 148 0
 116 0040 0020     		movs	r0, #0
 117 0042 FFF7FEFF 		bl	Delay_PWM_SetInterruptMode
 149:.\Generated_Source\PSoC5/Delay_PWM.c ****     #endif /* (Delay_PWM_UseStatus || Delay_PWM_UsingFixedFunction) */
 150:.\Generated_Source\PSoC5/Delay_PWM.c ****         
 151:.\Generated_Source\PSoC5/Delay_PWM.c ****     #if (Delay_PWM_UsingFixedFunction)
 152:.\Generated_Source\PSoC5/Delay_PWM.c ****         /* Globally Enable the Fixed Function Block chosen */
 153:.\Generated_Source\PSoC5/Delay_PWM.c ****         Delay_PWM_GLOBAL_ENABLE |= Delay_PWM_BLOCK_EN_MASK;
 154:.\Generated_Source\PSoC5/Delay_PWM.c ****         /* Set the Interrupt source to come from the status register */
 155:.\Generated_Source\PSoC5/Delay_PWM.c ****         Delay_PWM_CONTROL2 |= Delay_PWM_CTRL2_IRQ_SEL;
 156:.\Generated_Source\PSoC5/Delay_PWM.c ****     #else
 157:.\Generated_Source\PSoC5/Delay_PWM.c ****         #if(Delay_PWM_UseStatus)
 158:.\Generated_Source\PSoC5/Delay_PWM.c ****             
 159:.\Generated_Source\PSoC5/Delay_PWM.c ****             /* CyEnterCriticalRegion and CyExitCriticalRegion are used to mark following region cri
 160:.\Generated_Source\PSoC5/Delay_PWM.c ****             /* Enter Critical Region*/
 161:.\Generated_Source\PSoC5/Delay_PWM.c ****             Delay_PWM_interruptState = CyEnterCriticalSection();
 118              		.loc 1 161 0
 119 0046 FFF7FEFF 		bl	CyEnterCriticalSection
 120 004a 0346     		mov	r3, r0
 121 004c BB71     		strb	r3, [r7, #6]
 162:.\Generated_Source\PSoC5/Delay_PWM.c ****             /* Use the interrupt output of the status register for IRQ output */
 163:.\Generated_Source\PSoC5/Delay_PWM.c ****             Delay_PWM_STATUS_AUX_CTRL |= Delay_PWM_STATUS_ACTL_INT_EN_MASK;
 122              		.loc 1 163 0
ARM GAS  C:\Users\SCOTTC~1\AppData\Local\Temp\ccbnr13E.s 			page 6


 123 004e 094B     		ldr	r3, .L6+4
 124 0050 084A     		ldr	r2, .L6+4
 125 0052 1278     		ldrb	r2, [r2]
 126 0054 D2B2     		uxtb	r2, r2
 127 0056 42F01002 		orr	r2, r2, #16
 128 005a D2B2     		uxtb	r2, r2
 129 005c 1A70     		strb	r2, [r3]
 164:.\Generated_Source\PSoC5/Delay_PWM.c ****             
 165:.\Generated_Source\PSoC5/Delay_PWM.c ****              /* Exit Critical Region*/
 166:.\Generated_Source\PSoC5/Delay_PWM.c ****             CyExitCriticalSection(Delay_PWM_interruptState);
 130              		.loc 1 166 0
 131 005e BB79     		ldrb	r3, [r7, #6]	@ zero_extendqisi2
 132 0060 1846     		mov	r0, r3
 133 0062 FFF7FEFF 		bl	CyExitCriticalSection
 167:.\Generated_Source\PSoC5/Delay_PWM.c ****             
 168:.\Generated_Source\PSoC5/Delay_PWM.c ****             /* Clear the FIFO to enable the Delay_PWM_STATUS_FIFOFULL
 169:.\Generated_Source\PSoC5/Delay_PWM.c ****                    bit to be set on FIFO full. */
 170:.\Generated_Source\PSoC5/Delay_PWM.c ****             Delay_PWM_ClearFIFO();
 134              		.loc 1 170 0
 135 0066 FFF7FEFF 		bl	Delay_PWM_ClearFIFO
 171:.\Generated_Source\PSoC5/Delay_PWM.c ****         #endif /* (Delay_PWM_UseStatus) */
 172:.\Generated_Source\PSoC5/Delay_PWM.c ****     #endif /* (Delay_PWM_UsingFixedFunction) */
 173:.\Generated_Source\PSoC5/Delay_PWM.c **** }
 136              		.loc 1 173 0
 137 006a 0837     		adds	r7, r7, #8
 138 006c BD46     		mov	sp, r7
 139              		@ sp needed
 140 006e 80BD     		pop	{r7, pc}
 141              	.L7:
 142              		.align	2
 143              	.L6:
 144 0070 77650040 		.word	1073767799
 145 0074 97650040 		.word	1073767831
 146              		.cfi_endproc
 147              	.LFE1:
 148              		.size	Delay_PWM_Init, .-Delay_PWM_Init
 149              		.section	.text.Delay_PWM_Enable,"ax",%progbits
 150              		.align	2
 151              		.global	Delay_PWM_Enable
 152              		.thumb
 153              		.thumb_func
 154              		.type	Delay_PWM_Enable, %function
 155              	Delay_PWM_Enable:
 156              	.LFB2:
 174:.\Generated_Source\PSoC5/Delay_PWM.c **** 
 175:.\Generated_Source\PSoC5/Delay_PWM.c **** 
 176:.\Generated_Source\PSoC5/Delay_PWM.c **** /*******************************************************************************
 177:.\Generated_Source\PSoC5/Delay_PWM.c **** * Function Name: Delay_PWM_Enable
 178:.\Generated_Source\PSoC5/Delay_PWM.c **** ********************************************************************************
 179:.\Generated_Source\PSoC5/Delay_PWM.c **** *
 180:.\Generated_Source\PSoC5/Delay_PWM.c **** * Summary: 
 181:.\Generated_Source\PSoC5/Delay_PWM.c **** *  Enables the PWM block operation
 182:.\Generated_Source\PSoC5/Delay_PWM.c **** *
 183:.\Generated_Source\PSoC5/Delay_PWM.c **** * Parameters:  
 184:.\Generated_Source\PSoC5/Delay_PWM.c **** *  None
 185:.\Generated_Source\PSoC5/Delay_PWM.c **** *
 186:.\Generated_Source\PSoC5/Delay_PWM.c **** * Return: 
ARM GAS  C:\Users\SCOTTC~1\AppData\Local\Temp\ccbnr13E.s 			page 7


 187:.\Generated_Source\PSoC5/Delay_PWM.c **** *  None
 188:.\Generated_Source\PSoC5/Delay_PWM.c **** *
 189:.\Generated_Source\PSoC5/Delay_PWM.c **** * Side Effects: 
 190:.\Generated_Source\PSoC5/Delay_PWM.c **** *  This works only if software enable mode is chosen
 191:.\Generated_Source\PSoC5/Delay_PWM.c **** *
 192:.\Generated_Source\PSoC5/Delay_PWM.c **** *******************************************************************************/
 193:.\Generated_Source\PSoC5/Delay_PWM.c **** void Delay_PWM_Enable(void) 
 194:.\Generated_Source\PSoC5/Delay_PWM.c **** {
 157              		.loc 1 194 0
 158              		.cfi_startproc
 159              		@ args = 0, pretend = 0, frame = 0
 160              		@ frame_needed = 1, uses_anonymous_args = 0
 161              		@ link register save eliminated.
 162 0000 80B4     		push	{r7}
 163              		.cfi_def_cfa_offset 4
 164              		.cfi_offset 7, -4
 165 0002 00AF     		add	r7, sp, #0
 166              		.cfi_def_cfa_register 7
 195:.\Generated_Source\PSoC5/Delay_PWM.c ****     /* Globally Enable the Fixed Function Block chosen */
 196:.\Generated_Source\PSoC5/Delay_PWM.c ****     #if (Delay_PWM_UsingFixedFunction)
 197:.\Generated_Source\PSoC5/Delay_PWM.c ****         Delay_PWM_GLOBAL_ENABLE |= Delay_PWM_BLOCK_EN_MASK;
 198:.\Generated_Source\PSoC5/Delay_PWM.c ****         Delay_PWM_GLOBAL_STBY_ENABLE |= Delay_PWM_BLOCK_STBY_EN_MASK;
 199:.\Generated_Source\PSoC5/Delay_PWM.c ****     #endif /* (Delay_PWM_UsingFixedFunction) */
 200:.\Generated_Source\PSoC5/Delay_PWM.c ****     
 201:.\Generated_Source\PSoC5/Delay_PWM.c ****     /* Enable the PWM from the control register  */
 202:.\Generated_Source\PSoC5/Delay_PWM.c ****     #if (Delay_PWM_UseControl || Delay_PWM_UsingFixedFunction)
 203:.\Generated_Source\PSoC5/Delay_PWM.c ****         Delay_PWM_CONTROL |= Delay_PWM_CTRL_ENABLE;
 167              		.loc 1 203 0
 168 0004 054B     		ldr	r3, .L9
 169 0006 054A     		ldr	r2, .L9
 170 0008 1278     		ldrb	r2, [r2]
 171 000a D2B2     		uxtb	r2, r2
 172 000c 62F07F02 		orn	r2, r2, #127
 173 0010 D2B2     		uxtb	r2, r2
 174 0012 1A70     		strb	r2, [r3]
 204:.\Generated_Source\PSoC5/Delay_PWM.c ****     #endif /* (Delay_PWM_UseControl || Delay_PWM_UsingFixedFunction) */
 205:.\Generated_Source\PSoC5/Delay_PWM.c **** }
 175              		.loc 1 205 0
 176 0014 BD46     		mov	sp, r7
 177              		@ sp needed
 178 0016 5DF8047B 		ldr	r7, [sp], #4
 179 001a 7047     		bx	lr
 180              	.L10:
 181              		.align	2
 182              	.L9:
 183 001c 77650040 		.word	1073767799
 184              		.cfi_endproc
 185              	.LFE2:
 186              		.size	Delay_PWM_Enable, .-Delay_PWM_Enable
 187              		.section	.text.Delay_PWM_Stop,"ax",%progbits
 188              		.align	2
 189              		.global	Delay_PWM_Stop
 190              		.thumb
 191              		.thumb_func
 192              		.type	Delay_PWM_Stop, %function
 193              	Delay_PWM_Stop:
 194              	.LFB3:
ARM GAS  C:\Users\SCOTTC~1\AppData\Local\Temp\ccbnr13E.s 			page 8


 206:.\Generated_Source\PSoC5/Delay_PWM.c **** 
 207:.\Generated_Source\PSoC5/Delay_PWM.c **** 
 208:.\Generated_Source\PSoC5/Delay_PWM.c **** /*******************************************************************************
 209:.\Generated_Source\PSoC5/Delay_PWM.c **** * Function Name: Delay_PWM_Stop
 210:.\Generated_Source\PSoC5/Delay_PWM.c **** ********************************************************************************
 211:.\Generated_Source\PSoC5/Delay_PWM.c **** *
 212:.\Generated_Source\PSoC5/Delay_PWM.c **** * Summary:
 213:.\Generated_Source\PSoC5/Delay_PWM.c **** *  The stop function halts the PWM, but does not change any modes or disable
 214:.\Generated_Source\PSoC5/Delay_PWM.c **** *  interrupts.
 215:.\Generated_Source\PSoC5/Delay_PWM.c **** *
 216:.\Generated_Source\PSoC5/Delay_PWM.c **** * Parameters:  
 217:.\Generated_Source\PSoC5/Delay_PWM.c **** *  None  
 218:.\Generated_Source\PSoC5/Delay_PWM.c **** *
 219:.\Generated_Source\PSoC5/Delay_PWM.c **** * Return: 
 220:.\Generated_Source\PSoC5/Delay_PWM.c **** *  None
 221:.\Generated_Source\PSoC5/Delay_PWM.c **** *
 222:.\Generated_Source\PSoC5/Delay_PWM.c **** * Side Effects:
 223:.\Generated_Source\PSoC5/Delay_PWM.c **** *  If the Enable mode is set to Hardware only then this function
 224:.\Generated_Source\PSoC5/Delay_PWM.c **** *  has no effect on the operation of the PWM
 225:.\Generated_Source\PSoC5/Delay_PWM.c **** *
 226:.\Generated_Source\PSoC5/Delay_PWM.c **** *******************************************************************************/
 227:.\Generated_Source\PSoC5/Delay_PWM.c **** void Delay_PWM_Stop(void) 
 228:.\Generated_Source\PSoC5/Delay_PWM.c **** {
 195              		.loc 1 228 0
 196              		.cfi_startproc
 197              		@ args = 0, pretend = 0, frame = 0
 198              		@ frame_needed = 1, uses_anonymous_args = 0
 199              		@ link register save eliminated.
 200 0000 80B4     		push	{r7}
 201              		.cfi_def_cfa_offset 4
 202              		.cfi_offset 7, -4
 203 0002 00AF     		add	r7, sp, #0
 204              		.cfi_def_cfa_register 7
 229:.\Generated_Source\PSoC5/Delay_PWM.c ****     #if (Delay_PWM_UseControl || Delay_PWM_UsingFixedFunction)
 230:.\Generated_Source\PSoC5/Delay_PWM.c ****         Delay_PWM_CONTROL &= ((uint8)(~Delay_PWM_CTRL_ENABLE));
 205              		.loc 1 230 0
 206 0004 054B     		ldr	r3, .L12
 207 0006 054A     		ldr	r2, .L12
 208 0008 1278     		ldrb	r2, [r2]
 209 000a D2B2     		uxtb	r2, r2
 210 000c 02F07F02 		and	r2, r2, #127
 211 0010 D2B2     		uxtb	r2, r2
 212 0012 1A70     		strb	r2, [r3]
 231:.\Generated_Source\PSoC5/Delay_PWM.c ****     #endif /* (Delay_PWM_UseControl || Delay_PWM_UsingFixedFunction) */
 232:.\Generated_Source\PSoC5/Delay_PWM.c ****     
 233:.\Generated_Source\PSoC5/Delay_PWM.c ****     /* Globally disable the Fixed Function Block chosen */
 234:.\Generated_Source\PSoC5/Delay_PWM.c ****     #if (Delay_PWM_UsingFixedFunction)
 235:.\Generated_Source\PSoC5/Delay_PWM.c ****         Delay_PWM_GLOBAL_ENABLE &= ((uint8)(~Delay_PWM_BLOCK_EN_MASK));
 236:.\Generated_Source\PSoC5/Delay_PWM.c ****         Delay_PWM_GLOBAL_STBY_ENABLE &= ((uint8)(~Delay_PWM_BLOCK_STBY_EN_MASK));
 237:.\Generated_Source\PSoC5/Delay_PWM.c ****     #endif /* (Delay_PWM_UsingFixedFunction) */
 238:.\Generated_Source\PSoC5/Delay_PWM.c **** }
 213              		.loc 1 238 0
 214 0014 BD46     		mov	sp, r7
 215              		@ sp needed
 216 0016 5DF8047B 		ldr	r7, [sp], #4
 217 001a 7047     		bx	lr
 218              	.L13:
ARM GAS  C:\Users\SCOTTC~1\AppData\Local\Temp\ccbnr13E.s 			page 9


 219              		.align	2
 220              	.L12:
 221 001c 77650040 		.word	1073767799
 222              		.cfi_endproc
 223              	.LFE3:
 224              		.size	Delay_PWM_Stop, .-Delay_PWM_Stop
 225              		.section	.text.Delay_PWM_WriteCounter,"ax",%progbits
 226              		.align	2
 227              		.global	Delay_PWM_WriteCounter
 228              		.thumb
 229              		.thumb_func
 230              		.type	Delay_PWM_WriteCounter, %function
 231              	Delay_PWM_WriteCounter:
 232              	.LFB4:
 239:.\Generated_Source\PSoC5/Delay_PWM.c **** 
 240:.\Generated_Source\PSoC5/Delay_PWM.c **** 
 241:.\Generated_Source\PSoC5/Delay_PWM.c **** #if (Delay_PWM_UseOneCompareMode)
 242:.\Generated_Source\PSoC5/Delay_PWM.c **** 	#if (Delay_PWM_CompareMode1SW)
 243:.\Generated_Source\PSoC5/Delay_PWM.c **** 
 244:.\Generated_Source\PSoC5/Delay_PWM.c **** 
 245:.\Generated_Source\PSoC5/Delay_PWM.c **** 		/*******************************************************************************
 246:.\Generated_Source\PSoC5/Delay_PWM.c **** 		* Function Name: Delay_PWM_SetCompareMode
 247:.\Generated_Source\PSoC5/Delay_PWM.c **** 		********************************************************************************
 248:.\Generated_Source\PSoC5/Delay_PWM.c **** 		* 
 249:.\Generated_Source\PSoC5/Delay_PWM.c **** 		* Summary:
 250:.\Generated_Source\PSoC5/Delay_PWM.c **** 		*  This function writes the Compare Mode for the pwm output when in Dither mode,
 251:.\Generated_Source\PSoC5/Delay_PWM.c **** 		*  Center Align Mode or One Output Mode.
 252:.\Generated_Source\PSoC5/Delay_PWM.c **** 		*
 253:.\Generated_Source\PSoC5/Delay_PWM.c **** 		* Parameters:
 254:.\Generated_Source\PSoC5/Delay_PWM.c **** 		*  comparemode:  The new compare mode for the PWM output. Use the compare types
 255:.\Generated_Source\PSoC5/Delay_PWM.c **** 		*                defined in the H file as input arguments.
 256:.\Generated_Source\PSoC5/Delay_PWM.c **** 		*
 257:.\Generated_Source\PSoC5/Delay_PWM.c **** 		* Return:
 258:.\Generated_Source\PSoC5/Delay_PWM.c **** 		*  None
 259:.\Generated_Source\PSoC5/Delay_PWM.c **** 		*
 260:.\Generated_Source\PSoC5/Delay_PWM.c **** 		*******************************************************************************/
 261:.\Generated_Source\PSoC5/Delay_PWM.c **** 		void Delay_PWM_SetCompareMode(uint8 comparemode) 
 262:.\Generated_Source\PSoC5/Delay_PWM.c **** 		{
 263:.\Generated_Source\PSoC5/Delay_PWM.c **** 		    #if(Delay_PWM_UsingFixedFunction)
 264:.\Generated_Source\PSoC5/Delay_PWM.c ****             
 265:.\Generated_Source\PSoC5/Delay_PWM.c ****                 #if(0 != Delay_PWM_CTRL_CMPMODE1_SHIFT)
 266:.\Generated_Source\PSoC5/Delay_PWM.c ****                     uint8 comparemodemasked = ((uint8)((uint8)comparemode << Delay_PWM_CTRL_CMPMODE
 267:.\Generated_Source\PSoC5/Delay_PWM.c ****                 #else
 268:.\Generated_Source\PSoC5/Delay_PWM.c ****                     uint8 comparemodemasked = comparemode;
 269:.\Generated_Source\PSoC5/Delay_PWM.c ****                 #endif /* (0 != Delay_PWM_CTRL_CMPMODE1_SHIFT) */
 270:.\Generated_Source\PSoC5/Delay_PWM.c ****             
 271:.\Generated_Source\PSoC5/Delay_PWM.c **** 	            Delay_PWM_CONTROL3 &= ((uint8)(~Delay_PWM_CTRL_CMPMODE1_MASK)); /*Clear Existing Data 
 272:.\Generated_Source\PSoC5/Delay_PWM.c **** 	            Delay_PWM_CONTROL3 |= comparemodemasked;     
 273:.\Generated_Source\PSoC5/Delay_PWM.c **** 		                
 274:.\Generated_Source\PSoC5/Delay_PWM.c **** 		    #elif (Delay_PWM_UseControl)
 275:.\Generated_Source\PSoC5/Delay_PWM.c **** 		        
 276:.\Generated_Source\PSoC5/Delay_PWM.c ****                 #if(0 != Delay_PWM_CTRL_CMPMODE1_SHIFT)
 277:.\Generated_Source\PSoC5/Delay_PWM.c ****                     uint8 comparemode1masked = ((uint8)((uint8)comparemode << Delay_PWM_CTRL_CMPMOD
 278:.\Generated_Source\PSoC5/Delay_PWM.c ****     		                                    Delay_PWM_CTRL_CMPMODE1_MASK;
 279:.\Generated_Source\PSoC5/Delay_PWM.c ****                 #else
 280:.\Generated_Source\PSoC5/Delay_PWM.c ****                     uint8 comparemode1masked = comparemode & Delay_PWM_CTRL_CMPMODE1_MASK;         
 281:.\Generated_Source\PSoC5/Delay_PWM.c ****                 #endif /* (0 != Delay_PWM_CTRL_CMPMODE1_SHIFT) */
ARM GAS  C:\Users\SCOTTC~1\AppData\Local\Temp\ccbnr13E.s 			page 10


 282:.\Generated_Source\PSoC5/Delay_PWM.c ****                 
 283:.\Generated_Source\PSoC5/Delay_PWM.c ****                 #if(0 != Delay_PWM_CTRL_CMPMODE2_SHIFT)                            
 284:.\Generated_Source\PSoC5/Delay_PWM.c ****     		        uint8 comparemode2masked = ((uint8)((uint8)comparemode << Delay_PWM_CTRL_CMPMODE2_SHI
 285:.\Generated_Source\PSoC5/Delay_PWM.c ****     		                                   Delay_PWM_CTRL_CMPMODE2_MASK;
 286:.\Generated_Source\PSoC5/Delay_PWM.c ****                 #else
 287:.\Generated_Source\PSoC5/Delay_PWM.c ****     		        uint8 comparemode2masked = comparemode & Delay_PWM_CTRL_CMPMODE2_MASK;               
 288:.\Generated_Source\PSoC5/Delay_PWM.c ****                 #endif /* (0 != Delay_PWM_CTRL_CMPMODE2_SHIFT) */
 289:.\Generated_Source\PSoC5/Delay_PWM.c ****                 
 290:.\Generated_Source\PSoC5/Delay_PWM.c **** 		        /*Clear existing mode */
 291:.\Generated_Source\PSoC5/Delay_PWM.c **** 		        Delay_PWM_CONTROL &= ((uint8)(~(Delay_PWM_CTRL_CMPMODE1_MASK | Delay_PWM_CTRL_CMPMODE2_MA
 292:.\Generated_Source\PSoC5/Delay_PWM.c **** 		        Delay_PWM_CONTROL |= (comparemode1masked | comparemode2masked);
 293:.\Generated_Source\PSoC5/Delay_PWM.c **** 		        
 294:.\Generated_Source\PSoC5/Delay_PWM.c **** 		    #else
 295:.\Generated_Source\PSoC5/Delay_PWM.c **** 		        uint8 temp = comparemode;
 296:.\Generated_Source\PSoC5/Delay_PWM.c **** 		    #endif /* (Delay_PWM_UsingFixedFunction) */
 297:.\Generated_Source\PSoC5/Delay_PWM.c **** 		}
 298:.\Generated_Source\PSoC5/Delay_PWM.c **** 	#endif /* Delay_PWM_CompareMode1SW */
 299:.\Generated_Source\PSoC5/Delay_PWM.c **** 
 300:.\Generated_Source\PSoC5/Delay_PWM.c **** #else /* UseOneCompareMode */
 301:.\Generated_Source\PSoC5/Delay_PWM.c **** 
 302:.\Generated_Source\PSoC5/Delay_PWM.c **** 	#if (Delay_PWM_CompareMode1SW)
 303:.\Generated_Source\PSoC5/Delay_PWM.c **** 
 304:.\Generated_Source\PSoC5/Delay_PWM.c **** 
 305:.\Generated_Source\PSoC5/Delay_PWM.c **** 		/*******************************************************************************
 306:.\Generated_Source\PSoC5/Delay_PWM.c **** 		* Function Name: Delay_PWM_SetCompareMode1
 307:.\Generated_Source\PSoC5/Delay_PWM.c **** 		********************************************************************************
 308:.\Generated_Source\PSoC5/Delay_PWM.c **** 		* 
 309:.\Generated_Source\PSoC5/Delay_PWM.c **** 		* Summary:
 310:.\Generated_Source\PSoC5/Delay_PWM.c **** 		*  This function writes the Compare Mode for the pwm or pwm1 output
 311:.\Generated_Source\PSoC5/Delay_PWM.c **** 		*
 312:.\Generated_Source\PSoC5/Delay_PWM.c **** 		* Parameters:  
 313:.\Generated_Source\PSoC5/Delay_PWM.c **** 		*  comparemode:  The new compare mode for the PWM output. Use the compare types
 314:.\Generated_Source\PSoC5/Delay_PWM.c **** 		*                defined in the H file as input arguments.
 315:.\Generated_Source\PSoC5/Delay_PWM.c **** 		*
 316:.\Generated_Source\PSoC5/Delay_PWM.c **** 		* Return: 
 317:.\Generated_Source\PSoC5/Delay_PWM.c **** 		*  None
 318:.\Generated_Source\PSoC5/Delay_PWM.c **** 		*
 319:.\Generated_Source\PSoC5/Delay_PWM.c **** 		*******************************************************************************/
 320:.\Generated_Source\PSoC5/Delay_PWM.c **** 		void Delay_PWM_SetCompareMode1(uint8 comparemode) 
 321:.\Generated_Source\PSoC5/Delay_PWM.c **** 		{
 322:.\Generated_Source\PSoC5/Delay_PWM.c **** 		    #if(0 != Delay_PWM_CTRL_CMPMODE1_SHIFT)
 323:.\Generated_Source\PSoC5/Delay_PWM.c ****                 uint8 comparemodemasked = ((uint8)((uint8)comparemode << Delay_PWM_CTRL_CMPMODE1_SH
 324:.\Generated_Source\PSoC5/Delay_PWM.c ****     		                               Delay_PWM_CTRL_CMPMODE1_MASK;
 325:.\Generated_Source\PSoC5/Delay_PWM.c **** 		    #else
 326:.\Generated_Source\PSoC5/Delay_PWM.c ****                 uint8 comparemodemasked = comparemode & Delay_PWM_CTRL_CMPMODE1_MASK;              
 327:.\Generated_Source\PSoC5/Delay_PWM.c ****             #endif /* (0 != Delay_PWM_CTRL_CMPMODE1_SHIFT) */
 328:.\Generated_Source\PSoC5/Delay_PWM.c ****                    
 329:.\Generated_Source\PSoC5/Delay_PWM.c **** 		    #if (Delay_PWM_UseControl)
 330:.\Generated_Source\PSoC5/Delay_PWM.c **** 		        Delay_PWM_CONTROL &= ((uint8)(~Delay_PWM_CTRL_CMPMODE1_MASK)); /*Clear existing mode */
 331:.\Generated_Source\PSoC5/Delay_PWM.c **** 		        Delay_PWM_CONTROL |= comparemodemasked;
 332:.\Generated_Source\PSoC5/Delay_PWM.c **** 		    #endif /* (Delay_PWM_UseControl) */
 333:.\Generated_Source\PSoC5/Delay_PWM.c **** 		}
 334:.\Generated_Source\PSoC5/Delay_PWM.c **** 	#endif /* Delay_PWM_CompareMode1SW */
 335:.\Generated_Source\PSoC5/Delay_PWM.c **** 
 336:.\Generated_Source\PSoC5/Delay_PWM.c **** #if (Delay_PWM_CompareMode2SW)
 337:.\Generated_Source\PSoC5/Delay_PWM.c **** 
 338:.\Generated_Source\PSoC5/Delay_PWM.c **** 
ARM GAS  C:\Users\SCOTTC~1\AppData\Local\Temp\ccbnr13E.s 			page 11


 339:.\Generated_Source\PSoC5/Delay_PWM.c ****     /*******************************************************************************
 340:.\Generated_Source\PSoC5/Delay_PWM.c ****     * Function Name: Delay_PWM_SetCompareMode2
 341:.\Generated_Source\PSoC5/Delay_PWM.c ****     ********************************************************************************
 342:.\Generated_Source\PSoC5/Delay_PWM.c ****     * 
 343:.\Generated_Source\PSoC5/Delay_PWM.c ****     * Summary:
 344:.\Generated_Source\PSoC5/Delay_PWM.c ****     *  This function writes the Compare Mode for the pwm or pwm2 output
 345:.\Generated_Source\PSoC5/Delay_PWM.c ****     *
 346:.\Generated_Source\PSoC5/Delay_PWM.c ****     * Parameters:  
 347:.\Generated_Source\PSoC5/Delay_PWM.c ****     *  comparemode:  The new compare mode for the PWM output. Use the compare types
 348:.\Generated_Source\PSoC5/Delay_PWM.c ****     *                defined in the H file as input arguments.
 349:.\Generated_Source\PSoC5/Delay_PWM.c ****     *
 350:.\Generated_Source\PSoC5/Delay_PWM.c ****     * Return: 
 351:.\Generated_Source\PSoC5/Delay_PWM.c ****     *  None
 352:.\Generated_Source\PSoC5/Delay_PWM.c ****     *
 353:.\Generated_Source\PSoC5/Delay_PWM.c ****     *******************************************************************************/
 354:.\Generated_Source\PSoC5/Delay_PWM.c ****     void Delay_PWM_SetCompareMode2(uint8 comparemode) 
 355:.\Generated_Source\PSoC5/Delay_PWM.c ****     {
 356:.\Generated_Source\PSoC5/Delay_PWM.c **** 
 357:.\Generated_Source\PSoC5/Delay_PWM.c ****         #if(0 != Delay_PWM_CTRL_CMPMODE2_SHIFT)
 358:.\Generated_Source\PSoC5/Delay_PWM.c ****             uint8 comparemodemasked = ((uint8)((uint8)comparemode << Delay_PWM_CTRL_CMPMODE2_SHIFT)
 359:.\Generated_Source\PSoC5/Delay_PWM.c ****                                                  Delay_PWM_CTRL_CMPMODE2_MASK;
 360:.\Generated_Source\PSoC5/Delay_PWM.c ****         #else
 361:.\Generated_Source\PSoC5/Delay_PWM.c ****             uint8 comparemodemasked = comparemode & Delay_PWM_CTRL_CMPMODE2_MASK;            
 362:.\Generated_Source\PSoC5/Delay_PWM.c ****         #endif /* (0 != Delay_PWM_CTRL_CMPMODE2_SHIFT) */
 363:.\Generated_Source\PSoC5/Delay_PWM.c ****         
 364:.\Generated_Source\PSoC5/Delay_PWM.c ****         #if (Delay_PWM_UseControl)
 365:.\Generated_Source\PSoC5/Delay_PWM.c ****             Delay_PWM_CONTROL &= ((uint8)(~Delay_PWM_CTRL_CMPMODE2_MASK)); /*Clear existing mode */
 366:.\Generated_Source\PSoC5/Delay_PWM.c ****             Delay_PWM_CONTROL |= comparemodemasked;
 367:.\Generated_Source\PSoC5/Delay_PWM.c ****         #endif /* (Delay_PWM_UseControl) */
 368:.\Generated_Source\PSoC5/Delay_PWM.c ****     }
 369:.\Generated_Source\PSoC5/Delay_PWM.c ****     #endif /*Delay_PWM_CompareMode2SW */
 370:.\Generated_Source\PSoC5/Delay_PWM.c **** 
 371:.\Generated_Source\PSoC5/Delay_PWM.c **** #endif /* UseOneCompareMode */
 372:.\Generated_Source\PSoC5/Delay_PWM.c **** 
 373:.\Generated_Source\PSoC5/Delay_PWM.c **** 
 374:.\Generated_Source\PSoC5/Delay_PWM.c **** #if (!Delay_PWM_UsingFixedFunction)
 375:.\Generated_Source\PSoC5/Delay_PWM.c **** 
 376:.\Generated_Source\PSoC5/Delay_PWM.c **** 
 377:.\Generated_Source\PSoC5/Delay_PWM.c ****     /*******************************************************************************
 378:.\Generated_Source\PSoC5/Delay_PWM.c ****     * Function Name: Delay_PWM_WriteCounter
 379:.\Generated_Source\PSoC5/Delay_PWM.c ****     ********************************************************************************
 380:.\Generated_Source\PSoC5/Delay_PWM.c ****     * 
 381:.\Generated_Source\PSoC5/Delay_PWM.c ****     * Summary:
 382:.\Generated_Source\PSoC5/Delay_PWM.c ****     *  Writes a new counter value directly to the counter register. This will be 
 383:.\Generated_Source\PSoC5/Delay_PWM.c ****     *  implemented for that currently running period and only that period. This API 
 384:.\Generated_Source\PSoC5/Delay_PWM.c ****     *  is valid only for UDB implementation and not available for fixed function 
 385:.\Generated_Source\PSoC5/Delay_PWM.c ****     *  PWM implementation.    
 386:.\Generated_Source\PSoC5/Delay_PWM.c ****     *
 387:.\Generated_Source\PSoC5/Delay_PWM.c ****     * Parameters:  
 388:.\Generated_Source\PSoC5/Delay_PWM.c ****     *  counter:  The period new period counter value.
 389:.\Generated_Source\PSoC5/Delay_PWM.c ****     *
 390:.\Generated_Source\PSoC5/Delay_PWM.c ****     * Return: 
 391:.\Generated_Source\PSoC5/Delay_PWM.c ****     *  None
 392:.\Generated_Source\PSoC5/Delay_PWM.c ****     *
 393:.\Generated_Source\PSoC5/Delay_PWM.c ****     * Side Effects: 
 394:.\Generated_Source\PSoC5/Delay_PWM.c ****     *  The PWM Period will be reloaded when a counter value will be a zero
 395:.\Generated_Source\PSoC5/Delay_PWM.c ****     *
ARM GAS  C:\Users\SCOTTC~1\AppData\Local\Temp\ccbnr13E.s 			page 12


 396:.\Generated_Source\PSoC5/Delay_PWM.c ****     *******************************************************************************/
 397:.\Generated_Source\PSoC5/Delay_PWM.c ****     void Delay_PWM_WriteCounter(uint8 counter) \
 398:.\Generated_Source\PSoC5/Delay_PWM.c ****                                        
 399:.\Generated_Source\PSoC5/Delay_PWM.c ****     {
 233              		.loc 1 399 0
 234              		.cfi_startproc
 235              		@ args = 0, pretend = 0, frame = 8
 236              		@ frame_needed = 1, uses_anonymous_args = 0
 237              		@ link register save eliminated.
 238 0000 80B4     		push	{r7}
 239              		.cfi_def_cfa_offset 4
 240              		.cfi_offset 7, -4
 241 0002 83B0     		sub	sp, sp, #12
 242              		.cfi_def_cfa_offset 16
 243 0004 00AF     		add	r7, sp, #0
 244              		.cfi_def_cfa_register 7
 245 0006 0346     		mov	r3, r0
 246 0008 FB71     		strb	r3, [r7, #7]
 400:.\Generated_Source\PSoC5/Delay_PWM.c ****         CY_SET_REG8(Delay_PWM_COUNTER_LSB_PTR, counter);
 247              		.loc 1 400 0
 248 000a 044B     		ldr	r3, .L15
 249 000c FA79     		ldrb	r2, [r7, #7]
 250 000e 1A70     		strb	r2, [r3]
 401:.\Generated_Source\PSoC5/Delay_PWM.c ****     }
 251              		.loc 1 401 0
 252 0010 0C37     		adds	r7, r7, #12
 253 0012 BD46     		mov	sp, r7
 254              		@ sp needed
 255 0014 5DF8047B 		ldr	r7, [sp], #4
 256 0018 7047     		bx	lr
 257              	.L16:
 258 001a 00BF     		.align	2
 259              	.L15:
 260 001c 07650040 		.word	1073767687
 261              		.cfi_endproc
 262              	.LFE4:
 263              		.size	Delay_PWM_WriteCounter, .-Delay_PWM_WriteCounter
 264              		.section	.text.Delay_PWM_ReadCounter,"ax",%progbits
 265              		.align	2
 266              		.global	Delay_PWM_ReadCounter
 267              		.thumb
 268              		.thumb_func
 269              		.type	Delay_PWM_ReadCounter, %function
 270              	Delay_PWM_ReadCounter:
 271              	.LFB5:
 402:.\Generated_Source\PSoC5/Delay_PWM.c **** 
 403:.\Generated_Source\PSoC5/Delay_PWM.c **** 
 404:.\Generated_Source\PSoC5/Delay_PWM.c ****     /*******************************************************************************
 405:.\Generated_Source\PSoC5/Delay_PWM.c ****     * Function Name: Delay_PWM_ReadCounter
 406:.\Generated_Source\PSoC5/Delay_PWM.c ****     ********************************************************************************
 407:.\Generated_Source\PSoC5/Delay_PWM.c ****     * 
 408:.\Generated_Source\PSoC5/Delay_PWM.c ****     * Summary:
 409:.\Generated_Source\PSoC5/Delay_PWM.c ****     *  This function returns the current value of the counter.  It doesn't matter
 410:.\Generated_Source\PSoC5/Delay_PWM.c ****     *  if the counter is enabled or running.
 411:.\Generated_Source\PSoC5/Delay_PWM.c ****     *
 412:.\Generated_Source\PSoC5/Delay_PWM.c ****     * Parameters:  
 413:.\Generated_Source\PSoC5/Delay_PWM.c ****     *  None  
ARM GAS  C:\Users\SCOTTC~1\AppData\Local\Temp\ccbnr13E.s 			page 13


 414:.\Generated_Source\PSoC5/Delay_PWM.c ****     *
 415:.\Generated_Source\PSoC5/Delay_PWM.c ****     * Return: 
 416:.\Generated_Source\PSoC5/Delay_PWM.c ****     *  The current value of the counter.
 417:.\Generated_Source\PSoC5/Delay_PWM.c ****     *
 418:.\Generated_Source\PSoC5/Delay_PWM.c ****     *******************************************************************************/
 419:.\Generated_Source\PSoC5/Delay_PWM.c ****     uint8 Delay_PWM_ReadCounter(void) 
 420:.\Generated_Source\PSoC5/Delay_PWM.c ****     {
 272              		.loc 1 420 0
 273              		.cfi_startproc
 274              		@ args = 0, pretend = 0, frame = 0
 275              		@ frame_needed = 1, uses_anonymous_args = 0
 276              		@ link register save eliminated.
 277 0000 80B4     		push	{r7}
 278              		.cfi_def_cfa_offset 4
 279              		.cfi_offset 7, -4
 280 0002 00AF     		add	r7, sp, #0
 281              		.cfi_def_cfa_register 7
 421:.\Generated_Source\PSoC5/Delay_PWM.c ****         /* Force capture by reading Accumulator */
 422:.\Generated_Source\PSoC5/Delay_PWM.c ****         /* Must first do a software capture to be able to read the counter */
 423:.\Generated_Source\PSoC5/Delay_PWM.c ****         /* It is up to the user code to make sure there isn't already captured data in the FIFO */
 424:.\Generated_Source\PSoC5/Delay_PWM.c ****         (void)Delay_PWM_COUNTERCAP_LSB;
 282              		.loc 1 424 0
 283 0004 044B     		ldr	r3, .L19
 284 0006 1B78     		ldrb	r3, [r3]
 425:.\Generated_Source\PSoC5/Delay_PWM.c ****         
 426:.\Generated_Source\PSoC5/Delay_PWM.c ****         /* Read the data from the FIFO (or capture register for Fixed Function)*/
 427:.\Generated_Source\PSoC5/Delay_PWM.c ****         return (CY_GET_REG8(Delay_PWM_CAPTURE_LSB_PTR));
 285              		.loc 1 427 0
 286 0008 044B     		ldr	r3, .L19+4
 287 000a 1B78     		ldrb	r3, [r3]
 288 000c DBB2     		uxtb	r3, r3
 428:.\Generated_Source\PSoC5/Delay_PWM.c ****     }
 289              		.loc 1 428 0
 290 000e 1846     		mov	r0, r3
 291 0010 BD46     		mov	sp, r7
 292              		@ sp needed
 293 0012 5DF8047B 		ldr	r7, [sp], #4
 294 0016 7047     		bx	lr
 295              	.L20:
 296              		.align	2
 297              	.L19:
 298 0018 17650040 		.word	1073767703
 299 001c 57650040 		.word	1073767767
 300              		.cfi_endproc
 301              	.LFE5:
 302              		.size	Delay_PWM_ReadCounter, .-Delay_PWM_ReadCounter
 303              		.section	.text.Delay_PWM_ClearFIFO,"ax",%progbits
 304              		.align	2
 305              		.global	Delay_PWM_ClearFIFO
 306              		.thumb
 307              		.thumb_func
 308              		.type	Delay_PWM_ClearFIFO, %function
 309              	Delay_PWM_ClearFIFO:
 310              	.LFB6:
 429:.\Generated_Source\PSoC5/Delay_PWM.c **** 
 430:.\Generated_Source\PSoC5/Delay_PWM.c ****         #if (Delay_PWM_UseStatus)
 431:.\Generated_Source\PSoC5/Delay_PWM.c **** 
ARM GAS  C:\Users\SCOTTC~1\AppData\Local\Temp\ccbnr13E.s 			page 14


 432:.\Generated_Source\PSoC5/Delay_PWM.c **** 
 433:.\Generated_Source\PSoC5/Delay_PWM.c ****             /*******************************************************************************
 434:.\Generated_Source\PSoC5/Delay_PWM.c ****             * Function Name: Delay_PWM_ClearFIFO
 435:.\Generated_Source\PSoC5/Delay_PWM.c ****             ********************************************************************************
 436:.\Generated_Source\PSoC5/Delay_PWM.c ****             * 
 437:.\Generated_Source\PSoC5/Delay_PWM.c ****             * Summary:
 438:.\Generated_Source\PSoC5/Delay_PWM.c ****             *  This function clears all capture data from the capture FIFO
 439:.\Generated_Source\PSoC5/Delay_PWM.c ****             *
 440:.\Generated_Source\PSoC5/Delay_PWM.c ****             * Parameters:  
 441:.\Generated_Source\PSoC5/Delay_PWM.c ****             *  None
 442:.\Generated_Source\PSoC5/Delay_PWM.c ****             *
 443:.\Generated_Source\PSoC5/Delay_PWM.c ****             * Return: 
 444:.\Generated_Source\PSoC5/Delay_PWM.c ****             *  None
 445:.\Generated_Source\PSoC5/Delay_PWM.c ****             *
 446:.\Generated_Source\PSoC5/Delay_PWM.c ****             *******************************************************************************/
 447:.\Generated_Source\PSoC5/Delay_PWM.c ****             void Delay_PWM_ClearFIFO(void) 
 448:.\Generated_Source\PSoC5/Delay_PWM.c ****             {
 311              		.loc 1 448 0
 312              		.cfi_startproc
 313              		@ args = 0, pretend = 0, frame = 0
 314              		@ frame_needed = 1, uses_anonymous_args = 0
 315 0000 80B5     		push	{r7, lr}
 316              		.cfi_def_cfa_offset 8
 317              		.cfi_offset 7, -8
 318              		.cfi_offset 14, -4
 319 0002 00AF     		add	r7, sp, #0
 320              		.cfi_def_cfa_register 7
 449:.\Generated_Source\PSoC5/Delay_PWM.c ****                 while(0u != (Delay_PWM_ReadStatusRegister() & Delay_PWM_STATUS_FIFONEMPTY))
 321              		.loc 1 449 0
 322 0004 01E0     		b	.L22
 323              	.L23:
 450:.\Generated_Source\PSoC5/Delay_PWM.c ****                 {
 451:.\Generated_Source\PSoC5/Delay_PWM.c ****                     (void)Delay_PWM_ReadCapture();
 324              		.loc 1 451 0
 325 0006 FFF7FEFF 		bl	Delay_PWM_ReadCapture
 326              	.L22:
 449:.\Generated_Source\PSoC5/Delay_PWM.c ****                 while(0u != (Delay_PWM_ReadStatusRegister() & Delay_PWM_STATUS_FIFONEMPTY))
 327              		.loc 1 449 0 discriminator 1
 328 000a FFF7FEFF 		bl	Delay_PWM_ReadStatusRegister
 329 000e 0346     		mov	r3, r0
 330 0010 03F01003 		and	r3, r3, #16
 331 0014 002B     		cmp	r3, #0
 332 0016 F6D1     		bne	.L23
 452:.\Generated_Source\PSoC5/Delay_PWM.c ****                 }
 453:.\Generated_Source\PSoC5/Delay_PWM.c ****             }
 333              		.loc 1 453 0
 334 0018 80BD     		pop	{r7, pc}
 335              		.cfi_endproc
 336              	.LFE6:
 337              		.size	Delay_PWM_ClearFIFO, .-Delay_PWM_ClearFIFO
 338 001a 00BF     		.section	.text.Delay_PWM_WritePeriod,"ax",%progbits
 339              		.align	2
 340              		.global	Delay_PWM_WritePeriod
 341              		.thumb
 342              		.thumb_func
 343              		.type	Delay_PWM_WritePeriod, %function
 344              	Delay_PWM_WritePeriod:
ARM GAS  C:\Users\SCOTTC~1\AppData\Local\Temp\ccbnr13E.s 			page 15


 345              	.LFB7:
 454:.\Generated_Source\PSoC5/Delay_PWM.c **** 
 455:.\Generated_Source\PSoC5/Delay_PWM.c ****         #endif /* Delay_PWM_UseStatus */
 456:.\Generated_Source\PSoC5/Delay_PWM.c **** 
 457:.\Generated_Source\PSoC5/Delay_PWM.c **** #endif /* !Delay_PWM_UsingFixedFunction */
 458:.\Generated_Source\PSoC5/Delay_PWM.c **** 
 459:.\Generated_Source\PSoC5/Delay_PWM.c **** 
 460:.\Generated_Source\PSoC5/Delay_PWM.c **** /*******************************************************************************
 461:.\Generated_Source\PSoC5/Delay_PWM.c **** * Function Name: Delay_PWM_WritePeriod
 462:.\Generated_Source\PSoC5/Delay_PWM.c **** ********************************************************************************
 463:.\Generated_Source\PSoC5/Delay_PWM.c **** * 
 464:.\Generated_Source\PSoC5/Delay_PWM.c **** * Summary:
 465:.\Generated_Source\PSoC5/Delay_PWM.c **** *  This function is used to change the period of the counter.  The new period 
 466:.\Generated_Source\PSoC5/Delay_PWM.c **** *  will be loaded the next time terminal count is detected.
 467:.\Generated_Source\PSoC5/Delay_PWM.c **** *
 468:.\Generated_Source\PSoC5/Delay_PWM.c **** * Parameters:  
 469:.\Generated_Source\PSoC5/Delay_PWM.c **** *  period:  Period value. May be between 1 and (2^Resolution)-1.  A value of 0 
 470:.\Generated_Source\PSoC5/Delay_PWM.c **** *           will result in the counter remaining at zero.
 471:.\Generated_Source\PSoC5/Delay_PWM.c **** *
 472:.\Generated_Source\PSoC5/Delay_PWM.c **** * Return: 
 473:.\Generated_Source\PSoC5/Delay_PWM.c **** *  None
 474:.\Generated_Source\PSoC5/Delay_PWM.c **** *
 475:.\Generated_Source\PSoC5/Delay_PWM.c **** *******************************************************************************/
 476:.\Generated_Source\PSoC5/Delay_PWM.c **** void Delay_PWM_WritePeriod(uint8 period) 
 477:.\Generated_Source\PSoC5/Delay_PWM.c **** {
 346              		.loc 1 477 0
 347              		.cfi_startproc
 348              		@ args = 0, pretend = 0, frame = 8
 349              		@ frame_needed = 1, uses_anonymous_args = 0
 350              		@ link register save eliminated.
 351 0000 80B4     		push	{r7}
 352              		.cfi_def_cfa_offset 4
 353              		.cfi_offset 7, -4
 354 0002 83B0     		sub	sp, sp, #12
 355              		.cfi_def_cfa_offset 16
 356 0004 00AF     		add	r7, sp, #0
 357              		.cfi_def_cfa_register 7
 358 0006 0346     		mov	r3, r0
 359 0008 FB71     		strb	r3, [r7, #7]
 478:.\Generated_Source\PSoC5/Delay_PWM.c ****     #if(Delay_PWM_UsingFixedFunction)
 479:.\Generated_Source\PSoC5/Delay_PWM.c ****         CY_SET_REG16(Delay_PWM_PERIOD_LSB_PTR, (uint16)period);
 480:.\Generated_Source\PSoC5/Delay_PWM.c ****     #else
 481:.\Generated_Source\PSoC5/Delay_PWM.c ****         CY_SET_REG8(Delay_PWM_PERIOD_LSB_PTR, period);
 360              		.loc 1 481 0
 361 000a 044B     		ldr	r3, .L25
 362 000c FA79     		ldrb	r2, [r7, #7]
 363 000e 1A70     		strb	r2, [r3]
 482:.\Generated_Source\PSoC5/Delay_PWM.c ****     #endif /* (Delay_PWM_UsingFixedFunction) */
 483:.\Generated_Source\PSoC5/Delay_PWM.c **** }
 364              		.loc 1 483 0
 365 0010 0C37     		adds	r7, r7, #12
 366 0012 BD46     		mov	sp, r7
 367              		@ sp needed
 368 0014 5DF8047B 		ldr	r7, [sp], #4
 369 0018 7047     		bx	lr
 370              	.L26:
 371 001a 00BF     		.align	2
ARM GAS  C:\Users\SCOTTC~1\AppData\Local\Temp\ccbnr13E.s 			page 16


 372              	.L25:
 373 001c 47650040 		.word	1073767751
 374              		.cfi_endproc
 375              	.LFE7:
 376              		.size	Delay_PWM_WritePeriod, .-Delay_PWM_WritePeriod
 377              		.section	.text.Delay_PWM_WriteCompare,"ax",%progbits
 378              		.align	2
 379              		.global	Delay_PWM_WriteCompare
 380              		.thumb
 381              		.thumb_func
 382              		.type	Delay_PWM_WriteCompare, %function
 383              	Delay_PWM_WriteCompare:
 384              	.LFB8:
 484:.\Generated_Source\PSoC5/Delay_PWM.c **** 
 485:.\Generated_Source\PSoC5/Delay_PWM.c **** #if (Delay_PWM_UseOneCompareMode)
 486:.\Generated_Source\PSoC5/Delay_PWM.c **** 
 487:.\Generated_Source\PSoC5/Delay_PWM.c **** 
 488:.\Generated_Source\PSoC5/Delay_PWM.c ****     /*******************************************************************************
 489:.\Generated_Source\PSoC5/Delay_PWM.c ****     * Function Name: Delay_PWM_WriteCompare
 490:.\Generated_Source\PSoC5/Delay_PWM.c ****     ********************************************************************************
 491:.\Generated_Source\PSoC5/Delay_PWM.c ****     * 
 492:.\Generated_Source\PSoC5/Delay_PWM.c ****     * Summary:
 493:.\Generated_Source\PSoC5/Delay_PWM.c ****     *  This funtion is used to change the compare1 value when the PWM is in Dither
 494:.\Generated_Source\PSoC5/Delay_PWM.c ****     *  mode. The compare output will reflect the new value on the next UDB clock. 
 495:.\Generated_Source\PSoC5/Delay_PWM.c ****     *  The compare output will be driven high when the present counter value is 
 496:.\Generated_Source\PSoC5/Delay_PWM.c ****     *  compared to the compare value based on the compare mode defined in 
 497:.\Generated_Source\PSoC5/Delay_PWM.c ****     *  Dither Mode.
 498:.\Generated_Source\PSoC5/Delay_PWM.c ****     *
 499:.\Generated_Source\PSoC5/Delay_PWM.c ****     * Parameters:  
 500:.\Generated_Source\PSoC5/Delay_PWM.c ****     *  compare:  New compare value.  
 501:.\Generated_Source\PSoC5/Delay_PWM.c ****     *
 502:.\Generated_Source\PSoC5/Delay_PWM.c ****     * Return: 
 503:.\Generated_Source\PSoC5/Delay_PWM.c ****     *  None
 504:.\Generated_Source\PSoC5/Delay_PWM.c ****     *
 505:.\Generated_Source\PSoC5/Delay_PWM.c ****     * Side Effects:
 506:.\Generated_Source\PSoC5/Delay_PWM.c ****     *  This function is only available if the PWM mode parameter is set to
 507:.\Generated_Source\PSoC5/Delay_PWM.c ****     *  Dither Mode, Center Aligned Mode or One Output Mode
 508:.\Generated_Source\PSoC5/Delay_PWM.c ****     *
 509:.\Generated_Source\PSoC5/Delay_PWM.c ****     *******************************************************************************/
 510:.\Generated_Source\PSoC5/Delay_PWM.c ****     void Delay_PWM_WriteCompare(uint8 compare) \
 511:.\Generated_Source\PSoC5/Delay_PWM.c ****                                        
 512:.\Generated_Source\PSoC5/Delay_PWM.c ****     {	
 385              		.loc 1 512 0
 386              		.cfi_startproc
 387              		@ args = 0, pretend = 0, frame = 8
 388              		@ frame_needed = 1, uses_anonymous_args = 0
 389              		@ link register save eliminated.
 390 0000 80B4     		push	{r7}
 391              		.cfi_def_cfa_offset 4
 392              		.cfi_offset 7, -4
 393 0002 83B0     		sub	sp, sp, #12
 394              		.cfi_def_cfa_offset 16
 395 0004 00AF     		add	r7, sp, #0
 396              		.cfi_def_cfa_register 7
 397 0006 0346     		mov	r3, r0
 398 0008 FB71     		strb	r3, [r7, #7]
 513:.\Generated_Source\PSoC5/Delay_PWM.c **** 		#if(Delay_PWM_UsingFixedFunction)
ARM GAS  C:\Users\SCOTTC~1\AppData\Local\Temp\ccbnr13E.s 			page 17


 514:.\Generated_Source\PSoC5/Delay_PWM.c **** 			CY_SET_REG16(Delay_PWM_COMPARE1_LSB_PTR, (uint16)compare);
 515:.\Generated_Source\PSoC5/Delay_PWM.c **** 		#else
 516:.\Generated_Source\PSoC5/Delay_PWM.c **** 	        CY_SET_REG8(Delay_PWM_COMPARE1_LSB_PTR, compare);	
 399              		.loc 1 516 0
 400 000a 044B     		ldr	r3, .L28
 401 000c FA79     		ldrb	r2, [r7, #7]
 402 000e 1A70     		strb	r2, [r3]
 517:.\Generated_Source\PSoC5/Delay_PWM.c **** 		#endif /* (Delay_PWM_UsingFixedFunction) */
 518:.\Generated_Source\PSoC5/Delay_PWM.c ****         
 519:.\Generated_Source\PSoC5/Delay_PWM.c ****         #if (Delay_PWM_PWMMode == Delay_PWM__B_PWM__DITHER)
 520:.\Generated_Source\PSoC5/Delay_PWM.c ****             #if(Delay_PWM_UsingFixedFunction)
 521:.\Generated_Source\PSoC5/Delay_PWM.c ****     			CY_SET_REG16(Delay_PWM_COMPARE2_LSB_PTR, (uint16)(compare + 1u));
 522:.\Generated_Source\PSoC5/Delay_PWM.c ****     		#else
 523:.\Generated_Source\PSoC5/Delay_PWM.c ****     	        CY_SET_REG8(Delay_PWM_COMPARE2_LSB_PTR, (compare + 1u));	
 524:.\Generated_Source\PSoC5/Delay_PWM.c ****     		#endif /* (Delay_PWM_UsingFixedFunction) */
 525:.\Generated_Source\PSoC5/Delay_PWM.c ****         #endif /* (Delay_PWM_PWMMode == Delay_PWM__B_PWM__DITHER) */
 526:.\Generated_Source\PSoC5/Delay_PWM.c ****     }
 403              		.loc 1 526 0
 404 0010 0C37     		adds	r7, r7, #12
 405 0012 BD46     		mov	sp, r7
 406              		@ sp needed
 407 0014 5DF8047B 		ldr	r7, [sp], #4
 408 0018 7047     		bx	lr
 409              	.L29:
 410 001a 00BF     		.align	2
 411              	.L28:
 412 001c 27650040 		.word	1073767719
 413              		.cfi_endproc
 414              	.LFE8:
 415              		.size	Delay_PWM_WriteCompare, .-Delay_PWM_WriteCompare
 416              		.section	.text.Delay_PWM_SetInterruptMode,"ax",%progbits
 417              		.align	2
 418              		.global	Delay_PWM_SetInterruptMode
 419              		.thumb
 420              		.thumb_func
 421              		.type	Delay_PWM_SetInterruptMode, %function
 422              	Delay_PWM_SetInterruptMode:
 423              	.LFB9:
 527:.\Generated_Source\PSoC5/Delay_PWM.c **** 
 528:.\Generated_Source\PSoC5/Delay_PWM.c **** 
 529:.\Generated_Source\PSoC5/Delay_PWM.c **** #else
 530:.\Generated_Source\PSoC5/Delay_PWM.c **** 
 531:.\Generated_Source\PSoC5/Delay_PWM.c **** 
 532:.\Generated_Source\PSoC5/Delay_PWM.c ****     /*******************************************************************************
 533:.\Generated_Source\PSoC5/Delay_PWM.c ****     * Function Name: Delay_PWM_WriteCompare1
 534:.\Generated_Source\PSoC5/Delay_PWM.c ****     ********************************************************************************
 535:.\Generated_Source\PSoC5/Delay_PWM.c ****     * 
 536:.\Generated_Source\PSoC5/Delay_PWM.c ****     * Summary:
 537:.\Generated_Source\PSoC5/Delay_PWM.c ****     *  This funtion is used to change the compare1 value.  The compare output will 
 538:.\Generated_Source\PSoC5/Delay_PWM.c ****     *  reflect the new value on the next UDB clock.  The compare output will be 
 539:.\Generated_Source\PSoC5/Delay_PWM.c ****     *  driven high when the present counter value is less than or less than or 
 540:.\Generated_Source\PSoC5/Delay_PWM.c ****     *  equal to the compare register, depending on the mode.
 541:.\Generated_Source\PSoC5/Delay_PWM.c ****     *
 542:.\Generated_Source\PSoC5/Delay_PWM.c ****     * Parameters:  
 543:.\Generated_Source\PSoC5/Delay_PWM.c ****     *  compare:  New compare value.  
 544:.\Generated_Source\PSoC5/Delay_PWM.c ****     *
 545:.\Generated_Source\PSoC5/Delay_PWM.c ****     * Return: 
ARM GAS  C:\Users\SCOTTC~1\AppData\Local\Temp\ccbnr13E.s 			page 18


 546:.\Generated_Source\PSoC5/Delay_PWM.c ****     *  None
 547:.\Generated_Source\PSoC5/Delay_PWM.c ****     *
 548:.\Generated_Source\PSoC5/Delay_PWM.c ****     *******************************************************************************/
 549:.\Generated_Source\PSoC5/Delay_PWM.c ****     void Delay_PWM_WriteCompare1(uint8 compare) \
 550:.\Generated_Source\PSoC5/Delay_PWM.c ****                                         
 551:.\Generated_Source\PSoC5/Delay_PWM.c ****     {
 552:.\Generated_Source\PSoC5/Delay_PWM.c ****         #if(Delay_PWM_UsingFixedFunction)
 553:.\Generated_Source\PSoC5/Delay_PWM.c ****             CY_SET_REG16(Delay_PWM_COMPARE1_LSB_PTR, (uint16)compare);
 554:.\Generated_Source\PSoC5/Delay_PWM.c ****         #else
 555:.\Generated_Source\PSoC5/Delay_PWM.c ****             CY_SET_REG8(Delay_PWM_COMPARE1_LSB_PTR, compare);
 556:.\Generated_Source\PSoC5/Delay_PWM.c ****         #endif /* (Delay_PWM_UsingFixedFunction) */
 557:.\Generated_Source\PSoC5/Delay_PWM.c ****     }
 558:.\Generated_Source\PSoC5/Delay_PWM.c **** 
 559:.\Generated_Source\PSoC5/Delay_PWM.c **** 
 560:.\Generated_Source\PSoC5/Delay_PWM.c ****     /*******************************************************************************
 561:.\Generated_Source\PSoC5/Delay_PWM.c ****     * Function Name: Delay_PWM_WriteCompare2
 562:.\Generated_Source\PSoC5/Delay_PWM.c ****     ********************************************************************************
 563:.\Generated_Source\PSoC5/Delay_PWM.c ****     * 
 564:.\Generated_Source\PSoC5/Delay_PWM.c ****     * Summary:
 565:.\Generated_Source\PSoC5/Delay_PWM.c ****     *  This funtion is used to change the compare value, for compare1 output.  
 566:.\Generated_Source\PSoC5/Delay_PWM.c ****     *  The compare output will reflect the new value on the next UDB clock.  
 567:.\Generated_Source\PSoC5/Delay_PWM.c ****     *  The compare output will be driven high when the present counter value is 
 568:.\Generated_Source\PSoC5/Delay_PWM.c ****     *  less than or less than or equal to the compare register, depending on the 
 569:.\Generated_Source\PSoC5/Delay_PWM.c ****     *  mode.
 570:.\Generated_Source\PSoC5/Delay_PWM.c ****     *
 571:.\Generated_Source\PSoC5/Delay_PWM.c ****     * Parameters:  
 572:.\Generated_Source\PSoC5/Delay_PWM.c ****     *  compare:  New compare value.  
 573:.\Generated_Source\PSoC5/Delay_PWM.c ****     *
 574:.\Generated_Source\PSoC5/Delay_PWM.c ****     * Return: 
 575:.\Generated_Source\PSoC5/Delay_PWM.c ****     *  None
 576:.\Generated_Source\PSoC5/Delay_PWM.c ****     *
 577:.\Generated_Source\PSoC5/Delay_PWM.c ****     *******************************************************************************/
 578:.\Generated_Source\PSoC5/Delay_PWM.c ****     void Delay_PWM_WriteCompare2(uint8 compare) \
 579:.\Generated_Source\PSoC5/Delay_PWM.c ****                                         
 580:.\Generated_Source\PSoC5/Delay_PWM.c ****     {
 581:.\Generated_Source\PSoC5/Delay_PWM.c ****         #if(Delay_PWM_UsingFixedFunction)
 582:.\Generated_Source\PSoC5/Delay_PWM.c ****             CY_SET_REG16(Delay_PWM_COMPARE2_LSB_PTR, compare);
 583:.\Generated_Source\PSoC5/Delay_PWM.c ****         #else
 584:.\Generated_Source\PSoC5/Delay_PWM.c ****             CY_SET_REG8(Delay_PWM_COMPARE2_LSB_PTR, compare);
 585:.\Generated_Source\PSoC5/Delay_PWM.c ****         #endif /* (Delay_PWM_UsingFixedFunction) */
 586:.\Generated_Source\PSoC5/Delay_PWM.c ****     }
 587:.\Generated_Source\PSoC5/Delay_PWM.c **** #endif /* UseOneCompareMode */
 588:.\Generated_Source\PSoC5/Delay_PWM.c **** 
 589:.\Generated_Source\PSoC5/Delay_PWM.c **** #if (Delay_PWM_DeadBandUsed)
 590:.\Generated_Source\PSoC5/Delay_PWM.c **** 
 591:.\Generated_Source\PSoC5/Delay_PWM.c **** 
 592:.\Generated_Source\PSoC5/Delay_PWM.c ****     /*******************************************************************************
 593:.\Generated_Source\PSoC5/Delay_PWM.c ****     * Function Name: Delay_PWM_WriteDeadTime
 594:.\Generated_Source\PSoC5/Delay_PWM.c ****     ********************************************************************************
 595:.\Generated_Source\PSoC5/Delay_PWM.c ****     * 
 596:.\Generated_Source\PSoC5/Delay_PWM.c ****     * Summary:
 597:.\Generated_Source\PSoC5/Delay_PWM.c ****     *  This function writes the dead-band counts to the corresponding register
 598:.\Generated_Source\PSoC5/Delay_PWM.c ****     *
 599:.\Generated_Source\PSoC5/Delay_PWM.c ****     * Parameters:  
 600:.\Generated_Source\PSoC5/Delay_PWM.c ****     *  deadtime:  Number of counts for dead time 
 601:.\Generated_Source\PSoC5/Delay_PWM.c ****     *
 602:.\Generated_Source\PSoC5/Delay_PWM.c ****     * Return: 
ARM GAS  C:\Users\SCOTTC~1\AppData\Local\Temp\ccbnr13E.s 			page 19


 603:.\Generated_Source\PSoC5/Delay_PWM.c ****     *  None
 604:.\Generated_Source\PSoC5/Delay_PWM.c ****     *
 605:.\Generated_Source\PSoC5/Delay_PWM.c ****     *******************************************************************************/
 606:.\Generated_Source\PSoC5/Delay_PWM.c ****     void Delay_PWM_WriteDeadTime(uint8 deadtime) 
 607:.\Generated_Source\PSoC5/Delay_PWM.c ****     {
 608:.\Generated_Source\PSoC5/Delay_PWM.c ****         /* If using the Dead Band 1-255 mode then just write the register */
 609:.\Generated_Source\PSoC5/Delay_PWM.c ****         #if(!Delay_PWM_DeadBand2_4)
 610:.\Generated_Source\PSoC5/Delay_PWM.c ****             CY_SET_REG8(Delay_PWM_DEADBAND_COUNT_PTR, deadtime);
 611:.\Generated_Source\PSoC5/Delay_PWM.c ****         #else
 612:.\Generated_Source\PSoC5/Delay_PWM.c ****             /* Otherwise the data has to be masked and offset */        
 613:.\Generated_Source\PSoC5/Delay_PWM.c ****             /* Clear existing data */
 614:.\Generated_Source\PSoC5/Delay_PWM.c ****             Delay_PWM_DEADBAND_COUNT &= ((uint8)(~Delay_PWM_DEADBAND_COUNT_MASK));
 615:.\Generated_Source\PSoC5/Delay_PWM.c ****             
 616:.\Generated_Source\PSoC5/Delay_PWM.c ****             /* Set new dead time */
 617:.\Generated_Source\PSoC5/Delay_PWM.c ****             #if(Delay_PWM_DEADBAND_COUNT_SHIFT)        
 618:.\Generated_Source\PSoC5/Delay_PWM.c ****                 Delay_PWM_DEADBAND_COUNT |= ((uint8)((uint8)deadtime << Delay_PWM_DEADBAND_COUNT_SH
 619:.\Generated_Source\PSoC5/Delay_PWM.c ****                                                     Delay_PWM_DEADBAND_COUNT_MASK;
 620:.\Generated_Source\PSoC5/Delay_PWM.c ****             #else
 621:.\Generated_Source\PSoC5/Delay_PWM.c ****                 Delay_PWM_DEADBAND_COUNT |= deadtime & Delay_PWM_DEADBAND_COUNT_MASK;        
 622:.\Generated_Source\PSoC5/Delay_PWM.c ****             #endif /* (Delay_PWM_DEADBAND_COUNT_SHIFT) */
 623:.\Generated_Source\PSoC5/Delay_PWM.c ****         
 624:.\Generated_Source\PSoC5/Delay_PWM.c ****         #endif /* (!Delay_PWM_DeadBand2_4) */
 625:.\Generated_Source\PSoC5/Delay_PWM.c ****     }
 626:.\Generated_Source\PSoC5/Delay_PWM.c **** 
 627:.\Generated_Source\PSoC5/Delay_PWM.c **** 
 628:.\Generated_Source\PSoC5/Delay_PWM.c ****     /*******************************************************************************
 629:.\Generated_Source\PSoC5/Delay_PWM.c ****     * Function Name: Delay_PWM_ReadDeadTime
 630:.\Generated_Source\PSoC5/Delay_PWM.c ****     ********************************************************************************
 631:.\Generated_Source\PSoC5/Delay_PWM.c ****     * 
 632:.\Generated_Source\PSoC5/Delay_PWM.c ****     * Summary:
 633:.\Generated_Source\PSoC5/Delay_PWM.c ****     *  This function reads the dead-band counts from the corresponding register
 634:.\Generated_Source\PSoC5/Delay_PWM.c ****     *
 635:.\Generated_Source\PSoC5/Delay_PWM.c ****     * Parameters:  
 636:.\Generated_Source\PSoC5/Delay_PWM.c ****     *  None
 637:.\Generated_Source\PSoC5/Delay_PWM.c ****     *
 638:.\Generated_Source\PSoC5/Delay_PWM.c ****     * Return: 
 639:.\Generated_Source\PSoC5/Delay_PWM.c ****     *  Dead Band Counts
 640:.\Generated_Source\PSoC5/Delay_PWM.c ****     *
 641:.\Generated_Source\PSoC5/Delay_PWM.c ****     *******************************************************************************/
 642:.\Generated_Source\PSoC5/Delay_PWM.c ****     uint8 Delay_PWM_ReadDeadTime(void) 
 643:.\Generated_Source\PSoC5/Delay_PWM.c ****     {
 644:.\Generated_Source\PSoC5/Delay_PWM.c ****         /* If using the Dead Band 1-255 mode then just read the register */
 645:.\Generated_Source\PSoC5/Delay_PWM.c ****         #if(!Delay_PWM_DeadBand2_4)
 646:.\Generated_Source\PSoC5/Delay_PWM.c ****             return (CY_GET_REG8(Delay_PWM_DEADBAND_COUNT_PTR));
 647:.\Generated_Source\PSoC5/Delay_PWM.c ****         #else
 648:.\Generated_Source\PSoC5/Delay_PWM.c ****         
 649:.\Generated_Source\PSoC5/Delay_PWM.c ****             /* Otherwise the data has to be masked and offset */
 650:.\Generated_Source\PSoC5/Delay_PWM.c ****             #if(Delay_PWM_DEADBAND_COUNT_SHIFT)      
 651:.\Generated_Source\PSoC5/Delay_PWM.c ****                 return ((uint8)(((uint8)(Delay_PWM_DEADBAND_COUNT & Delay_PWM_DEADBAND_COUNT_MASK))
 652:.\Generated_Source\PSoC5/Delay_PWM.c ****                                                                            Delay_PWM_DEADBAND_COUNT
 653:.\Generated_Source\PSoC5/Delay_PWM.c ****             #else
 654:.\Generated_Source\PSoC5/Delay_PWM.c ****                 return (Delay_PWM_DEADBAND_COUNT & Delay_PWM_DEADBAND_COUNT_MASK);
 655:.\Generated_Source\PSoC5/Delay_PWM.c ****             #endif /* (Delay_PWM_DEADBAND_COUNT_SHIFT) */
 656:.\Generated_Source\PSoC5/Delay_PWM.c ****         #endif /* (!Delay_PWM_DeadBand2_4) */
 657:.\Generated_Source\PSoC5/Delay_PWM.c ****     }
 658:.\Generated_Source\PSoC5/Delay_PWM.c **** #endif /* DeadBandUsed */
 659:.\Generated_Source\PSoC5/Delay_PWM.c **** 
ARM GAS  C:\Users\SCOTTC~1\AppData\Local\Temp\ccbnr13E.s 			page 20


 660:.\Generated_Source\PSoC5/Delay_PWM.c **** #if (Delay_PWM_UseStatus || Delay_PWM_UsingFixedFunction)
 661:.\Generated_Source\PSoC5/Delay_PWM.c **** 
 662:.\Generated_Source\PSoC5/Delay_PWM.c **** 
 663:.\Generated_Source\PSoC5/Delay_PWM.c ****     /*******************************************************************************
 664:.\Generated_Source\PSoC5/Delay_PWM.c ****     * Function Name: Delay_PWM_SetInterruptMode
 665:.\Generated_Source\PSoC5/Delay_PWM.c ****     ********************************************************************************
 666:.\Generated_Source\PSoC5/Delay_PWM.c ****     * 
 667:.\Generated_Source\PSoC5/Delay_PWM.c ****     * Summary:
 668:.\Generated_Source\PSoC5/Delay_PWM.c ****     *  This function configures the interrupts mask control of theinterrupt 
 669:.\Generated_Source\PSoC5/Delay_PWM.c ****     *  source status register.
 670:.\Generated_Source\PSoC5/Delay_PWM.c ****     *
 671:.\Generated_Source\PSoC5/Delay_PWM.c ****     * Parameters:  
 672:.\Generated_Source\PSoC5/Delay_PWM.c ****     *  uint8 interruptMode: Bit field containing the interrupt sources enabled 
 673:.\Generated_Source\PSoC5/Delay_PWM.c ****     *
 674:.\Generated_Source\PSoC5/Delay_PWM.c ****     * Return: 
 675:.\Generated_Source\PSoC5/Delay_PWM.c ****     *  None
 676:.\Generated_Source\PSoC5/Delay_PWM.c ****     *
 677:.\Generated_Source\PSoC5/Delay_PWM.c ****     *******************************************************************************/
 678:.\Generated_Source\PSoC5/Delay_PWM.c ****     void Delay_PWM_SetInterruptMode(uint8 interruptMode)  
 679:.\Generated_Source\PSoC5/Delay_PWM.c ****     {
 424              		.loc 1 679 0
 425              		.cfi_startproc
 426              		@ args = 0, pretend = 0, frame = 8
 427              		@ frame_needed = 1, uses_anonymous_args = 0
 428              		@ link register save eliminated.
 429 0000 80B4     		push	{r7}
 430              		.cfi_def_cfa_offset 4
 431              		.cfi_offset 7, -4
 432 0002 83B0     		sub	sp, sp, #12
 433              		.cfi_def_cfa_offset 16
 434 0004 00AF     		add	r7, sp, #0
 435              		.cfi_def_cfa_register 7
 436 0006 0346     		mov	r3, r0
 437 0008 FB71     		strb	r3, [r7, #7]
 680:.\Generated_Source\PSoC5/Delay_PWM.c ****     	CY_SET_REG8(Delay_PWM_STATUS_MASK_PTR, interruptMode);
 438              		.loc 1 680 0
 439 000a 044B     		ldr	r3, .L31
 440 000c FA79     		ldrb	r2, [r7, #7]
 441 000e 1A70     		strb	r2, [r3]
 681:.\Generated_Source\PSoC5/Delay_PWM.c ****     }
 442              		.loc 1 681 0
 443 0010 0C37     		adds	r7, r7, #12
 444 0012 BD46     		mov	sp, r7
 445              		@ sp needed
 446 0014 5DF8047B 		ldr	r7, [sp], #4
 447 0018 7047     		bx	lr
 448              	.L32:
 449 001a 00BF     		.align	2
 450              	.L31:
 451 001c 87650040 		.word	1073767815
 452              		.cfi_endproc
 453              	.LFE9:
 454              		.size	Delay_PWM_SetInterruptMode, .-Delay_PWM_SetInterruptMode
 455              		.section	.text.Delay_PWM_ReadStatusRegister,"ax",%progbits
 456              		.align	2
 457              		.global	Delay_PWM_ReadStatusRegister
 458              		.thumb
ARM GAS  C:\Users\SCOTTC~1\AppData\Local\Temp\ccbnr13E.s 			page 21


 459              		.thumb_func
 460              		.type	Delay_PWM_ReadStatusRegister, %function
 461              	Delay_PWM_ReadStatusRegister:
 462              	.LFB10:
 682:.\Generated_Source\PSoC5/Delay_PWM.c **** 
 683:.\Generated_Source\PSoC5/Delay_PWM.c **** 
 684:.\Generated_Source\PSoC5/Delay_PWM.c ****     /*******************************************************************************
 685:.\Generated_Source\PSoC5/Delay_PWM.c ****     * Function Name: Delay_PWM_ReadStatusRegister
 686:.\Generated_Source\PSoC5/Delay_PWM.c ****     ********************************************************************************
 687:.\Generated_Source\PSoC5/Delay_PWM.c ****     * 
 688:.\Generated_Source\PSoC5/Delay_PWM.c ****     * Summary:
 689:.\Generated_Source\PSoC5/Delay_PWM.c ****     *  This function returns the current state of the status register. 
 690:.\Generated_Source\PSoC5/Delay_PWM.c ****     *
 691:.\Generated_Source\PSoC5/Delay_PWM.c ****     * Parameters:  
 692:.\Generated_Source\PSoC5/Delay_PWM.c ****     *  None
 693:.\Generated_Source\PSoC5/Delay_PWM.c ****     *
 694:.\Generated_Source\PSoC5/Delay_PWM.c ****     * Return: 
 695:.\Generated_Source\PSoC5/Delay_PWM.c ****     *  uint8 : Current status register value. The status register bits are:
 696:.\Generated_Source\PSoC5/Delay_PWM.c ****     *  [7:6] : Unused(0)
 697:.\Generated_Source\PSoC5/Delay_PWM.c ****     *  [5]   : Kill event output
 698:.\Generated_Source\PSoC5/Delay_PWM.c ****     *  [4]   : FIFO not empty
 699:.\Generated_Source\PSoC5/Delay_PWM.c ****     *  [3]   : FIFO full
 700:.\Generated_Source\PSoC5/Delay_PWM.c ****     *  [2]   : Terminal count
 701:.\Generated_Source\PSoC5/Delay_PWM.c ****     *  [1]   : Compare output 2
 702:.\Generated_Source\PSoC5/Delay_PWM.c ****     *  [0]   : Compare output 1
 703:.\Generated_Source\PSoC5/Delay_PWM.c ****     *
 704:.\Generated_Source\PSoC5/Delay_PWM.c ****     *******************************************************************************/
 705:.\Generated_Source\PSoC5/Delay_PWM.c ****     uint8 Delay_PWM_ReadStatusRegister(void)   
 706:.\Generated_Source\PSoC5/Delay_PWM.c ****     {
 463              		.loc 1 706 0
 464              		.cfi_startproc
 465              		@ args = 0, pretend = 0, frame = 8
 466              		@ frame_needed = 1, uses_anonymous_args = 0
 467              		@ link register save eliminated.
 468 0000 80B4     		push	{r7}
 469              		.cfi_def_cfa_offset 4
 470              		.cfi_offset 7, -4
 471 0002 83B0     		sub	sp, sp, #12
 472              		.cfi_def_cfa_offset 16
 473 0004 00AF     		add	r7, sp, #0
 474              		.cfi_def_cfa_register 7
 707:.\Generated_Source\PSoC5/Delay_PWM.c ****     	uint8 result;
 708:.\Generated_Source\PSoC5/Delay_PWM.c ****     	
 709:.\Generated_Source\PSoC5/Delay_PWM.c ****     	result = CY_GET_REG8(Delay_PWM_STATUS_PTR);
 475              		.loc 1 709 0
 476 0006 054B     		ldr	r3, .L35
 477 0008 1B78     		ldrb	r3, [r3]
 478 000a FB71     		strb	r3, [r7, #7]
 710:.\Generated_Source\PSoC5/Delay_PWM.c ****     	return (result);
 479              		.loc 1 710 0
 480 000c FB79     		ldrb	r3, [r7, #7]	@ zero_extendqisi2
 711:.\Generated_Source\PSoC5/Delay_PWM.c ****     }
 481              		.loc 1 711 0
 482 000e 1846     		mov	r0, r3
 483 0010 0C37     		adds	r7, r7, #12
 484 0012 BD46     		mov	sp, r7
 485              		@ sp needed
ARM GAS  C:\Users\SCOTTC~1\AppData\Local\Temp\ccbnr13E.s 			page 22


 486 0014 5DF8047B 		ldr	r7, [sp], #4
 487 0018 7047     		bx	lr
 488              	.L36:
 489 001a 00BF     		.align	2
 490              	.L35:
 491 001c 67650040 		.word	1073767783
 492              		.cfi_endproc
 493              	.LFE10:
 494              		.size	Delay_PWM_ReadStatusRegister, .-Delay_PWM_ReadStatusRegister
 495              		.section	.text.Delay_PWM_ReadControlRegister,"ax",%progbits
 496              		.align	2
 497              		.global	Delay_PWM_ReadControlRegister
 498              		.thumb
 499              		.thumb_func
 500              		.type	Delay_PWM_ReadControlRegister, %function
 501              	Delay_PWM_ReadControlRegister:
 502              	.LFB11:
 712:.\Generated_Source\PSoC5/Delay_PWM.c **** 
 713:.\Generated_Source\PSoC5/Delay_PWM.c **** #endif /* (Delay_PWM_UseStatus || Delay_PWM_UsingFixedFunction) */
 714:.\Generated_Source\PSoC5/Delay_PWM.c **** 
 715:.\Generated_Source\PSoC5/Delay_PWM.c **** 
 716:.\Generated_Source\PSoC5/Delay_PWM.c **** #if (Delay_PWM_UseControl)
 717:.\Generated_Source\PSoC5/Delay_PWM.c **** 
 718:.\Generated_Source\PSoC5/Delay_PWM.c **** 
 719:.\Generated_Source\PSoC5/Delay_PWM.c ****     /*******************************************************************************
 720:.\Generated_Source\PSoC5/Delay_PWM.c ****     * Function Name: Delay_PWM_ReadControlRegister
 721:.\Generated_Source\PSoC5/Delay_PWM.c ****     ********************************************************************************
 722:.\Generated_Source\PSoC5/Delay_PWM.c ****     * 
 723:.\Generated_Source\PSoC5/Delay_PWM.c ****     * Summary:
 724:.\Generated_Source\PSoC5/Delay_PWM.c ****     *  Returns the current state of the control register. This API is available 
 725:.\Generated_Source\PSoC5/Delay_PWM.c ****     *  only if the control register is not removed.
 726:.\Generated_Source\PSoC5/Delay_PWM.c ****     *
 727:.\Generated_Source\PSoC5/Delay_PWM.c ****     * Parameters:  
 728:.\Generated_Source\PSoC5/Delay_PWM.c ****     *  None 
 729:.\Generated_Source\PSoC5/Delay_PWM.c ****     *
 730:.\Generated_Source\PSoC5/Delay_PWM.c ****     * Return: 
 731:.\Generated_Source\PSoC5/Delay_PWM.c ****     *  uint8 : Current control register value
 732:.\Generated_Source\PSoC5/Delay_PWM.c ****     *
 733:.\Generated_Source\PSoC5/Delay_PWM.c ****     *******************************************************************************/    
 734:.\Generated_Source\PSoC5/Delay_PWM.c ****     uint8 Delay_PWM_ReadControlRegister(void) 
 735:.\Generated_Source\PSoC5/Delay_PWM.c ****     {
 503              		.loc 1 735 0
 504              		.cfi_startproc
 505              		@ args = 0, pretend = 0, frame = 8
 506              		@ frame_needed = 1, uses_anonymous_args = 0
 507              		@ link register save eliminated.
 508 0000 80B4     		push	{r7}
 509              		.cfi_def_cfa_offset 4
 510              		.cfi_offset 7, -4
 511 0002 83B0     		sub	sp, sp, #12
 512              		.cfi_def_cfa_offset 16
 513 0004 00AF     		add	r7, sp, #0
 514              		.cfi_def_cfa_register 7
 736:.\Generated_Source\PSoC5/Delay_PWM.c ****     	uint8 result;
 737:.\Generated_Source\PSoC5/Delay_PWM.c ****     	
 738:.\Generated_Source\PSoC5/Delay_PWM.c ****     	result = CY_GET_REG8(Delay_PWM_CONTROL_PTR);
 515              		.loc 1 738 0
ARM GAS  C:\Users\SCOTTC~1\AppData\Local\Temp\ccbnr13E.s 			page 23


 516 0006 054B     		ldr	r3, .L39
 517 0008 1B78     		ldrb	r3, [r3]
 518 000a FB71     		strb	r3, [r7, #7]
 739:.\Generated_Source\PSoC5/Delay_PWM.c ****     	return (result);
 519              		.loc 1 739 0
 520 000c FB79     		ldrb	r3, [r7, #7]	@ zero_extendqisi2
 740:.\Generated_Source\PSoC5/Delay_PWM.c ****     }
 521              		.loc 1 740 0
 522 000e 1846     		mov	r0, r3
 523 0010 0C37     		adds	r7, r7, #12
 524 0012 BD46     		mov	sp, r7
 525              		@ sp needed
 526 0014 5DF8047B 		ldr	r7, [sp], #4
 527 0018 7047     		bx	lr
 528              	.L40:
 529 001a 00BF     		.align	2
 530              	.L39:
 531 001c 77650040 		.word	1073767799
 532              		.cfi_endproc
 533              	.LFE11:
 534              		.size	Delay_PWM_ReadControlRegister, .-Delay_PWM_ReadControlRegister
 535              		.section	.text.Delay_PWM_WriteControlRegister,"ax",%progbits
 536              		.align	2
 537              		.global	Delay_PWM_WriteControlRegister
 538              		.thumb
 539              		.thumb_func
 540              		.type	Delay_PWM_WriteControlRegister, %function
 541              	Delay_PWM_WriteControlRegister:
 542              	.LFB12:
 741:.\Generated_Source\PSoC5/Delay_PWM.c **** 
 742:.\Generated_Source\PSoC5/Delay_PWM.c **** 
 743:.\Generated_Source\PSoC5/Delay_PWM.c ****     /*******************************************************************************
 744:.\Generated_Source\PSoC5/Delay_PWM.c ****     * Function Name: Delay_PWM_WriteControlRegister
 745:.\Generated_Source\PSoC5/Delay_PWM.c ****     ********************************************************************************
 746:.\Generated_Source\PSoC5/Delay_PWM.c ****     * 
 747:.\Generated_Source\PSoC5/Delay_PWM.c ****     * Summary:
 748:.\Generated_Source\PSoC5/Delay_PWM.c ****     *  Sets the bit field of the control register. This API is available only if 
 749:.\Generated_Source\PSoC5/Delay_PWM.c ****     *  the control register is not removed.
 750:.\Generated_Source\PSoC5/Delay_PWM.c ****     *
 751:.\Generated_Source\PSoC5/Delay_PWM.c ****     * Parameters:  
 752:.\Generated_Source\PSoC5/Delay_PWM.c ****     *  uint8 control: Control register bit field, The status register bits are:
 753:.\Generated_Source\PSoC5/Delay_PWM.c ****     *  [7]   : PWM Enable
 754:.\Generated_Source\PSoC5/Delay_PWM.c ****     *  [6]   : Reset
 755:.\Generated_Source\PSoC5/Delay_PWM.c ****     *  [5:3] : Compare Mode2
 756:.\Generated_Source\PSoC5/Delay_PWM.c ****     *  [2:0] : Compare Mode2
 757:.\Generated_Source\PSoC5/Delay_PWM.c ****     *
 758:.\Generated_Source\PSoC5/Delay_PWM.c ****     * Return: 
 759:.\Generated_Source\PSoC5/Delay_PWM.c ****     *  None
 760:.\Generated_Source\PSoC5/Delay_PWM.c ****     *
 761:.\Generated_Source\PSoC5/Delay_PWM.c ****     *******************************************************************************/  
 762:.\Generated_Source\PSoC5/Delay_PWM.c ****     void Delay_PWM_WriteControlRegister(uint8 control) 
 763:.\Generated_Source\PSoC5/Delay_PWM.c ****     {
 543              		.loc 1 763 0
 544              		.cfi_startproc
 545              		@ args = 0, pretend = 0, frame = 8
 546              		@ frame_needed = 1, uses_anonymous_args = 0
 547              		@ link register save eliminated.
ARM GAS  C:\Users\SCOTTC~1\AppData\Local\Temp\ccbnr13E.s 			page 24


 548 0000 80B4     		push	{r7}
 549              		.cfi_def_cfa_offset 4
 550              		.cfi_offset 7, -4
 551 0002 83B0     		sub	sp, sp, #12
 552              		.cfi_def_cfa_offset 16
 553 0004 00AF     		add	r7, sp, #0
 554              		.cfi_def_cfa_register 7
 555 0006 0346     		mov	r3, r0
 556 0008 FB71     		strb	r3, [r7, #7]
 764:.\Generated_Source\PSoC5/Delay_PWM.c ****     	CY_SET_REG8(Delay_PWM_CONTROL_PTR, control);
 557              		.loc 1 764 0
 558 000a 044B     		ldr	r3, .L42
 559 000c FA79     		ldrb	r2, [r7, #7]
 560 000e 1A70     		strb	r2, [r3]
 765:.\Generated_Source\PSoC5/Delay_PWM.c ****     }
 561              		.loc 1 765 0
 562 0010 0C37     		adds	r7, r7, #12
 563 0012 BD46     		mov	sp, r7
 564              		@ sp needed
 565 0014 5DF8047B 		ldr	r7, [sp], #4
 566 0018 7047     		bx	lr
 567              	.L43:
 568 001a 00BF     		.align	2
 569              	.L42:
 570 001c 77650040 		.word	1073767799
 571              		.cfi_endproc
 572              	.LFE12:
 573              		.size	Delay_PWM_WriteControlRegister, .-Delay_PWM_WriteControlRegister
 574              		.section	.text.Delay_PWM_ReadCapture,"ax",%progbits
 575              		.align	2
 576              		.global	Delay_PWM_ReadCapture
 577              		.thumb
 578              		.thumb_func
 579              		.type	Delay_PWM_ReadCapture, %function
 580              	Delay_PWM_ReadCapture:
 581              	.LFB13:
 766:.\Generated_Source\PSoC5/Delay_PWM.c **** 	
 767:.\Generated_Source\PSoC5/Delay_PWM.c **** #endif /* (Delay_PWM_UseControl) */
 768:.\Generated_Source\PSoC5/Delay_PWM.c **** 
 769:.\Generated_Source\PSoC5/Delay_PWM.c **** 
 770:.\Generated_Source\PSoC5/Delay_PWM.c **** #if (!Delay_PWM_UsingFixedFunction)
 771:.\Generated_Source\PSoC5/Delay_PWM.c **** 
 772:.\Generated_Source\PSoC5/Delay_PWM.c **** 
 773:.\Generated_Source\PSoC5/Delay_PWM.c ****     /*******************************************************************************
 774:.\Generated_Source\PSoC5/Delay_PWM.c ****     * Function Name: Delay_PWM_ReadCapture
 775:.\Generated_Source\PSoC5/Delay_PWM.c ****     ********************************************************************************
 776:.\Generated_Source\PSoC5/Delay_PWM.c ****     * 
 777:.\Generated_Source\PSoC5/Delay_PWM.c ****     * Summary:
 778:.\Generated_Source\PSoC5/Delay_PWM.c ****     *  Reads the capture value from the capture FIFO.
 779:.\Generated_Source\PSoC5/Delay_PWM.c ****     *
 780:.\Generated_Source\PSoC5/Delay_PWM.c ****     * Parameters:  
 781:.\Generated_Source\PSoC5/Delay_PWM.c ****     *  None
 782:.\Generated_Source\PSoC5/Delay_PWM.c ****     *
 783:.\Generated_Source\PSoC5/Delay_PWM.c ****     * Return: 
 784:.\Generated_Source\PSoC5/Delay_PWM.c ****     *  uint8/uint16: The current capture value
 785:.\Generated_Source\PSoC5/Delay_PWM.c ****     *
 786:.\Generated_Source\PSoC5/Delay_PWM.c ****     *******************************************************************************/  
ARM GAS  C:\Users\SCOTTC~1\AppData\Local\Temp\ccbnr13E.s 			page 25


 787:.\Generated_Source\PSoC5/Delay_PWM.c ****     uint8 Delay_PWM_ReadCapture(void)  
 788:.\Generated_Source\PSoC5/Delay_PWM.c ****     {
 582              		.loc 1 788 0
 583              		.cfi_startproc
 584              		@ args = 0, pretend = 0, frame = 0
 585              		@ frame_needed = 1, uses_anonymous_args = 0
 586              		@ link register save eliminated.
 587 0000 80B4     		push	{r7}
 588              		.cfi_def_cfa_offset 4
 589              		.cfi_offset 7, -4
 590 0002 00AF     		add	r7, sp, #0
 591              		.cfi_def_cfa_register 7
 789:.\Generated_Source\PSoC5/Delay_PWM.c ****     	return (CY_GET_REG8(Delay_PWM_CAPTURE_LSB_PTR));
 592              		.loc 1 789 0
 593 0004 034B     		ldr	r3, .L46
 594 0006 1B78     		ldrb	r3, [r3]
 595 0008 DBB2     		uxtb	r3, r3
 790:.\Generated_Source\PSoC5/Delay_PWM.c ****     }
 596              		.loc 1 790 0
 597 000a 1846     		mov	r0, r3
 598 000c BD46     		mov	sp, r7
 599              		@ sp needed
 600 000e 5DF8047B 		ldr	r7, [sp], #4
 601 0012 7047     		bx	lr
 602              	.L47:
 603              		.align	2
 604              	.L46:
 605 0014 57650040 		.word	1073767767
 606              		.cfi_endproc
 607              	.LFE13:
 608              		.size	Delay_PWM_ReadCapture, .-Delay_PWM_ReadCapture
 609              		.section	.text.Delay_PWM_ReadCompare,"ax",%progbits
 610              		.align	2
 611              		.global	Delay_PWM_ReadCompare
 612              		.thumb
 613              		.thumb_func
 614              		.type	Delay_PWM_ReadCompare, %function
 615              	Delay_PWM_ReadCompare:
 616              	.LFB14:
 791:.\Generated_Source\PSoC5/Delay_PWM.c **** 	
 792:.\Generated_Source\PSoC5/Delay_PWM.c **** #endif /* (!Delay_PWM_UsingFixedFunction) */
 793:.\Generated_Source\PSoC5/Delay_PWM.c **** 
 794:.\Generated_Source\PSoC5/Delay_PWM.c **** 
 795:.\Generated_Source\PSoC5/Delay_PWM.c **** #if (Delay_PWM_UseOneCompareMode)
 796:.\Generated_Source\PSoC5/Delay_PWM.c **** 
 797:.\Generated_Source\PSoC5/Delay_PWM.c **** 
 798:.\Generated_Source\PSoC5/Delay_PWM.c ****     /*******************************************************************************
 799:.\Generated_Source\PSoC5/Delay_PWM.c ****     * Function Name: Delay_PWM_ReadCompare
 800:.\Generated_Source\PSoC5/Delay_PWM.c ****     ********************************************************************************
 801:.\Generated_Source\PSoC5/Delay_PWM.c ****     * 
 802:.\Generated_Source\PSoC5/Delay_PWM.c ****     * Summary:
 803:.\Generated_Source\PSoC5/Delay_PWM.c ****     *  Reads the compare value for the compare output when the PWM Mode parameter is 
 804:.\Generated_Source\PSoC5/Delay_PWM.c ****     *  set to Dither mode, Center Aligned mode, or One Output mode.
 805:.\Generated_Source\PSoC5/Delay_PWM.c ****     *
 806:.\Generated_Source\PSoC5/Delay_PWM.c ****     * Parameters:  
 807:.\Generated_Source\PSoC5/Delay_PWM.c ****     *  None
 808:.\Generated_Source\PSoC5/Delay_PWM.c ****     *
ARM GAS  C:\Users\SCOTTC~1\AppData\Local\Temp\ccbnr13E.s 			page 26


 809:.\Generated_Source\PSoC5/Delay_PWM.c ****     * Return: 
 810:.\Generated_Source\PSoC5/Delay_PWM.c ****     *  uint8/uint16: Current compare value
 811:.\Generated_Source\PSoC5/Delay_PWM.c ****     *
 812:.\Generated_Source\PSoC5/Delay_PWM.c ****     *******************************************************************************/  
 813:.\Generated_Source\PSoC5/Delay_PWM.c ****     uint8 Delay_PWM_ReadCompare(void)  
 814:.\Generated_Source\PSoC5/Delay_PWM.c ****     {
 617              		.loc 1 814 0
 618              		.cfi_startproc
 619              		@ args = 0, pretend = 0, frame = 0
 620              		@ frame_needed = 1, uses_anonymous_args = 0
 621              		@ link register save eliminated.
 622 0000 80B4     		push	{r7}
 623              		.cfi_def_cfa_offset 4
 624              		.cfi_offset 7, -4
 625 0002 00AF     		add	r7, sp, #0
 626              		.cfi_def_cfa_register 7
 815:.\Generated_Source\PSoC5/Delay_PWM.c **** 		#if(Delay_PWM_UsingFixedFunction)
 816:.\Generated_Source\PSoC5/Delay_PWM.c ****             return ((uint8)CY_GET_REG16(Delay_PWM_COMPARE1_LSB_PTR));
 817:.\Generated_Source\PSoC5/Delay_PWM.c ****         #else
 818:.\Generated_Source\PSoC5/Delay_PWM.c ****             return (CY_GET_REG8(Delay_PWM_COMPARE1_LSB_PTR));
 627              		.loc 1 818 0
 628 0004 034B     		ldr	r3, .L50
 629 0006 1B78     		ldrb	r3, [r3]
 630 0008 DBB2     		uxtb	r3, r3
 819:.\Generated_Source\PSoC5/Delay_PWM.c ****         #endif /* (Delay_PWM_UsingFixedFunction) */
 820:.\Generated_Source\PSoC5/Delay_PWM.c ****     }
 631              		.loc 1 820 0
 632 000a 1846     		mov	r0, r3
 633 000c BD46     		mov	sp, r7
 634              		@ sp needed
 635 000e 5DF8047B 		ldr	r7, [sp], #4
 636 0012 7047     		bx	lr
 637              	.L51:
 638              		.align	2
 639              	.L50:
 640 0014 27650040 		.word	1073767719
 641              		.cfi_endproc
 642              	.LFE14:
 643              		.size	Delay_PWM_ReadCompare, .-Delay_PWM_ReadCompare
 644              		.section	.text.Delay_PWM_ReadPeriod,"ax",%progbits
 645              		.align	2
 646              		.global	Delay_PWM_ReadPeriod
 647              		.thumb
 648              		.thumb_func
 649              		.type	Delay_PWM_ReadPeriod, %function
 650              	Delay_PWM_ReadPeriod:
 651              	.LFB15:
 821:.\Generated_Source\PSoC5/Delay_PWM.c **** 
 822:.\Generated_Source\PSoC5/Delay_PWM.c **** #else
 823:.\Generated_Source\PSoC5/Delay_PWM.c **** 
 824:.\Generated_Source\PSoC5/Delay_PWM.c **** 
 825:.\Generated_Source\PSoC5/Delay_PWM.c ****     /*******************************************************************************
 826:.\Generated_Source\PSoC5/Delay_PWM.c ****     * Function Name: Delay_PWM_ReadCompare1
 827:.\Generated_Source\PSoC5/Delay_PWM.c ****     ********************************************************************************
 828:.\Generated_Source\PSoC5/Delay_PWM.c ****     * 
 829:.\Generated_Source\PSoC5/Delay_PWM.c ****     * Summary:
 830:.\Generated_Source\PSoC5/Delay_PWM.c ****     *  Reads the compare value for the compare1 output.
ARM GAS  C:\Users\SCOTTC~1\AppData\Local\Temp\ccbnr13E.s 			page 27


 831:.\Generated_Source\PSoC5/Delay_PWM.c ****     *
 832:.\Generated_Source\PSoC5/Delay_PWM.c ****     * Parameters:  
 833:.\Generated_Source\PSoC5/Delay_PWM.c ****     *  None
 834:.\Generated_Source\PSoC5/Delay_PWM.c ****     *
 835:.\Generated_Source\PSoC5/Delay_PWM.c ****     * Return: 
 836:.\Generated_Source\PSoC5/Delay_PWM.c ****     *  uint8/uint16: Current compare value.
 837:.\Generated_Source\PSoC5/Delay_PWM.c ****     *
 838:.\Generated_Source\PSoC5/Delay_PWM.c ****     *******************************************************************************/  
 839:.\Generated_Source\PSoC5/Delay_PWM.c ****     uint8 Delay_PWM_ReadCompare1(void) 
 840:.\Generated_Source\PSoC5/Delay_PWM.c ****     {
 841:.\Generated_Source\PSoC5/Delay_PWM.c **** 		return (CY_GET_REG8(Delay_PWM_COMPARE1_LSB_PTR));
 842:.\Generated_Source\PSoC5/Delay_PWM.c ****     }
 843:.\Generated_Source\PSoC5/Delay_PWM.c **** 
 844:.\Generated_Source\PSoC5/Delay_PWM.c **** 
 845:.\Generated_Source\PSoC5/Delay_PWM.c ****     /*******************************************************************************
 846:.\Generated_Source\PSoC5/Delay_PWM.c ****     * Function Name: Delay_PWM_ReadCompare2
 847:.\Generated_Source\PSoC5/Delay_PWM.c ****     ********************************************************************************
 848:.\Generated_Source\PSoC5/Delay_PWM.c ****     * 
 849:.\Generated_Source\PSoC5/Delay_PWM.c ****     * Summary:
 850:.\Generated_Source\PSoC5/Delay_PWM.c ****     *  Reads the compare value for the compare2 output.
 851:.\Generated_Source\PSoC5/Delay_PWM.c ****     *
 852:.\Generated_Source\PSoC5/Delay_PWM.c ****     * Parameters:  
 853:.\Generated_Source\PSoC5/Delay_PWM.c ****     *  None
 854:.\Generated_Source\PSoC5/Delay_PWM.c ****     *
 855:.\Generated_Source\PSoC5/Delay_PWM.c ****     * Return: 
 856:.\Generated_Source\PSoC5/Delay_PWM.c ****     *  uint8/uint16: Current compare value.
 857:.\Generated_Source\PSoC5/Delay_PWM.c ****     *
 858:.\Generated_Source\PSoC5/Delay_PWM.c ****     *******************************************************************************/  
 859:.\Generated_Source\PSoC5/Delay_PWM.c ****     uint8 Delay_PWM_ReadCompare2(void)  
 860:.\Generated_Source\PSoC5/Delay_PWM.c ****     {
 861:.\Generated_Source\PSoC5/Delay_PWM.c **** 		return (CY_GET_REG8(Delay_PWM_COMPARE2_LSB_PTR));
 862:.\Generated_Source\PSoC5/Delay_PWM.c ****     }
 863:.\Generated_Source\PSoC5/Delay_PWM.c **** 
 864:.\Generated_Source\PSoC5/Delay_PWM.c **** #endif /* (Delay_PWM_UseOneCompareMode) */
 865:.\Generated_Source\PSoC5/Delay_PWM.c **** 
 866:.\Generated_Source\PSoC5/Delay_PWM.c **** 
 867:.\Generated_Source\PSoC5/Delay_PWM.c **** /*******************************************************************************
 868:.\Generated_Source\PSoC5/Delay_PWM.c **** * Function Name: Delay_PWM_ReadPeriod
 869:.\Generated_Source\PSoC5/Delay_PWM.c **** ********************************************************************************
 870:.\Generated_Source\PSoC5/Delay_PWM.c **** * 
 871:.\Generated_Source\PSoC5/Delay_PWM.c **** * Summary:
 872:.\Generated_Source\PSoC5/Delay_PWM.c **** *  Reads the period value used by the PWM hardware.
 873:.\Generated_Source\PSoC5/Delay_PWM.c **** *
 874:.\Generated_Source\PSoC5/Delay_PWM.c **** * Parameters:  
 875:.\Generated_Source\PSoC5/Delay_PWM.c **** *  None
 876:.\Generated_Source\PSoC5/Delay_PWM.c **** *
 877:.\Generated_Source\PSoC5/Delay_PWM.c **** * Return: 
 878:.\Generated_Source\PSoC5/Delay_PWM.c **** *  uint8/16: Period value
 879:.\Generated_Source\PSoC5/Delay_PWM.c **** *
 880:.\Generated_Source\PSoC5/Delay_PWM.c **** *******************************************************************************/ 
 881:.\Generated_Source\PSoC5/Delay_PWM.c **** uint8 Delay_PWM_ReadPeriod(void) 
 882:.\Generated_Source\PSoC5/Delay_PWM.c **** {
 652              		.loc 1 882 0
 653              		.cfi_startproc
 654              		@ args = 0, pretend = 0, frame = 0
 655              		@ frame_needed = 1, uses_anonymous_args = 0
 656              		@ link register save eliminated.
ARM GAS  C:\Users\SCOTTC~1\AppData\Local\Temp\ccbnr13E.s 			page 28


 657 0000 80B4     		push	{r7}
 658              		.cfi_def_cfa_offset 4
 659              		.cfi_offset 7, -4
 660 0002 00AF     		add	r7, sp, #0
 661              		.cfi_def_cfa_register 7
 883:.\Generated_Source\PSoC5/Delay_PWM.c **** 	#if(Delay_PWM_UsingFixedFunction)
 884:.\Generated_Source\PSoC5/Delay_PWM.c ****         return ((uint8)CY_GET_REG16(Delay_PWM_PERIOD_LSB_PTR));
 885:.\Generated_Source\PSoC5/Delay_PWM.c ****     #else
 886:.\Generated_Source\PSoC5/Delay_PWM.c ****         return (CY_GET_REG8(Delay_PWM_PERIOD_LSB_PTR));
 662              		.loc 1 886 0
 663 0004 034B     		ldr	r3, .L54
 664 0006 1B78     		ldrb	r3, [r3]
 665 0008 DBB2     		uxtb	r3, r3
 887:.\Generated_Source\PSoC5/Delay_PWM.c ****     #endif /* (Delay_PWM_UsingFixedFunction) */
 888:.\Generated_Source\PSoC5/Delay_PWM.c **** }
 666              		.loc 1 888 0
 667 000a 1846     		mov	r0, r3
 668 000c BD46     		mov	sp, r7
 669              		@ sp needed
 670 000e 5DF8047B 		ldr	r7, [sp], #4
 671 0012 7047     		bx	lr
 672              	.L55:
 673              		.align	2
 674              	.L54:
 675 0014 47650040 		.word	1073767751
 676              		.cfi_endproc
 677              	.LFE15:
 678              		.size	Delay_PWM_ReadPeriod, .-Delay_PWM_ReadPeriod
 679              		.text
 680              	.Letext0:
 681              		.file 2 ".\\Generated_Source\\PSoC5\\cytypes.h"