ARM GAS  C:\Users\SCOTTC~1\AppData\Local\Temp\ccUR7uIP.s 			page 1


   1              		.syntax unified
   2              		.cpu cortex-m3
   3              		.fpu softvfp
   4              		.eabi_attribute 20, 1
   5              		.eabi_attribute 21, 1
   6              		.eabi_attribute 23, 3
   7              		.eabi_attribute 24, 1
   8              		.eabi_attribute 25, 1
   9              		.eabi_attribute 26, 1
  10              		.eabi_attribute 30, 6
  11              		.eabi_attribute 34, 1
  12              		.eabi_attribute 18, 4
  13              		.thumb
  14              		.file	"main.c"
  15              		.text
  16              	.Ltext0:
  17              		.cfi_sections	.debug_frame
  18              		.comm	adc_temp,4,4
  19              		.comm	filter_temp,4,4
  20              		.comm	result,1024,4
  21              		.comm	Filtered_result,1024,4
  22              		.section	.text.main,"ax",%progbits
  23              		.align	2
  24              		.global	main
  25              		.thumb
  26              		.thumb_func
  27              		.type	main, %function
  28              	main:
  29              	.LFB56:
  30              		.file 1 ".\\main.c"
   1:.\main.c      **** /*******************************************************************************
   2:.\main.c      **** * File Name: main.c
   3:.\main.c      **** *
   4:.\main.c      **** * Version: 1.00
   5:.\main.c      **** *
   6:.\main.c      **** * Description:
   7:.\main.c      **** *   This is the source code for the DelSig_16Channel Example Project.
   8:.\main.c      **** *	DelSig_16Channel Example Project intended to use as Creator starter design 
   9:.\main.c      **** *	for PSoC 3/5LP devices. 
  10:.\main.c      **** *
  11:.\main.c      **** *   Note that this file contains the DMA_Config function as well.
  12:.\main.c      **** *
  13:.\main.c      **** ********************************************************************************
  14:.\main.c      **** * Copyright 2012, Cypress Semiconductor Corporation. All rights reserved.
  15:.\main.c      **** * This software is owned by Cypress Semiconductor Corporation and is protected
  16:.\main.c      **** * by and subject to worldwide patent and copyright laws and treaties.
  17:.\main.c      **** * Therefore, you may use this software only as provided in the license agreement
  18:.\main.c      **** * accompanying the software package from which you obtained this software.
  19:.\main.c      **** * CYPRESS AND ITS SUPPLIERS MAKE NO WARRANTY OF ANY KIND, EXPRESS OR IMPLIED,
  20:.\main.c      **** * WITH REGARD TO THIS SOFTWARE, INCLUDING, BUT NOT LIMITED TO, NONINFRINGEMENT,
  21:.\main.c      **** * IMPLIED WARRANTIES OF MERCHANTABILITY AND FITNESS FOR A PARTICULAR PURPOSE.
  22:.\main.c      **** *******************************************************************************/
  23:.\main.c      **** #include <project.h>
  24:.\main.c      **** #include <device.h>
  25:.\main.c      **** 
  26:.\main.c      **** /* There are 16 input channels */
  27:.\main.c      **** #define window_size (256u)
ARM GAS  C:\Users\SCOTTC~1\AppData\Local\Temp\ccUR7uIP.s 			page 2


  28:.\main.c      **** 
  29:.\main.c      **** /* DMA Configuration for DMA_ADC2Mem */
  30:.\main.c      **** #define DMA_ADC2Mem_BYTES_PER_BURST 4
  31:.\main.c      **** #define DMA_ADC2Mem_REQUEST_PER_BURST 1
  32:.\main.c      **** #define DMA_ADC2Mem_SRC_BASE (CYDEV_PERIPH_BASE)
  33:.\main.c      **** #define DMA_ADC2Mem_DST_BASE (CYDEV_SRAM_BASE)
  34:.\main.c      **** 
  35:.\main.c      **** /* DMA Configuration for DMA_Mem2Mem */
  36:.\main.c      **** #define DMA_Mem2Mem_BYTES_PER_BURST 4
  37:.\main.c      **** #define DMA_Mem2Mem_REQUEST_PER_BURST 1
  38:.\main.c      **** #define DMA_Mem2Mem_SRC_BASE (CYDEV_SRAM_BASE)
  39:.\main.c      **** #define DMA_Mem2Mem_DST_BASE (CYDEV_SRAM_BASE)
  40:.\main.c      **** 
  41:.\main.c      **** /* DMA Configuration for DMA_ADC2Filter */
  42:.\main.c      **** #define DMA_ADC2Filter_BYTES_PER_BURST 4
  43:.\main.c      **** #define DMA_ADC2Filter_REQUEST_PER_BURST 1
  44:.\main.c      **** #define DMA_ADC2Filter_SRC_BASE (CYDEV_PERIPH_BASE)
  45:.\main.c      **** #define DMA_ADC2Filter_DST_BASE (CYDEV_PERIPH_BASE)
  46:.\main.c      **** 
  47:.\main.c      **** /* DMA Configuration for DMA_Filter2Mem */
  48:.\main.c      **** #define DMA_Filter2Mem_BYTES_PER_BURST 4
  49:.\main.c      **** #define DMA_Filter2Mem_REQUEST_PER_BURST 1
  50:.\main.c      **** #define DMA_Filter2Mem_SRC_BASE (CYDEV_PERIPH_BASE)
  51:.\main.c      **** #define DMA_Filter2Mem_DST_BASE (CYDEV_SRAM_BASE)
  52:.\main.c      **** 
  53:.\main.c      **** /* DMA Configuration for DMA_FilterMem2Mem */
  54:.\main.c      **** #define DMA_FilterMem2Mem_BYTES_PER_BURST 4
  55:.\main.c      **** #define DMA_FilterMem2Mem_REQUEST_PER_BURST 0
  56:.\main.c      **** #define DMA_FilterMem2Mem_SRC_BASE (CYDEV_SRAM_BASE)
  57:.\main.c      **** #define DMA_FilterMem2Mem_DST_BASE (CYDEV_SRAM_BASE)
  58:.\main.c      **** 
  59:.\main.c      **** 
  60:.\main.c      **** 
  61:.\main.c      **** /* Directive to place adc_temp at a particular location. The location is 
  62:.\main.c      **** chosen as a multiple of 4 bytes (even boundary) */
  63:.\main.c      **** 
  64:.\main.c      **** #if(CY_PSOC3)	
  65:.\main.c      **** 		int32 xdata adc_temp _at_ 0x100; 
  66:.\main.c      **** #else /* PSoC5 being used */
  67:.\main.c      **** 	int32 adc_temp;
  68:.\main.c      ****     int32 filter_temp;
  69:.\main.c      **** #endif
  70:.\main.c      **** 
  71:.\main.c      **** #if(CY_PSOC3)
  72:.\main.c      **** 	int32 xdata result[window_size] _at_ 0x200;
  73:.\main.c      **** #else /* PSoC5 being used */
  74:.\main.c      **** 	int32 result[window_size];
  75:.\main.c      ****     int32 Filtered_result[window_size];
  76:.\main.c      **** #endif
  77:.\main.c      **** 
  78:.\main.c      **** 
  79:.\main.c      **** 
  80:.\main.c      **** void DMA_Config(void);
  81:.\main.c      **** 
  82:.\main.c      **** 
  83:.\main.c      **** /*******************************************************************************
  84:.\main.c      **** * Function Name: main
ARM GAS  C:\Users\SCOTTC~1\AppData\Local\Temp\ccUR7uIP.s 			page 3


  85:.\main.c      **** ********************************************************************************
  86:.\main.c      **** *
  87:.\main.c      **** * Summary:
  88:.\main.c      **** *  main() performs following functions:
  89:.\main.c      **** *  1: Starts the components
  90:.\main.c      **** *  2: Calls function DMA_Config to setup the DMA.
  91:.\main.c      **** *  3: Starts ADC continuous conversion.
  92:.\main.c      **** *  4: Gets the converted result and displays it in LCD. Also displays VDAC data
  93:.\main.c      **** *     register value on LCD.
  94:.\main.c      **** *
  95:.\main.c      **** * Parameters:
  96:.\main.c      **** *  None.
  97:.\main.c      **** *
  98:.\main.c      **** * Return:
  99:.\main.c      **** *  None.
 100:.\main.c      **** *
 101:.\main.c      **** *******************************************************************************/
 102:.\main.c      **** void main()
 103:.\main.c      **** {
  31              		.loc 1 103 0
  32              		.cfi_startproc
  33              		@ args = 0, pretend = 0, frame = 8
  34              		@ frame_needed = 1, uses_anonymous_args = 0
  35 0000 80B5     		push	{r7, lr}
  36              		.cfi_def_cfa_offset 8
  37              		.cfi_offset 7, -8
  38              		.cfi_offset 14, -4
  39 0002 82B0     		sub	sp, sp, #8
  40              		.cfi_def_cfa_offset 16
  41 0004 00AF     		add	r7, sp, #0
  42              		.cfi_def_cfa_register 7
 104:.\main.c      **** 	int16 temp;
 105:.\main.c      **** 	
 106:.\main.c      **** 
 107:.\main.c      ****     LCD_Start();
  43              		.loc 1 107 0
  44 0006 FFF7FEFF 		bl	LCD_Start
 108:.\main.c      ****     ADC_Start();
  45              		.loc 1 108 0
  46 000a FFF7FEFF 		bl	ADC_Start
 109:.\main.c      **** 	
 110:.\main.c      **** 	 /* Disable ADC interrupts */
 111:.\main.c      **** 	ADC_IRQ_Disable();
  47              		.loc 1 111 0
  48 000e FFF7FEFF 		bl	ADC_IRQ_Disable
 112:.\main.c      **** 
 113:.\main.c      **** 	/*Change the ADC coherent key to high byte*/
 114:.\main.c      **** 	ADC_DEC_COHER_REG |= ADC_DEC_SAMP_KEY_HIGH;
  49              		.loc 1 114 0
  50 0012 194B     		ldr	r3, .L3
  51 0014 184A     		ldr	r2, .L3
  52 0016 1278     		ldrb	r2, [r2]
  53 0018 D2B2     		uxtb	r2, r2
  54 001a 42F00302 		orr	r2, r2, #3
  55 001e D2B2     		uxtb	r2, r2
  56 0020 1A70     		strb	r2, [r3]
 115:.\main.c      **** 
ARM GAS  C:\Users\SCOTTC~1\AppData\Local\Temp\ccUR7uIP.s 			page 4


 116:.\main.c      **** 	/*Start ADC conversions*/
 117:.\main.c      **** 	ADC_StartConvert();
  57              		.loc 1 117 0
  58 0022 FFF7FEFF 		bl	ADC_StartConvert
 118:.\main.c      **** 
 119:.\main.c      ****     Filter_SetDalign(Filter_STAGEA_DALIGN | Filter_HOLDA_DALIGN | Filter_HOLDB_DALIGN | Filter_STAG
  59              		.loc 1 119 0
  60 0026 0F20     		movs	r0, #15
  61 0028 0021     		movs	r1, #0
  62 002a FFF7FEFF 		bl	Filter_SetDalign
 120:.\main.c      ****     Filter_SetCoherency(Filter_STAGEA_COHER | Filter_HOLDA_COHER | Filter_STAGEB_COHER | Filter_HOL
  63              		.loc 1 120 0
  64 002e FF20     		movs	r0, #255
  65 0030 0221     		movs	r1, #2
  66 0032 FFF7FEFF 		bl	Filter_SetCoherency
 121:.\main.c      ****     Filter_SetCoherency(Filter_CHANNEL_A,Filter_KEY_HIGH);  
  67              		.loc 1 121 0
  68 0036 0020     		movs	r0, #0
  69 0038 0221     		movs	r1, #2
  70 003a FFF7FEFF 		bl	Filter_SetCoherency
 122:.\main.c      ****     Filter_SetCoherency(Filter_CHANNEL_B,Filter_KEY_HIGH);
  71              		.loc 1 122 0
  72 003e 0120     		movs	r0, #1
  73 0040 0221     		movs	r1, #2
  74 0042 FFF7FEFF 		bl	Filter_SetCoherency
 123:.\main.c      **** 
 124:.\main.c      ****     Filter_Start();
  75              		.loc 1 124 0
  76 0046 FFF7FEFF 		bl	Filter_Start
 125:.\main.c      ****     DMA_Config();
  77              		.loc 1 125 0
  78 004a FFF7FEFF 		bl	DMA_Config
 126:.\main.c      **** 
 127:.\main.c      ****      CYGlobalIntEnable;  /* Uncomment this line to enable global interrupts. */
  79              		.loc 1 127 0
  80              	@ 127 ".\main.c" 1
  81 004e 62B6     		CPSIE   i
  82              	@ 0 "" 2
  83              		.thumb
  84              	.L2:
 128:.\main.c      ****     for(;;)
 129:.\main.c      ****     {
 130:.\main.c      ****         LCD_ClearDisplay();
  85              		.loc 1 130 0 discriminator 1
  86 0050 0120     		movs	r0, #1
  87 0052 FFF7FEFF 		bl	LCD_WriteControl
 131:.\main.c      ****         LCD_Position(0u, 0u);
  88              		.loc 1 131 0 discriminator 1
  89 0056 0020     		movs	r0, #0
  90 0058 0021     		movs	r1, #0
  91 005a FFF7FEFF 		bl	LCD_Position
 132:.\main.c      **** 		temp = ADC_CountsTo_mVolts(adc_temp);
  92              		.loc 1 132 0 discriminator 1
  93 005e 074B     		ldr	r3, .L3+4
  94 0060 1B68     		ldr	r3, [r3]
  95 0062 1846     		mov	r0, r3
  96 0064 FFF7FEFF 		bl	ADC_CountsTo_mVolts
ARM GAS  C:\Users\SCOTTC~1\AppData\Local\Temp\ccUR7uIP.s 			page 5


  97 0068 0346     		mov	r3, r0
  98 006a FB80     		strh	r3, [r7, #6]	@ movhi
 133:.\main.c      **** 		LCD_PrintNumber(temp);
  99              		.loc 1 133 0 discriminator 1
 100 006c FB88     		ldrh	r3, [r7, #6]
 101 006e 1846     		mov	r0, r3
 102 0070 FFF7FEFF 		bl	LCD_PrintNumber
 134:.\main.c      **** 		
 135:.\main.c      ****     }
 103              		.loc 1 135 0 discriminator 1
 104 0074 ECE7     		b	.L2
 105              	.L4:
 106 0076 00BF     		.align	2
 107              	.L3:
 108 0078 144E0040 		.word	1073761812
 109 007c 00000000 		.word	adc_temp
 110              		.cfi_endproc
 111              	.LFE56:
 112              		.size	main, .-main
 113              		.section	.text.DMA_Config,"ax",%progbits
 114              		.align	2
 115              		.global	DMA_Config
 116              		.thumb
 117              		.thumb_func
 118              		.type	DMA_Config, %function
 119              	DMA_Config:
 120              	.LFB57:
 136:.\main.c      **** }
 137:.\main.c      **** 
 138:.\main.c      **** 
 139:.\main.c      **** /*******************************************************************************
 140:.\main.c      **** * Function Name:  DMA_Config
 141:.\main.c      **** ********************************************************************************
 142:.\main.c      **** *
 143:.\main.c      **** * Summary:
 144:.\main.c      **** *    Code generated by the DMA Wizard.
 145:.\main.c      **** *
 146:.\main.c      **** *    DMA_Config() performs following functions:
 147:.\main.c      **** *  1: Initializes the DMA channel
 148:.\main.c      **** *  2: Allocates Transfer Descriptors
 149:.\main.c      **** *  3: Configures the TD.
 150:.\main.c      **** *  4: Sets source and destination address for this TD.
 151:.\main.c      **** *  5: Initializes the TD.
 152:.\main.c      **** *  6: Enables the DMA channel.
 153:.\main.c      **** *
 154:.\main.c      **** * Parameters:
 155:.\main.c      **** *  None.
 156:.\main.c      **** *
 157:.\main.c      **** * Return:
 158:.\main.c      **** *  None.
 159:.\main.c      **** *
 160:.\main.c      **** *******************************************************************************/
 161:.\main.c      **** void DMA_Config()
 162:.\main.c      **** {
 121              		.loc 1 162 0
 122              		.cfi_startproc
 123              		@ args = 0, pretend = 0, frame = 24
ARM GAS  C:\Users\SCOTTC~1\AppData\Local\Temp\ccUR7uIP.s 			page 6


 124              		@ frame_needed = 1, uses_anonymous_args = 0
 125 0000 80B5     		push	{r7, lr}
 126              		.cfi_def_cfa_offset 8
 127              		.cfi_offset 7, -8
 128              		.cfi_offset 14, -4
 129 0002 86B0     		sub	sp, sp, #24
 130              		.cfi_def_cfa_offset 32
 131 0004 00AF     		add	r7, sp, #0
 132              		.cfi_def_cfa_register 7
 163:.\main.c      **** /* Variable declarations for DMA_ADC2Mem */
 164:.\main.c      **** uint8 DMA_ADC2Mem_Chan;
 165:.\main.c      **** uint8 DMA_ADC2Mem_TD[1];
 166:.\main.c      **** 
 167:.\main.c      **** /* Variable declarations for DMA_Mem2Mem */
 168:.\main.c      **** uint8 DMA_Mem2Mem_Chan;
 169:.\main.c      **** uint8 DMA_Mem2Mem_TD[1];
 170:.\main.c      **** 
 171:.\main.c      **** /* Variable declarations for DMA_ADC2Filter */
 172:.\main.c      **** uint8 DMA_ADC2Filter_Chan;
 173:.\main.c      **** uint8 DMA_ADC2Filter_TD[1];
 174:.\main.c      **** 
 175:.\main.c      **** /* Variable declarations for DMA_Filter2Mem */
 176:.\main.c      **** uint8 DMA_Filter2Mem_Chan;
 177:.\main.c      **** uint8 DMA_Filter2Mem_TD[1];
 178:.\main.c      **** 
 179:.\main.c      **** /* Variable declarations for DMA_Filter2Filter */
 180:.\main.c      **** uint8 DMA_FilterMem2Mem_Chan;
 181:.\main.c      **** uint8 DMA_FilterMem2Mem_TD[1];
 182:.\main.c      **** 
 183:.\main.c      **** 
 184:.\main.c      **** /*DMA_ADC2Mem*/
 185:.\main.c      **** DMA_ADC2Mem_Chan = DMA_ADC2Mem_DmaInitialize(DMA_ADC2Mem_BYTES_PER_BURST, DMA_ADC2Mem_REQUEST_PER_B
 133              		.loc 1 185 0
 134 0006 0420     		movs	r0, #4
 135 0008 0121     		movs	r1, #1
 136 000a 4FF48042 		mov	r2, #16384
 137 000e 41F6FF73 		movw	r3, #8191
 138 0012 FFF7FEFF 		bl	DMA_ADC2Mem_DmaInitialize
 139 0016 0346     		mov	r3, r0
 140 0018 FB75     		strb	r3, [r7, #23]
 186:.\main.c      ****     HI16(DMA_ADC2Mem_SRC_BASE), HI16(DMA_ADC2Mem_DST_BASE));
 187:.\main.c      **** DMA_ADC2Mem_TD[0] = CyDmaTdAllocate();
 141              		.loc 1 187 0
 142 001a FFF7FEFF 		bl	CyDmaTdAllocate
 143 001e 0346     		mov	r3, r0
 144 0020 3B74     		strb	r3, [r7, #16]
 188:.\main.c      **** CyDmaTdSetConfiguration(DMA_ADC2Mem_TD[0], 4, DMA_ADC2Mem_TD[0], DMA_ADC2Mem__TD_TERMOUT_EN | TD_IN
 145              		.loc 1 188 0
 146 0022 3A7C     		ldrb	r2, [r7, #16]	@ zero_extendqisi2
 147 0024 3B7C     		ldrb	r3, [r7, #16]	@ zero_extendqisi2
 148 0026 1046     		mov	r0, r2
 149 0028 0421     		movs	r1, #4
 150 002a 1A46     		mov	r2, r3
 151 002c 0123     		movs	r3, #1
 152 002e FFF7FEFF 		bl	CyDmaTdSetConfiguration
 189:.\main.c      **** CyDmaTdSetAddress(DMA_ADC2Mem_TD[0], LO16((uint32)ADC_DEC_SAMP_PTR), LO16((uint32)Filter_STAGEA_PTR
 153              		.loc 1 189 0
ARM GAS  C:\Users\SCOTTC~1\AppData\Local\Temp\ccUR7uIP.s 			page 7


 154 0032 3B7C     		ldrb	r3, [r7, #16]	@ zero_extendqisi2
 155 0034 1846     		mov	r0, r3
 156 0036 44F61061 		movw	r1, #19984
 157 003a 4CF2A072 		movw	r2, #51104
 158 003e FFF7FEFF 		bl	CyDmaTdSetAddress
 190:.\main.c      **** CyDmaChSetInitialTd(DMA_ADC2Mem_Chan, DMA_ADC2Mem_TD[0]);
 159              		.loc 1 190 0
 160 0042 3B7C     		ldrb	r3, [r7, #16]	@ zero_extendqisi2
 161 0044 FA7D     		ldrb	r2, [r7, #23]	@ zero_extendqisi2
 162 0046 1046     		mov	r0, r2
 163 0048 1946     		mov	r1, r3
 164 004a FFF7FEFF 		bl	CyDmaChSetInitialTd
 191:.\main.c      **** CyDmaChEnable(DMA_ADC2Mem_Chan, 1);
 165              		.loc 1 191 0
 166 004e FB7D     		ldrb	r3, [r7, #23]	@ zero_extendqisi2
 167 0050 1846     		mov	r0, r3
 168 0052 0121     		movs	r1, #1
 169 0054 FFF7FEFF 		bl	CyDmaChEnable
 192:.\main.c      **** 
 193:.\main.c      **** 
 194:.\main.c      **** /*DMA_Mem2Mem*/
 195:.\main.c      **** DMA_Mem2Mem_Chan = DMA_Mem2Mem_DmaInitialize(DMA_Mem2Mem_BYTES_PER_BURST, DMA_Mem2Mem_REQUEST_PER_B
 170              		.loc 1 195 0
 171 0058 0420     		movs	r0, #4
 172 005a 0121     		movs	r1, #1
 173 005c 41F6FF72 		movw	r2, #8191
 174 0060 41F6FF73 		movw	r3, #8191
 175 0064 FFF7FEFF 		bl	DMA_Mem2Mem_DmaInitialize
 176 0068 0346     		mov	r3, r0
 177 006a BB75     		strb	r3, [r7, #22]
 196:.\main.c      ****     HI16(DMA_Mem2Mem_SRC_BASE), HI16(DMA_Mem2Mem_DST_BASE));
 197:.\main.c      **** DMA_Mem2Mem_TD[0] = CyDmaTdAllocate();
 178              		.loc 1 197 0
 179 006c FFF7FEFF 		bl	CyDmaTdAllocate
 180 0070 0346     		mov	r3, r0
 181 0072 3B73     		strb	r3, [r7, #12]
 198:.\main.c      **** CyDmaTdSetConfiguration(DMA_Mem2Mem_TD[0], window_size*4, DMA_Mem2Mem_TD[0], TD_INC_DST_ADR);
 182              		.loc 1 198 0
 183 0074 3A7B     		ldrb	r2, [r7, #12]	@ zero_extendqisi2
 184 0076 3B7B     		ldrb	r3, [r7, #12]	@ zero_extendqisi2
 185 0078 1046     		mov	r0, r2
 186 007a 4FF48061 		mov	r1, #1024
 187 007e 1A46     		mov	r2, r3
 188 0080 0223     		movs	r3, #2
 189 0082 FFF7FEFF 		bl	CyDmaTdSetConfiguration
 199:.\main.c      **** CyDmaTdSetAddress(DMA_Mem2Mem_TD[0], LO16((uint32)&adc_temp), LO16((uint32)result));
 190              		.loc 1 199 0
 191 0086 397B     		ldrb	r1, [r7, #12]	@ zero_extendqisi2
 192 0088 4B4B     		ldr	r3, .L6
 193 008a 9AB2     		uxth	r2, r3
 194 008c 4B4B     		ldr	r3, .L6+4
 195 008e 9BB2     		uxth	r3, r3
 196 0090 0846     		mov	r0, r1
 197 0092 1146     		mov	r1, r2
 198 0094 1A46     		mov	r2, r3
 199 0096 FFF7FEFF 		bl	CyDmaTdSetAddress
 200:.\main.c      **** CyDmaChSetInitialTd(DMA_Mem2Mem_Chan, DMA_Mem2Mem_TD[0]);
ARM GAS  C:\Users\SCOTTC~1\AppData\Local\Temp\ccUR7uIP.s 			page 8


 200              		.loc 1 200 0
 201 009a 3B7B     		ldrb	r3, [r7, #12]	@ zero_extendqisi2
 202 009c BA7D     		ldrb	r2, [r7, #22]	@ zero_extendqisi2
 203 009e 1046     		mov	r0, r2
 204 00a0 1946     		mov	r1, r3
 205 00a2 FFF7FEFF 		bl	CyDmaChSetInitialTd
 201:.\main.c      **** CyDmaChEnable(DMA_Mem2Mem_Chan, 1);
 206              		.loc 1 201 0
 207 00a6 BB7D     		ldrb	r3, [r7, #22]	@ zero_extendqisi2
 208 00a8 1846     		mov	r0, r3
 209 00aa 0121     		movs	r1, #1
 210 00ac FFF7FEFF 		bl	CyDmaChEnable
 202:.\main.c      **** 
 203:.\main.c      **** 
 204:.\main.c      **** /*DMA_ADC2Filter*/
 205:.\main.c      **** DMA_ADC2Filter_Chan = DMA_ADC2Filter_DmaInitialize(DMA_ADC2Filter_BYTES_PER_BURST, DMA_ADC2Filter_R
 211              		.loc 1 205 0
 212 00b0 0420     		movs	r0, #4
 213 00b2 0121     		movs	r1, #1
 214 00b4 4FF48042 		mov	r2, #16384
 215 00b8 4FF48043 		mov	r3, #16384
 216 00bc FFF7FEFF 		bl	DMA_ADC2Filter_DmaInitialize
 217 00c0 0346     		mov	r3, r0
 218 00c2 7B75     		strb	r3, [r7, #21]
 206:.\main.c      ****     HI16(DMA_ADC2Filter_SRC_BASE), HI16(DMA_ADC2Filter_DST_BASE));
 207:.\main.c      **** DMA_ADC2Filter_TD[0] = CyDmaTdAllocate();
 219              		.loc 1 207 0
 220 00c4 FFF7FEFF 		bl	CyDmaTdAllocate
 221 00c8 0346     		mov	r3, r0
 222 00ca 3B72     		strb	r3, [r7, #8]
 208:.\main.c      **** CyDmaTdSetConfiguration(DMA_ADC2Filter_TD[0], 4, DMA_ADC2Filter_TD[0], DMA_ADC2Filter__TD_TERMOUT_E
 223              		.loc 1 208 0
 224 00cc 3A7A     		ldrb	r2, [r7, #8]	@ zero_extendqisi2
 225 00ce 3B7A     		ldrb	r3, [r7, #8]	@ zero_extendqisi2
 226 00d0 1046     		mov	r0, r2
 227 00d2 0421     		movs	r1, #4
 228 00d4 1A46     		mov	r2, r3
 229 00d6 0523     		movs	r3, #5
 230 00d8 FFF7FEFF 		bl	CyDmaTdSetConfiguration
 209:.\main.c      **** CyDmaTdSetAddress(DMA_ADC2Filter_TD[0], LO16((uint32)ADC_DEC_SAMP_PTR), LO16((uint32)&adc_temp));
 231              		.loc 1 209 0
 232 00dc 3A7A     		ldrb	r2, [r7, #8]	@ zero_extendqisi2
 233 00de 364B     		ldr	r3, .L6
 234 00e0 9BB2     		uxth	r3, r3
 235 00e2 1046     		mov	r0, r2
 236 00e4 44F61061 		movw	r1, #19984
 237 00e8 1A46     		mov	r2, r3
 238 00ea FFF7FEFF 		bl	CyDmaTdSetAddress
 210:.\main.c      **** CyDmaChSetInitialTd(DMA_ADC2Filter_Chan, DMA_ADC2Filter_TD[0]);
 239              		.loc 1 210 0
 240 00ee 3B7A     		ldrb	r3, [r7, #8]	@ zero_extendqisi2
 241 00f0 7A7D     		ldrb	r2, [r7, #21]	@ zero_extendqisi2
 242 00f2 1046     		mov	r0, r2
 243 00f4 1946     		mov	r1, r3
 244 00f6 FFF7FEFF 		bl	CyDmaChSetInitialTd
 211:.\main.c      **** CyDmaChEnable(DMA_ADC2Filter_Chan, 1);
 245              		.loc 1 211 0
ARM GAS  C:\Users\SCOTTC~1\AppData\Local\Temp\ccUR7uIP.s 			page 9


 246 00fa 7B7D     		ldrb	r3, [r7, #21]	@ zero_extendqisi2
 247 00fc 1846     		mov	r0, r3
 248 00fe 0121     		movs	r1, #1
 249 0100 FFF7FEFF 		bl	CyDmaChEnable
 212:.\main.c      **** 
 213:.\main.c      **** 
 214:.\main.c      **** /*DMA_Filter2Mem*/
 215:.\main.c      **** DMA_Filter2Mem_Chan = DMA_Filter2Mem_DmaInitialize(DMA_Filter2Mem_BYTES_PER_BURST, DMA_Filter2Mem_R
 250              		.loc 1 215 0
 251 0104 0420     		movs	r0, #4
 252 0106 0121     		movs	r1, #1
 253 0108 4FF48042 		mov	r2, #16384
 254 010c 41F6FF73 		movw	r3, #8191
 255 0110 FFF7FEFF 		bl	DMA_Filter2Mem_DmaInitialize
 256 0114 0346     		mov	r3, r0
 257 0116 3B75     		strb	r3, [r7, #20]
 216:.\main.c      ****     HI16(DMA_Filter2Mem_SRC_BASE), HI16(DMA_Filter2Mem_DST_BASE));
 217:.\main.c      **** DMA_Filter2Mem_TD[0] = CyDmaTdAllocate();
 258              		.loc 1 217 0
 259 0118 FFF7FEFF 		bl	CyDmaTdAllocate
 260 011c 0346     		mov	r3, r0
 261 011e 3B71     		strb	r3, [r7, #4]
 218:.\main.c      **** CyDmaTdSetConfiguration(DMA_Filter2Mem_TD[0], window_size*4, DMA_Filter2Mem_TD[0], DMA_Filter2Mem__
 262              		.loc 1 218 0
 263 0120 3A79     		ldrb	r2, [r7, #4]	@ zero_extendqisi2
 264 0122 3B79     		ldrb	r3, [r7, #4]	@ zero_extendqisi2
 265 0124 1046     		mov	r0, r2
 266 0126 4FF48061 		mov	r1, #1024
 267 012a 1A46     		mov	r2, r3
 268 012c 0623     		movs	r3, #6
 269 012e FFF7FEFF 		bl	CyDmaTdSetConfiguration
 219:.\main.c      **** CyDmaTdSetAddress(DMA_Filter2Mem_TD[0], LO16((uint32)Filter_HOLDA_PTR), LO16((uint32)&filter_temp))
 270              		.loc 1 219 0
 271 0132 3A79     		ldrb	r2, [r7, #4]	@ zero_extendqisi2
 272 0134 224B     		ldr	r3, .L6+8
 273 0136 9BB2     		uxth	r3, r3
 274 0138 1046     		mov	r0, r2
 275 013a 4CF2A871 		movw	r1, #51112
 276 013e 1A46     		mov	r2, r3
 277 0140 FFF7FEFF 		bl	CyDmaTdSetAddress
 220:.\main.c      **** CyDmaChSetInitialTd(DMA_Filter2Mem_Chan, DMA_Filter2Mem_TD[0]);
 278              		.loc 1 220 0
 279 0144 3B79     		ldrb	r3, [r7, #4]	@ zero_extendqisi2
 280 0146 3A7D     		ldrb	r2, [r7, #20]	@ zero_extendqisi2
 281 0148 1046     		mov	r0, r2
 282 014a 1946     		mov	r1, r3
 283 014c FFF7FEFF 		bl	CyDmaChSetInitialTd
 221:.\main.c      **** CyDmaChEnable(DMA_Filter2Mem_Chan, 1);
 284              		.loc 1 221 0
 285 0150 3B7D     		ldrb	r3, [r7, #20]	@ zero_extendqisi2
 286 0152 1846     		mov	r0, r3
 287 0154 0121     		movs	r1, #1
 288 0156 FFF7FEFF 		bl	CyDmaChEnable
 222:.\main.c      **** 
 223:.\main.c      **** /*DMA_FilterMem2Mem*/
 224:.\main.c      **** DMA_FilterMem2Mem_Chan = DMA_FilterMem2Mem_DmaInitialize(DMA_FilterMem2Mem_BYTES_PER_BURST, DMA_Fil
 289              		.loc 1 224 0
ARM GAS  C:\Users\SCOTTC~1\AppData\Local\Temp\ccUR7uIP.s 			page 10


 290 015a 0420     		movs	r0, #4
 291 015c 0021     		movs	r1, #0
 292 015e 41F6FF72 		movw	r2, #8191
 293 0162 41F6FF73 		movw	r3, #8191
 294 0166 FFF7FEFF 		bl	DMA_FilterMem2Mem_DmaInitialize
 295 016a 0346     		mov	r3, r0
 296 016c FB74     		strb	r3, [r7, #19]
 225:.\main.c      ****     HI16(DMA_FilterMem2Mem_SRC_BASE), HI16(DMA_FilterMem2Mem_DST_BASE));
 226:.\main.c      **** DMA_Mem2Mem_TD[0] = CyDmaTdAllocate();
 297              		.loc 1 226 0
 298 016e FFF7FEFF 		bl	CyDmaTdAllocate
 299 0172 0346     		mov	r3, r0
 300 0174 3B73     		strb	r3, [r7, #12]
 227:.\main.c      **** CyDmaTdSetConfiguration(DMA_FilterMem2Mem_TD[0], window_size*4, DMA_FilterMem2Mem_TD[0], TD_INC_DST
 301              		.loc 1 227 0
 302 0176 3A78     		ldrb	r2, [r7]	@ zero_extendqisi2
 303 0178 3B78     		ldrb	r3, [r7]	@ zero_extendqisi2
 304 017a 1046     		mov	r0, r2
 305 017c 4FF48061 		mov	r1, #1024
 306 0180 1A46     		mov	r2, r3
 307 0182 0323     		movs	r3, #3
 308 0184 FFF7FEFF 		bl	CyDmaTdSetConfiguration
 228:.\main.c      **** CyDmaTdSetAddress(DMA_FilterMem2Mem_TD[0], LO16((uint32)&filter_temp), LO16((uint32)Filtered_result
 309              		.loc 1 228 0
 310 0188 3978     		ldrb	r1, [r7]	@ zero_extendqisi2
 311 018a 0D4B     		ldr	r3, .L6+8
 312 018c 9AB2     		uxth	r2, r3
 313 018e 0D4B     		ldr	r3, .L6+12
 314 0190 9BB2     		uxth	r3, r3
 315 0192 0846     		mov	r0, r1
 316 0194 1146     		mov	r1, r2
 317 0196 1A46     		mov	r2, r3
 318 0198 FFF7FEFF 		bl	CyDmaTdSetAddress
 229:.\main.c      **** CyDmaChSetInitialTd(DMA_FilterMem2Mem_Chan, DMA_FilterMem2Mem_TD[0]);
 319              		.loc 1 229 0
 320 019c 3B78     		ldrb	r3, [r7]	@ zero_extendqisi2
 321 019e FA7C     		ldrb	r2, [r7, #19]	@ zero_extendqisi2
 322 01a0 1046     		mov	r0, r2
 323 01a2 1946     		mov	r1, r3
 324 01a4 FFF7FEFF 		bl	CyDmaChSetInitialTd
 230:.\main.c      **** CyDmaChEnable(DMA_FilterMem2Mem_Chan, 1);
 325              		.loc 1 230 0
 326 01a8 FB7C     		ldrb	r3, [r7, #19]	@ zero_extendqisi2
 327 01aa 1846     		mov	r0, r3
 328 01ac 0121     		movs	r1, #1
 329 01ae FFF7FEFF 		bl	CyDmaChEnable
 231:.\main.c      **** }
 330              		.loc 1 231 0
 331 01b2 1837     		adds	r7, r7, #24
 332 01b4 BD46     		mov	sp, r7
 333              		@ sp needed
 334 01b6 80BD     		pop	{r7, pc}
 335              	.L7:
 336              		.align	2
 337              	.L6:
 338 01b8 00000000 		.word	adc_temp
 339 01bc 00000000 		.word	result
ARM GAS  C:\Users\SCOTTC~1\AppData\Local\Temp\ccUR7uIP.s 			page 11


 340 01c0 00000000 		.word	filter_temp
 341 01c4 00000000 		.word	Filtered_result
 342              		.cfi_endproc
 343              	.LFE57:
 344              		.size	DMA_Config, .-DMA_Config
 345              		.text
 346              	.Letext0:
 347              		.file 2 "c:\\program files\\cypress\\psoc creator\\3.2\\psoc creator\\import\\gnu\\arm\\4.8.4\\arm
 348              		.file 3 "c:\\program files\\cypress\\psoc creator\\3.2\\psoc creator\\import\\gnu\\arm\\4.8.4\\arm
 349              		.file 4 "Generated_Source\\PSoC5/cytypes.h"
 350              		.file 5 "Generated_Source\\PSoC5/core_cm3.h"