ARM GAS  C:\Users\SCOTTC~1\AppData\Local\Temp\ccC1bJDY.s 			page 1


   1              		.syntax unified
   2              		.cpu cortex-m3
   3              		.fpu softvfp
   4              		.eabi_attribute 20, 1
   5              		.eabi_attribute 21, 1
   6              		.eabi_attribute 23, 3
   7              		.eabi_attribute 24, 1
   8              		.eabi_attribute 25, 1
   9              		.eabi_attribute 26, 1
  10              		.eabi_attribute 30, 6
  11              		.eabi_attribute 34, 1
  12              		.eabi_attribute 18, 4
  13              		.thumb
  14              		.file	"VinE.c"
  15              		.text
  16              	.Ltext0:
  17              		.cfi_sections	.debug_frame
  18              		.section	.text.VinE_Write,"ax",%progbits
  19              		.align	2
  20              		.global	VinE_Write
  21              		.thumb
  22              		.thumb_func
  23              		.type	VinE_Write, %function
  24              	VinE_Write:
  25              	.LFB0:
  26              		.file 1 ".\\Generated_Source\\PSoC5\\VinE.c"
   1:.\Generated_Source\PSoC5/VinE.c **** /*******************************************************************************
   2:.\Generated_Source\PSoC5/VinE.c **** * File Name: VinE.c  
   3:.\Generated_Source\PSoC5/VinE.c **** * Version 1.90
   4:.\Generated_Source\PSoC5/VinE.c **** *
   5:.\Generated_Source\PSoC5/VinE.c **** * Description:
   6:.\Generated_Source\PSoC5/VinE.c **** *  This file contains API to enable firmware control of a Pins component.
   7:.\Generated_Source\PSoC5/VinE.c **** *
   8:.\Generated_Source\PSoC5/VinE.c **** * Note:
   9:.\Generated_Source\PSoC5/VinE.c **** *
  10:.\Generated_Source\PSoC5/VinE.c **** ********************************************************************************
  11:.\Generated_Source\PSoC5/VinE.c **** * Copyright 2008-2012, Cypress Semiconductor Corporation.  All rights reserved.
  12:.\Generated_Source\PSoC5/VinE.c **** * You may use this file only in accordance with the license, terms, conditions, 
  13:.\Generated_Source\PSoC5/VinE.c **** * disclaimers, and limitations in the end user license agreement accompanying 
  14:.\Generated_Source\PSoC5/VinE.c **** * the software package with which this file was provided.
  15:.\Generated_Source\PSoC5/VinE.c **** *******************************************************************************/
  16:.\Generated_Source\PSoC5/VinE.c **** 
  17:.\Generated_Source\PSoC5/VinE.c **** #include "cytypes.h"
  18:.\Generated_Source\PSoC5/VinE.c **** #include "VinE.h"
  19:.\Generated_Source\PSoC5/VinE.c **** 
  20:.\Generated_Source\PSoC5/VinE.c **** /* APIs are not generated for P15[7:6] on PSoC 5 */
  21:.\Generated_Source\PSoC5/VinE.c **** #if !(CY_PSOC5A &&\
  22:.\Generated_Source\PSoC5/VinE.c **** 	 VinE__PORT == 15 && ((VinE__MASK & 0xC0) != 0))
  23:.\Generated_Source\PSoC5/VinE.c **** 
  24:.\Generated_Source\PSoC5/VinE.c **** 
  25:.\Generated_Source\PSoC5/VinE.c **** /*******************************************************************************
  26:.\Generated_Source\PSoC5/VinE.c **** * Function Name: VinE_Write
  27:.\Generated_Source\PSoC5/VinE.c **** ********************************************************************************
  28:.\Generated_Source\PSoC5/VinE.c **** *
  29:.\Generated_Source\PSoC5/VinE.c **** * Summary:
  30:.\Generated_Source\PSoC5/VinE.c **** *  Assign a new value to the digital port's data output register.  
  31:.\Generated_Source\PSoC5/VinE.c **** *
ARM GAS  C:\Users\SCOTTC~1\AppData\Local\Temp\ccC1bJDY.s 			page 2


  32:.\Generated_Source\PSoC5/VinE.c **** * Parameters:  
  33:.\Generated_Source\PSoC5/VinE.c **** *  prtValue:  The value to be assigned to the Digital Port. 
  34:.\Generated_Source\PSoC5/VinE.c **** *
  35:.\Generated_Source\PSoC5/VinE.c **** * Return: 
  36:.\Generated_Source\PSoC5/VinE.c **** *  None
  37:.\Generated_Source\PSoC5/VinE.c **** *  
  38:.\Generated_Source\PSoC5/VinE.c **** *******************************************************************************/
  39:.\Generated_Source\PSoC5/VinE.c **** void VinE_Write(uint8 value) 
  40:.\Generated_Source\PSoC5/VinE.c **** {
  27              		.loc 1 40 0
  28              		.cfi_startproc
  29              		@ args = 0, pretend = 0, frame = 16
  30              		@ frame_needed = 1, uses_anonymous_args = 0
  31              		@ link register save eliminated.
  32 0000 80B4     		push	{r7}
  33              		.cfi_def_cfa_offset 4
  34              		.cfi_offset 7, -4
  35 0002 85B0     		sub	sp, sp, #20
  36              		.cfi_def_cfa_offset 24
  37 0004 00AF     		add	r7, sp, #0
  38              		.cfi_def_cfa_register 7
  39 0006 0346     		mov	r3, r0
  40 0008 FB71     		strb	r3, [r7, #7]
  41:.\Generated_Source\PSoC5/VinE.c ****     uint8 staticBits = (VinE_DR & (uint8)(~VinE_MASK));
  41              		.loc 1 41 0
  42 000a 0B4B     		ldr	r3, .L2
  43 000c 1B78     		ldrb	r3, [r3]
  44 000e DBB2     		uxtb	r3, r3
  45 0010 23F04003 		bic	r3, r3, #64
  46 0014 FB73     		strb	r3, [r7, #15]
  42:.\Generated_Source\PSoC5/VinE.c ****     VinE_DR = staticBits | ((uint8)(value << VinE_SHIFT) & VinE_MASK);
  47              		.loc 1 42 0
  48 0016 084B     		ldr	r3, .L2
  49 0018 FA79     		ldrb	r2, [r7, #7]
  50 001a 9201     		lsls	r2, r2, #6
  51 001c D2B2     		uxtb	r2, r2
  52 001e 02F04002 		and	r2, r2, #64
  53 0022 D1B2     		uxtb	r1, r2
  54 0024 FA7B     		ldrb	r2, [r7, #15]
  55 0026 0A43     		orrs	r2, r2, r1
  56 0028 D2B2     		uxtb	r2, r2
  57 002a 1A70     		strb	r2, [r3]
  43:.\Generated_Source\PSoC5/VinE.c **** }
  58              		.loc 1 43 0
  59 002c 1437     		adds	r7, r7, #20
  60 002e BD46     		mov	sp, r7
  61              		@ sp needed
  62 0030 5DF8047B 		ldr	r7, [sp], #4
  63 0034 7047     		bx	lr
  64              	.L3:
  65 0036 00BF     		.align	2
  66              	.L2:
  67 0038 00510040 		.word	1073762560
  68              		.cfi_endproc
  69              	.LFE0:
  70              		.size	VinE_Write, .-VinE_Write
  71              		.section	.text.VinE_SetDriveMode,"ax",%progbits
ARM GAS  C:\Users\SCOTTC~1\AppData\Local\Temp\ccC1bJDY.s 			page 3


  72              		.align	2
  73              		.global	VinE_SetDriveMode
  74              		.thumb
  75              		.thumb_func
  76              		.type	VinE_SetDriveMode, %function
  77              	VinE_SetDriveMode:
  78              	.LFB1:
  44:.\Generated_Source\PSoC5/VinE.c **** 
  45:.\Generated_Source\PSoC5/VinE.c **** 
  46:.\Generated_Source\PSoC5/VinE.c **** /*******************************************************************************
  47:.\Generated_Source\PSoC5/VinE.c **** * Function Name: VinE_SetDriveMode
  48:.\Generated_Source\PSoC5/VinE.c **** ********************************************************************************
  49:.\Generated_Source\PSoC5/VinE.c **** *
  50:.\Generated_Source\PSoC5/VinE.c **** * Summary:
  51:.\Generated_Source\PSoC5/VinE.c **** *  Change the drive mode on the pins of the port.
  52:.\Generated_Source\PSoC5/VinE.c **** * 
  53:.\Generated_Source\PSoC5/VinE.c **** * Parameters:  
  54:.\Generated_Source\PSoC5/VinE.c **** *  mode:  Change the pins to this drive mode.
  55:.\Generated_Source\PSoC5/VinE.c **** *
  56:.\Generated_Source\PSoC5/VinE.c **** * Return: 
  57:.\Generated_Source\PSoC5/VinE.c **** *  None
  58:.\Generated_Source\PSoC5/VinE.c **** *
  59:.\Generated_Source\PSoC5/VinE.c **** *******************************************************************************/
  60:.\Generated_Source\PSoC5/VinE.c **** void VinE_SetDriveMode(uint8 mode) 
  61:.\Generated_Source\PSoC5/VinE.c **** {
  79              		.loc 1 61 0
  80              		.cfi_startproc
  81              		@ args = 0, pretend = 0, frame = 8
  82              		@ frame_needed = 1, uses_anonymous_args = 0
  83              		@ link register save eliminated.
  84 0000 80B4     		push	{r7}
  85              		.cfi_def_cfa_offset 4
  86              		.cfi_offset 7, -4
  87 0002 83B0     		sub	sp, sp, #12
  88              		.cfi_def_cfa_offset 16
  89 0004 00AF     		add	r7, sp, #0
  90              		.cfi_def_cfa_register 7
  91 0006 0346     		mov	r3, r0
  92 0008 FB71     		strb	r3, [r7, #7]
  62:.\Generated_Source\PSoC5/VinE.c **** 	CyPins_SetPinDriveMode(VinE_0, mode);
  93              		.loc 1 62 0
  94 000a 0A4B     		ldr	r3, .L5
  95 000c 094A     		ldr	r2, .L5
  96 000e 1278     		ldrb	r2, [r2]
  97 0010 D2B2     		uxtb	r2, r2
  98 0012 D2B2     		uxtb	r2, r2
  99 0014 22F00E02 		bic	r2, r2, #14
 100 0018 D1B2     		uxtb	r1, r2
 101 001a FA79     		ldrb	r2, [r7, #7]	@ zero_extendqisi2
 102 001c 02F00E02 		and	r2, r2, #14
 103 0020 D2B2     		uxtb	r2, r2
 104 0022 0A43     		orrs	r2, r2, r1
 105 0024 D2B2     		uxtb	r2, r2
 106 0026 D2B2     		uxtb	r2, r2
 107 0028 1A70     		strb	r2, [r3]
  63:.\Generated_Source\PSoC5/VinE.c **** }
 108              		.loc 1 63 0
ARM GAS  C:\Users\SCOTTC~1\AppData\Local\Temp\ccC1bJDY.s 			page 4


 109 002a 0C37     		adds	r7, r7, #12
 110 002c BD46     		mov	sp, r7
 111              		@ sp needed
 112 002e 5DF8047B 		ldr	r7, [sp], #4
 113 0032 7047     		bx	lr
 114              	.L6:
 115              		.align	2
 116              	.L5:
 117 0034 06500040 		.word	1073762310
 118              		.cfi_endproc
 119              	.LFE1:
 120              		.size	VinE_SetDriveMode, .-VinE_SetDriveMode
 121              		.section	.text.VinE_Read,"ax",%progbits
 122              		.align	2
 123              		.global	VinE_Read
 124              		.thumb
 125              		.thumb_func
 126              		.type	VinE_Read, %function
 127              	VinE_Read:
 128              	.LFB2:
  64:.\Generated_Source\PSoC5/VinE.c **** 
  65:.\Generated_Source\PSoC5/VinE.c **** 
  66:.\Generated_Source\PSoC5/VinE.c **** /*******************************************************************************
  67:.\Generated_Source\PSoC5/VinE.c **** * Function Name: VinE_Read
  68:.\Generated_Source\PSoC5/VinE.c **** ********************************************************************************
  69:.\Generated_Source\PSoC5/VinE.c **** *
  70:.\Generated_Source\PSoC5/VinE.c **** * Summary:
  71:.\Generated_Source\PSoC5/VinE.c **** *  Read the current value on the pins of the Digital Port in right justified 
  72:.\Generated_Source\PSoC5/VinE.c **** *  form.
  73:.\Generated_Source\PSoC5/VinE.c **** *
  74:.\Generated_Source\PSoC5/VinE.c **** * Parameters:  
  75:.\Generated_Source\PSoC5/VinE.c **** *  None
  76:.\Generated_Source\PSoC5/VinE.c **** *
  77:.\Generated_Source\PSoC5/VinE.c **** * Return: 
  78:.\Generated_Source\PSoC5/VinE.c **** *  Returns the current value of the Digital Port as a right justified number
  79:.\Generated_Source\PSoC5/VinE.c **** *  
  80:.\Generated_Source\PSoC5/VinE.c **** * Note:
  81:.\Generated_Source\PSoC5/VinE.c **** *  Macro VinE_ReadPS calls this function. 
  82:.\Generated_Source\PSoC5/VinE.c **** *  
  83:.\Generated_Source\PSoC5/VinE.c **** *******************************************************************************/
  84:.\Generated_Source\PSoC5/VinE.c **** uint8 VinE_Read(void) 
  85:.\Generated_Source\PSoC5/VinE.c **** {
 129              		.loc 1 85 0
 130              		.cfi_startproc
 131              		@ args = 0, pretend = 0, frame = 0
 132              		@ frame_needed = 1, uses_anonymous_args = 0
 133              		@ link register save eliminated.
 134 0000 80B4     		push	{r7}
 135              		.cfi_def_cfa_offset 4
 136              		.cfi_offset 7, -4
 137 0002 00AF     		add	r7, sp, #0
 138              		.cfi_def_cfa_register 7
  86:.\Generated_Source\PSoC5/VinE.c ****     return (VinE_PS & VinE_MASK) >> VinE_SHIFT;
 139              		.loc 1 86 0
 140 0004 054B     		ldr	r3, .L9
 141 0006 1B78     		ldrb	r3, [r3]
 142 0008 DBB2     		uxtb	r3, r3
ARM GAS  C:\Users\SCOTTC~1\AppData\Local\Temp\ccC1bJDY.s 			page 5


 143 000a 03F04003 		and	r3, r3, #64
 144 000e 9B09     		lsrs	r3, r3, #6
 145 0010 DBB2     		uxtb	r3, r3
  87:.\Generated_Source\PSoC5/VinE.c **** }
 146              		.loc 1 87 0
 147 0012 1846     		mov	r0, r3
 148 0014 BD46     		mov	sp, r7
 149              		@ sp needed
 150 0016 5DF8047B 		ldr	r7, [sp], #4
 151 001a 7047     		bx	lr
 152              	.L10:
 153              		.align	2
 154              	.L9:
 155 001c 01510040 		.word	1073762561
 156              		.cfi_endproc
 157              	.LFE2:
 158              		.size	VinE_Read, .-VinE_Read
 159              		.section	.text.VinE_ReadDataReg,"ax",%progbits
 160              		.align	2
 161              		.global	VinE_ReadDataReg
 162              		.thumb
 163              		.thumb_func
 164              		.type	VinE_ReadDataReg, %function
 165              	VinE_ReadDataReg:
 166              	.LFB3:
  88:.\Generated_Source\PSoC5/VinE.c **** 
  89:.\Generated_Source\PSoC5/VinE.c **** 
  90:.\Generated_Source\PSoC5/VinE.c **** /*******************************************************************************
  91:.\Generated_Source\PSoC5/VinE.c **** * Function Name: VinE_ReadDataReg
  92:.\Generated_Source\PSoC5/VinE.c **** ********************************************************************************
  93:.\Generated_Source\PSoC5/VinE.c **** *
  94:.\Generated_Source\PSoC5/VinE.c **** * Summary:
  95:.\Generated_Source\PSoC5/VinE.c **** *  Read the current value assigned to a Digital Port's data output register
  96:.\Generated_Source\PSoC5/VinE.c **** *
  97:.\Generated_Source\PSoC5/VinE.c **** * Parameters:  
  98:.\Generated_Source\PSoC5/VinE.c **** *  None 
  99:.\Generated_Source\PSoC5/VinE.c **** *
 100:.\Generated_Source\PSoC5/VinE.c **** * Return: 
 101:.\Generated_Source\PSoC5/VinE.c **** *  Returns the current value assigned to the Digital Port's data output register
 102:.\Generated_Source\PSoC5/VinE.c **** *  
 103:.\Generated_Source\PSoC5/VinE.c **** *******************************************************************************/
 104:.\Generated_Source\PSoC5/VinE.c **** uint8 VinE_ReadDataReg(void) 
 105:.\Generated_Source\PSoC5/VinE.c **** {
 167              		.loc 1 105 0
 168              		.cfi_startproc
 169              		@ args = 0, pretend = 0, frame = 0
 170              		@ frame_needed = 1, uses_anonymous_args = 0
 171              		@ link register save eliminated.
 172 0000 80B4     		push	{r7}
 173              		.cfi_def_cfa_offset 4
 174              		.cfi_offset 7, -4
 175 0002 00AF     		add	r7, sp, #0
 176              		.cfi_def_cfa_register 7
 106:.\Generated_Source\PSoC5/VinE.c ****     return (VinE_DR & VinE_MASK) >> VinE_SHIFT;
 177              		.loc 1 106 0
 178 0004 054B     		ldr	r3, .L13
 179 0006 1B78     		ldrb	r3, [r3]
ARM GAS  C:\Users\SCOTTC~1\AppData\Local\Temp\ccC1bJDY.s 			page 6


 180 0008 DBB2     		uxtb	r3, r3
 181 000a 03F04003 		and	r3, r3, #64
 182 000e 9B09     		lsrs	r3, r3, #6
 183 0010 DBB2     		uxtb	r3, r3
 107:.\Generated_Source\PSoC5/VinE.c **** }
 184              		.loc 1 107 0
 185 0012 1846     		mov	r0, r3
 186 0014 BD46     		mov	sp, r7
 187              		@ sp needed
 188 0016 5DF8047B 		ldr	r7, [sp], #4
 189 001a 7047     		bx	lr
 190              	.L14:
 191              		.align	2
 192              	.L13:
 193 001c 00510040 		.word	1073762560
 194              		.cfi_endproc
 195              	.LFE3:
 196              		.size	VinE_ReadDataReg, .-VinE_ReadDataReg
 197              		.text
 198              	.Letext0:
 199              		.file 2 ".\\Generated_Source\\PSoC5\\cytypes.h"