ARM GAS  C:\Users\SCOTTC~1\AppData\Local\Temp\cc56Hi2f.s 			page 1


   1              		.syntax unified
   2              		.cpu cortex-m3
   3              		.fpu softvfp
   4              		.eabi_attribute 20, 1
   5              		.eabi_attribute 21, 1
   6              		.eabi_attribute 23, 3
   7              		.eabi_attribute 24, 1
   8              		.eabi_attribute 25, 1
   9              		.eabi_attribute 26, 1
  10              		.eabi_attribute 30, 6
  11              		.eabi_attribute 34, 1
  12              		.eabi_attribute 18, 4
  13              		.thumb
  14              		.file	"cyfitter_cfg.c"
  15              		.text
  16              	.Ltext0:
  17              		.cfi_sections	.debug_frame
  18              		.section	.text.CYMEMZERO,"ax",%progbits
  19              		.align	2
  20              		.thumb
  21              		.thumb_func
  22              		.type	CYMEMZERO, %function
  23              	CYMEMZERO:
  24              	.LFB0:
  25              		.file 1 ".\\Generated_Source\\PSoC5\\cyfitter_cfg.c"
   1:.\Generated_Source\PSoC5/cyfitter_cfg.c **** /*******************************************************************************
   2:.\Generated_Source\PSoC5/cyfitter_cfg.c **** * FILENAME: cyfitter_cfg.c
   3:.\Generated_Source\PSoC5/cyfitter_cfg.c **** * 
   4:.\Generated_Source\PSoC5/cyfitter_cfg.c **** * PSoC Creator  3.2 SP1
   5:.\Generated_Source\PSoC5/cyfitter_cfg.c **** *
   6:.\Generated_Source\PSoC5/cyfitter_cfg.c **** * DESCRIPTION:
   7:.\Generated_Source\PSoC5/cyfitter_cfg.c **** * This file contains device initialization code.
   8:.\Generated_Source\PSoC5/cyfitter_cfg.c **** * Except for the user defined sections in CyClockStartupError(), this file should not be modified.
   9:.\Generated_Source\PSoC5/cyfitter_cfg.c **** * This file is automatically generated by PSoC Creator.
  10:.\Generated_Source\PSoC5/cyfitter_cfg.c **** *
  11:.\Generated_Source\PSoC5/cyfitter_cfg.c **** ********************************************************************************
  12:.\Generated_Source\PSoC5/cyfitter_cfg.c **** * Copyright (c) 2007-2015 Cypress Semiconductor.  All rights reserved.
  13:.\Generated_Source\PSoC5/cyfitter_cfg.c **** * You may use this file only in accordance with the license, terms, conditions, 
  14:.\Generated_Source\PSoC5/cyfitter_cfg.c **** * disclaimers, and limitations in the end user license agreement accompanying 
  15:.\Generated_Source\PSoC5/cyfitter_cfg.c **** * the software package with which this file was provided.
  16:.\Generated_Source\PSoC5/cyfitter_cfg.c **** ********************************************************************************/
  17:.\Generated_Source\PSoC5/cyfitter_cfg.c **** 
  18:.\Generated_Source\PSoC5/cyfitter_cfg.c **** #include <string.h>
  19:.\Generated_Source\PSoC5/cyfitter_cfg.c **** #include "cytypes.h"
  20:.\Generated_Source\PSoC5/cyfitter_cfg.c **** #include "cydevice_trm.h"
  21:.\Generated_Source\PSoC5/cyfitter_cfg.c **** #include "cyfitter.h"
  22:.\Generated_Source\PSoC5/cyfitter_cfg.c **** #include "CyLib.h"
  23:.\Generated_Source\PSoC5/cyfitter_cfg.c **** #include "cyfitter_cfg.h"
  24:.\Generated_Source\PSoC5/cyfitter_cfg.c **** 
  25:.\Generated_Source\PSoC5/cyfitter_cfg.c **** 
  26:.\Generated_Source\PSoC5/cyfitter_cfg.c **** #if defined(__GNUC__) || defined(__ARMCC_VERSION)
  27:.\Generated_Source\PSoC5/cyfitter_cfg.c ****     #define CYPACKED 
  28:.\Generated_Source\PSoC5/cyfitter_cfg.c ****     #define CYPACKED_ATTR __attribute__ ((packed))
  29:.\Generated_Source\PSoC5/cyfitter_cfg.c ****     #define CYALIGNED __attribute__ ((aligned))
  30:.\Generated_Source\PSoC5/cyfitter_cfg.c ****     #define CY_CFG_UNUSED __attribute__ ((unused))
  31:.\Generated_Source\PSoC5/cyfitter_cfg.c ****     #define CY_CFG_SECTION __attribute__ ((section(".psocinit")))
  32:.\Generated_Source\PSoC5/cyfitter_cfg.c ****     
ARM GAS  C:\Users\SCOTTC~1\AppData\Local\Temp\cc56Hi2f.s 			page 2


  33:.\Generated_Source\PSoC5/cyfitter_cfg.c ****     #if defined(__ARMCC_VERSION)
  34:.\Generated_Source\PSoC5/cyfitter_cfg.c ****         #define CY_CFG_MEMORY_BARRIER() __memory_changed()
  35:.\Generated_Source\PSoC5/cyfitter_cfg.c ****     #else
  36:.\Generated_Source\PSoC5/cyfitter_cfg.c ****         #define CY_CFG_MEMORY_BARRIER() __sync_synchronize()
  37:.\Generated_Source\PSoC5/cyfitter_cfg.c ****     #endif
  38:.\Generated_Source\PSoC5/cyfitter_cfg.c ****     
  39:.\Generated_Source\PSoC5/cyfitter_cfg.c **** #elif defined(__ICCARM__)
  40:.\Generated_Source\PSoC5/cyfitter_cfg.c ****     #include <intrinsics.h>
  41:.\Generated_Source\PSoC5/cyfitter_cfg.c **** 
  42:.\Generated_Source\PSoC5/cyfitter_cfg.c ****     #define CYPACKED __packed
  43:.\Generated_Source\PSoC5/cyfitter_cfg.c ****     #define CYPACKED_ATTR 
  44:.\Generated_Source\PSoC5/cyfitter_cfg.c ****     #define CYALIGNED _Pragma("data_alignment=4")
  45:.\Generated_Source\PSoC5/cyfitter_cfg.c ****     #define CY_CFG_UNUSED _Pragma("diag_suppress=Pe177")
  46:.\Generated_Source\PSoC5/cyfitter_cfg.c ****     #define CY_CFG_SECTION _Pragma("location=\".psocinit\"")
  47:.\Generated_Source\PSoC5/cyfitter_cfg.c ****     
  48:.\Generated_Source\PSoC5/cyfitter_cfg.c ****     #define CY_CFG_MEMORY_BARRIER() __DMB()
  49:.\Generated_Source\PSoC5/cyfitter_cfg.c ****     
  50:.\Generated_Source\PSoC5/cyfitter_cfg.c **** #else
  51:.\Generated_Source\PSoC5/cyfitter_cfg.c ****     #error Unsupported toolchain
  52:.\Generated_Source\PSoC5/cyfitter_cfg.c **** #endif
  53:.\Generated_Source\PSoC5/cyfitter_cfg.c **** 
  54:.\Generated_Source\PSoC5/cyfitter_cfg.c **** 
  55:.\Generated_Source\PSoC5/cyfitter_cfg.c **** CY_CFG_UNUSED
  56:.\Generated_Source\PSoC5/cyfitter_cfg.c **** static void CYMEMZERO(void *s, size_t n);
  57:.\Generated_Source\PSoC5/cyfitter_cfg.c **** CY_CFG_UNUSED
  58:.\Generated_Source\PSoC5/cyfitter_cfg.c **** static void CYMEMZERO(void *s, size_t n)
  59:.\Generated_Source\PSoC5/cyfitter_cfg.c **** {
  26              		.loc 1 59 0
  27              		.cfi_startproc
  28              		@ args = 0, pretend = 0, frame = 8
  29              		@ frame_needed = 1, uses_anonymous_args = 0
  30 0000 80B5     		push	{r7, lr}
  31              		.cfi_def_cfa_offset 8
  32              		.cfi_offset 7, -8
  33              		.cfi_offset 14, -4
  34 0002 82B0     		sub	sp, sp, #8
  35              		.cfi_def_cfa_offset 16
  36 0004 00AF     		add	r7, sp, #0
  37              		.cfi_def_cfa_register 7
  38 0006 7860     		str	r0, [r7, #4]
  39 0008 3960     		str	r1, [r7]
  60:.\Generated_Source\PSoC5/cyfitter_cfg.c **** 	(void)memset(s, 0, n);
  40              		.loc 1 60 0
  41 000a 7868     		ldr	r0, [r7, #4]
  42 000c 0021     		movs	r1, #0
  43 000e 3A68     		ldr	r2, [r7]
  44 0010 FFF7FEFF 		bl	memset
  61:.\Generated_Source\PSoC5/cyfitter_cfg.c **** }
  45              		.loc 1 61 0
  46 0014 0837     		adds	r7, r7, #8
  47 0016 BD46     		mov	sp, r7
  48              		@ sp needed
  49 0018 80BD     		pop	{r7, pc}
  50              		.cfi_endproc
  51              	.LFE0:
  52              		.size	CYMEMZERO, .-CYMEMZERO
  53 001a 00BF     		.section	.text.CYCONFIGCPY,"ax",%progbits
ARM GAS  C:\Users\SCOTTC~1\AppData\Local\Temp\cc56Hi2f.s 			page 3


  54              		.align	2
  55              		.thumb
  56              		.thumb_func
  57              		.type	CYCONFIGCPY, %function
  58              	CYCONFIGCPY:
  59              	.LFB1:
  62:.\Generated_Source\PSoC5/cyfitter_cfg.c **** CY_CFG_UNUSED
  63:.\Generated_Source\PSoC5/cyfitter_cfg.c **** static void CYCONFIGCPY(void *dest, const void *src, size_t n);
  64:.\Generated_Source\PSoC5/cyfitter_cfg.c **** CY_CFG_UNUSED
  65:.\Generated_Source\PSoC5/cyfitter_cfg.c **** static void CYCONFIGCPY(void *dest, const void *src, size_t n)
  66:.\Generated_Source\PSoC5/cyfitter_cfg.c **** {
  60              		.loc 1 66 0
  61              		.cfi_startproc
  62              		@ args = 0, pretend = 0, frame = 16
  63              		@ frame_needed = 1, uses_anonymous_args = 0
  64 0000 80B5     		push	{r7, lr}
  65              		.cfi_def_cfa_offset 8
  66              		.cfi_offset 7, -8
  67              		.cfi_offset 14, -4
  68 0002 84B0     		sub	sp, sp, #16
  69              		.cfi_def_cfa_offset 24
  70 0004 00AF     		add	r7, sp, #0
  71              		.cfi_def_cfa_register 7
  72 0006 F860     		str	r0, [r7, #12]
  73 0008 B960     		str	r1, [r7, #8]
  74 000a 7A60     		str	r2, [r7, #4]
  67:.\Generated_Source\PSoC5/cyfitter_cfg.c **** 	(void)memcpy(dest, src, n);
  75              		.loc 1 67 0
  76 000c F868     		ldr	r0, [r7, #12]
  77 000e B968     		ldr	r1, [r7, #8]
  78 0010 7A68     		ldr	r2, [r7, #4]
  79 0012 FFF7FEFF 		bl	memcpy
  68:.\Generated_Source\PSoC5/cyfitter_cfg.c **** }
  80              		.loc 1 68 0
  81 0016 1037     		adds	r7, r7, #16
  82 0018 BD46     		mov	sp, r7
  83              		@ sp needed
  84 001a 80BD     		pop	{r7, pc}
  85              		.cfi_endproc
  86              	.LFE1:
  87              		.size	CYCONFIGCPY, .-CYCONFIGCPY
  88              		.section	.text.CYCONFIGCPYCODE,"ax",%progbits
  89              		.align	2
  90              		.thumb
  91              		.thumb_func
  92              		.type	CYCONFIGCPYCODE, %function
  93              	CYCONFIGCPYCODE:
  94              	.LFB2:
  69:.\Generated_Source\PSoC5/cyfitter_cfg.c **** CY_CFG_UNUSED
  70:.\Generated_Source\PSoC5/cyfitter_cfg.c **** static void CYCONFIGCPYCODE(void *dest, const void *src, size_t n);
  71:.\Generated_Source\PSoC5/cyfitter_cfg.c **** CY_CFG_UNUSED
  72:.\Generated_Source\PSoC5/cyfitter_cfg.c **** static void CYCONFIGCPYCODE(void *dest, const void *src, size_t n)
  73:.\Generated_Source\PSoC5/cyfitter_cfg.c **** {
  95              		.loc 1 73 0
  96              		.cfi_startproc
  97              		@ args = 0, pretend = 0, frame = 16
  98              		@ frame_needed = 1, uses_anonymous_args = 0
ARM GAS  C:\Users\SCOTTC~1\AppData\Local\Temp\cc56Hi2f.s 			page 4


  99 0000 80B5     		push	{r7, lr}
 100              		.cfi_def_cfa_offset 8
 101              		.cfi_offset 7, -8
 102              		.cfi_offset 14, -4
 103 0002 84B0     		sub	sp, sp, #16
 104              		.cfi_def_cfa_offset 24
 105 0004 00AF     		add	r7, sp, #0
 106              		.cfi_def_cfa_register 7
 107 0006 F860     		str	r0, [r7, #12]
 108 0008 B960     		str	r1, [r7, #8]
 109 000a 7A60     		str	r2, [r7, #4]
  74:.\Generated_Source\PSoC5/cyfitter_cfg.c **** 	(void)memcpy(dest, src, n);
 110              		.loc 1 74 0
 111 000c F868     		ldr	r0, [r7, #12]
 112 000e B968     		ldr	r1, [r7, #8]
 113 0010 7A68     		ldr	r2, [r7, #4]
 114 0012 FFF7FEFF 		bl	memcpy
  75:.\Generated_Source\PSoC5/cyfitter_cfg.c **** }
 115              		.loc 1 75 0
 116 0016 1037     		adds	r7, r7, #16
 117 0018 BD46     		mov	sp, r7
 118              		@ sp needed
 119 001a 80BD     		pop	{r7, pc}
 120              		.cfi_endproc
 121              	.LFE2:
 122              		.size	CYCONFIGCPYCODE, .-CYCONFIGCPYCODE
 123              		.section	.text.cfg_write_bytes32,"ax",%progbits
 124              		.align	2
 125              		.thumb
 126              		.thumb_func
 127              		.type	cfg_write_bytes32, %function
 128              	cfg_write_bytes32:
 129              	.LFB3:
  76:.\Generated_Source\PSoC5/cyfitter_cfg.c **** 
  77:.\Generated_Source\PSoC5/cyfitter_cfg.c **** 
  78:.\Generated_Source\PSoC5/cyfitter_cfg.c **** 
  79:.\Generated_Source\PSoC5/cyfitter_cfg.c **** /* Clock startup error codes                                                   */
  80:.\Generated_Source\PSoC5/cyfitter_cfg.c **** #define CYCLOCKSTART_NO_ERROR    0u
  81:.\Generated_Source\PSoC5/cyfitter_cfg.c **** #define CYCLOCKSTART_XTAL_ERROR  1u
  82:.\Generated_Source\PSoC5/cyfitter_cfg.c **** #define CYCLOCKSTART_32KHZ_ERROR 2u
  83:.\Generated_Source\PSoC5/cyfitter_cfg.c **** #define CYCLOCKSTART_PLL_ERROR   3u
  84:.\Generated_Source\PSoC5/cyfitter_cfg.c **** 
  85:.\Generated_Source\PSoC5/cyfitter_cfg.c **** #ifdef CY_NEED_CYCLOCKSTARTUPERROR
  86:.\Generated_Source\PSoC5/cyfitter_cfg.c **** /*******************************************************************************
  87:.\Generated_Source\PSoC5/cyfitter_cfg.c **** * Function Name: CyClockStartupError
  88:.\Generated_Source\PSoC5/cyfitter_cfg.c **** ********************************************************************************
  89:.\Generated_Source\PSoC5/cyfitter_cfg.c **** * Summary:
  90:.\Generated_Source\PSoC5/cyfitter_cfg.c **** *  If an error is encountered during clock configuration (crystal startup error,
  91:.\Generated_Source\PSoC5/cyfitter_cfg.c **** *  PLL lock error, etc.), the system will end up here.  Unless reimplemented by
  92:.\Generated_Source\PSoC5/cyfitter_cfg.c **** *  the customer, this function will stop in an infinite loop.
  93:.\Generated_Source\PSoC5/cyfitter_cfg.c **** *
  94:.\Generated_Source\PSoC5/cyfitter_cfg.c **** * Parameters:
  95:.\Generated_Source\PSoC5/cyfitter_cfg.c **** *   void
  96:.\Generated_Source\PSoC5/cyfitter_cfg.c **** *
  97:.\Generated_Source\PSoC5/cyfitter_cfg.c **** * Return:
  98:.\Generated_Source\PSoC5/cyfitter_cfg.c **** *   void
  99:.\Generated_Source\PSoC5/cyfitter_cfg.c **** *
ARM GAS  C:\Users\SCOTTC~1\AppData\Local\Temp\cc56Hi2f.s 			page 5


 100:.\Generated_Source\PSoC5/cyfitter_cfg.c **** *******************************************************************************/
 101:.\Generated_Source\PSoC5/cyfitter_cfg.c **** CY_CFG_UNUSED
 102:.\Generated_Source\PSoC5/cyfitter_cfg.c **** static void CyClockStartupError(uint8 errorCode);
 103:.\Generated_Source\PSoC5/cyfitter_cfg.c **** CY_CFG_UNUSED
 104:.\Generated_Source\PSoC5/cyfitter_cfg.c **** static void CyClockStartupError(uint8 errorCode)
 105:.\Generated_Source\PSoC5/cyfitter_cfg.c **** {
 106:.\Generated_Source\PSoC5/cyfitter_cfg.c ****     /* To remove the compiler warning if errorCode not used.                */
 107:.\Generated_Source\PSoC5/cyfitter_cfg.c ****     errorCode = errorCode;
 108:.\Generated_Source\PSoC5/cyfitter_cfg.c **** 
 109:.\Generated_Source\PSoC5/cyfitter_cfg.c ****     /* `#START CyClockStartupError` */
 110:.\Generated_Source\PSoC5/cyfitter_cfg.c **** 
 111:.\Generated_Source\PSoC5/cyfitter_cfg.c ****     /* If we have a clock startup error (bad MHz crystal, PLL lock, etc.),  */
 112:.\Generated_Source\PSoC5/cyfitter_cfg.c ****     /* we will end up here to allow the customer to implement something to  */
 113:.\Generated_Source\PSoC5/cyfitter_cfg.c ****     /* deal with the clock condition.                                       */
 114:.\Generated_Source\PSoC5/cyfitter_cfg.c **** 
 115:.\Generated_Source\PSoC5/cyfitter_cfg.c ****     /* `#END` */
 116:.\Generated_Source\PSoC5/cyfitter_cfg.c **** 
 117:.\Generated_Source\PSoC5/cyfitter_cfg.c ****     /* If nothing else, stop here since the clocks have not started         */
 118:.\Generated_Source\PSoC5/cyfitter_cfg.c ****     /* correctly.                                                           */
 119:.\Generated_Source\PSoC5/cyfitter_cfg.c ****     while(1) {}
 120:.\Generated_Source\PSoC5/cyfitter_cfg.c **** }
 121:.\Generated_Source\PSoC5/cyfitter_cfg.c **** #endif
 122:.\Generated_Source\PSoC5/cyfitter_cfg.c **** 
 123:.\Generated_Source\PSoC5/cyfitter_cfg.c **** #define CY_CFG_BASE_ADDR_COUNT 19u
 124:.\Generated_Source\PSoC5/cyfitter_cfg.c **** CYPACKED typedef struct
 125:.\Generated_Source\PSoC5/cyfitter_cfg.c **** {
 126:.\Generated_Source\PSoC5/cyfitter_cfg.c **** 	uint8 offset;
 127:.\Generated_Source\PSoC5/cyfitter_cfg.c **** 	uint8 value;
 128:.\Generated_Source\PSoC5/cyfitter_cfg.c **** } CYPACKED_ATTR cy_cfg_addrvalue_t;
 129:.\Generated_Source\PSoC5/cyfitter_cfg.c **** 
 130:.\Generated_Source\PSoC5/cyfitter_cfg.c **** #define cy_cfg_addr_table ((const uint32 CYFAR *)0x48000000u)
 131:.\Generated_Source\PSoC5/cyfitter_cfg.c **** #define cy_cfg_data_table ((const cy_cfg_addrvalue_t CYFAR *)0x4800004Cu)
 132:.\Generated_Source\PSoC5/cyfitter_cfg.c **** 
 133:.\Generated_Source\PSoC5/cyfitter_cfg.c **** /* IOPINS0_0 Address: CYREG_PRT0_DM0 Size (bytes): 8 */
 134:.\Generated_Source\PSoC5/cyfitter_cfg.c **** #define BS_IOPINS0_0_VAL ((const uint8 CYFAR *)0x480000F0u)
 135:.\Generated_Source\PSoC5/cyfitter_cfg.c **** 
 136:.\Generated_Source\PSoC5/cyfitter_cfg.c **** /* IOPINS0_2 Address: CYREG_PRT2_DM0 Size (bytes): 8 */
 137:.\Generated_Source\PSoC5/cyfitter_cfg.c **** #define BS_IOPINS0_2_VAL ((const uint8 CYFAR *)0x480000F8u)
 138:.\Generated_Source\PSoC5/cyfitter_cfg.c **** 
 139:.\Generated_Source\PSoC5/cyfitter_cfg.c **** /* CYDEV_CLKDIST_ACFG0_CFG0 Address: CYREG_CLKDIST_ACFG0_CFG0 Size (bytes): 4 */
 140:.\Generated_Source\PSoC5/cyfitter_cfg.c **** #define BS_CYDEV_CLKDIST_ACFG0_CFG0_VAL ((const uint8 CYFAR *)0x48000100u)
 141:.\Generated_Source\PSoC5/cyfitter_cfg.c **** 
 142:.\Generated_Source\PSoC5/cyfitter_cfg.c **** /* PHUB_CFGMEM10 Address: CYREG_PHUB_CFGMEM10_CFG0 Size (bytes): 4 */
 143:.\Generated_Source\PSoC5/cyfitter_cfg.c **** #define BS_PHUB_CFGMEM10_VAL ((const uint8 CYFAR *)0x48000104u)
 144:.\Generated_Source\PSoC5/cyfitter_cfg.c **** 
 145:.\Generated_Source\PSoC5/cyfitter_cfg.c **** /* PHUB_CFGMEM1 Address: CYREG_PHUB_CFGMEM1_CFG0 Size (bytes): 4 */
 146:.\Generated_Source\PSoC5/cyfitter_cfg.c **** #define BS_PHUB_CFGMEM1_VAL ((const uint8 CYFAR *)0x48000108u)
 147:.\Generated_Source\PSoC5/cyfitter_cfg.c **** 
 148:.\Generated_Source\PSoC5/cyfitter_cfg.c **** /* PHUB_CFGMEM2 Address: CYREG_PHUB_CFGMEM2_CFG0 Size (bytes): 4 */
 149:.\Generated_Source\PSoC5/cyfitter_cfg.c **** #define BS_PHUB_CFGMEM2_VAL ((const uint8 CYFAR *)0x4800010Cu)
 150:.\Generated_Source\PSoC5/cyfitter_cfg.c **** 
 151:.\Generated_Source\PSoC5/cyfitter_cfg.c **** /* PHUB_CFGMEM8 Address: CYREG_PHUB_CFGMEM8_CFG0 Size (bytes): 4 */
 152:.\Generated_Source\PSoC5/cyfitter_cfg.c **** #define BS_PHUB_CFGMEM8_VAL ((const uint8 CYFAR *)0x48000110u)
 153:.\Generated_Source\PSoC5/cyfitter_cfg.c **** 
 154:.\Generated_Source\PSoC5/cyfitter_cfg.c **** 
 155:.\Generated_Source\PSoC5/cyfitter_cfg.c **** /*******************************************************************************
 156:.\Generated_Source\PSoC5/cyfitter_cfg.c **** * Function Name: cfg_write_bytes32
ARM GAS  C:\Users\SCOTTC~1\AppData\Local\Temp\cc56Hi2f.s 			page 6


 157:.\Generated_Source\PSoC5/cyfitter_cfg.c **** ********************************************************************************
 158:.\Generated_Source\PSoC5/cyfitter_cfg.c **** * Summary:
 159:.\Generated_Source\PSoC5/cyfitter_cfg.c **** *  This function is used for setting up the chip configuration areas that
 160:.\Generated_Source\PSoC5/cyfitter_cfg.c **** *  contain relatively sparse data.
 161:.\Generated_Source\PSoC5/cyfitter_cfg.c **** *
 162:.\Generated_Source\PSoC5/cyfitter_cfg.c **** * Parameters:
 163:.\Generated_Source\PSoC5/cyfitter_cfg.c **** *   void
 164:.\Generated_Source\PSoC5/cyfitter_cfg.c **** *
 165:.\Generated_Source\PSoC5/cyfitter_cfg.c **** * Return:
 166:.\Generated_Source\PSoC5/cyfitter_cfg.c **** *   void
 167:.\Generated_Source\PSoC5/cyfitter_cfg.c **** *
 168:.\Generated_Source\PSoC5/cyfitter_cfg.c **** *******************************************************************************/
 169:.\Generated_Source\PSoC5/cyfitter_cfg.c **** static void cfg_write_bytes32(const uint32 addr_table[], const cy_cfg_addrvalue_t data_table[]);
 170:.\Generated_Source\PSoC5/cyfitter_cfg.c **** static void cfg_write_bytes32(const uint32 addr_table[], const cy_cfg_addrvalue_t data_table[])
 171:.\Generated_Source\PSoC5/cyfitter_cfg.c **** {
 130              		.loc 1 171 0
 131              		.cfi_startproc
 132              		@ args = 0, pretend = 0, frame = 24
 133              		@ frame_needed = 1, uses_anonymous_args = 0
 134              		@ link register save eliminated.
 135 0000 80B4     		push	{r7}
 136              		.cfi_def_cfa_offset 4
 137              		.cfi_offset 7, -4
 138 0002 87B0     		sub	sp, sp, #28
 139              		.cfi_def_cfa_offset 32
 140 0004 00AF     		add	r7, sp, #0
 141              		.cfi_def_cfa_register 7
 142 0006 7860     		str	r0, [r7, #4]
 143 0008 3960     		str	r1, [r7]
 172:.\Generated_Source\PSoC5/cyfitter_cfg.c **** 	/* For 32-bit little-endian architectures */
 173:.\Generated_Source\PSoC5/cyfitter_cfg.c **** 	uint32 i, j = 0u;
 144              		.loc 1 173 0
 145 000a 0023     		movs	r3, #0
 146 000c 3B61     		str	r3, [r7, #16]
 174:.\Generated_Source\PSoC5/cyfitter_cfg.c **** 	for (i = 0u; i < CY_CFG_BASE_ADDR_COUNT; i++)
 147              		.loc 1 174 0
 148 000e 0023     		movs	r3, #0
 149 0010 7B61     		str	r3, [r7, #20]
 150 0012 26E0     		b	.L5
 151              	.L8:
 152              	.LBB2:
 175:.\Generated_Source\PSoC5/cyfitter_cfg.c **** 	{
 176:.\Generated_Source\PSoC5/cyfitter_cfg.c **** 		uint32 baseAddr = addr_table[i];
 153              		.loc 1 176 0
 154 0014 7B69     		ldr	r3, [r7, #20]
 155 0016 9B00     		lsls	r3, r3, #2
 156 0018 7A68     		ldr	r2, [r7, #4]
 157 001a 1344     		add	r3, r3, r2
 158 001c 1B68     		ldr	r3, [r3]
 159 001e BB60     		str	r3, [r7, #8]
 177:.\Generated_Source\PSoC5/cyfitter_cfg.c **** 		uint8 count = (uint8)baseAddr;
 160              		.loc 1 177 0
 161 0020 BB68     		ldr	r3, [r7, #8]
 162 0022 FB73     		strb	r3, [r7, #15]
 178:.\Generated_Source\PSoC5/cyfitter_cfg.c **** 		baseAddr &= 0xFFFFFF00u;
 163              		.loc 1 178 0
 164 0024 BB68     		ldr	r3, [r7, #8]
ARM GAS  C:\Users\SCOTTC~1\AppData\Local\Temp\cc56Hi2f.s 			page 7


 165 0026 23F0FF03 		bic	r3, r3, #255
 166 002a BB60     		str	r3, [r7, #8]
 179:.\Generated_Source\PSoC5/cyfitter_cfg.c **** 		while (count != 0u)
 167              		.loc 1 179 0
 168 002c 13E0     		b	.L6
 169              	.L7:
 180:.\Generated_Source\PSoC5/cyfitter_cfg.c **** 		{
 181:.\Generated_Source\PSoC5/cyfitter_cfg.c **** 			CY_SET_XTND_REG8((void CYFAR *)(baseAddr + data_table[j].offset), data_table[j].value);
 170              		.loc 1 181 0
 171 002e 3B69     		ldr	r3, [r7, #16]
 172 0030 5B00     		lsls	r3, r3, #1
 173 0032 3A68     		ldr	r2, [r7]
 174 0034 1344     		add	r3, r3, r2
 175 0036 1B78     		ldrb	r3, [r3]	@ zero_extendqisi2
 176 0038 1A46     		mov	r2, r3
 177 003a BB68     		ldr	r3, [r7, #8]
 178 003c 1344     		add	r3, r3, r2
 179 003e 3A69     		ldr	r2, [r7, #16]
 180 0040 5200     		lsls	r2, r2, #1
 181 0042 3968     		ldr	r1, [r7]
 182 0044 0A44     		add	r2, r2, r1
 183 0046 5278     		ldrb	r2, [r2, #1]	@ zero_extendqisi2
 184 0048 1A70     		strb	r2, [r3]
 182:.\Generated_Source\PSoC5/cyfitter_cfg.c **** 			j++;
 185              		.loc 1 182 0
 186 004a 3B69     		ldr	r3, [r7, #16]
 187 004c 0133     		adds	r3, r3, #1
 188 004e 3B61     		str	r3, [r7, #16]
 183:.\Generated_Source\PSoC5/cyfitter_cfg.c **** 			count--;
 189              		.loc 1 183 0
 190 0050 FB7B     		ldrb	r3, [r7, #15]	@ zero_extendqisi2
 191 0052 013B     		subs	r3, r3, #1
 192 0054 FB73     		strb	r3, [r7, #15]
 193              	.L6:
 179:.\Generated_Source\PSoC5/cyfitter_cfg.c **** 		while (count != 0u)
 194              		.loc 1 179 0 discriminator 1
 195 0056 FB7B     		ldrb	r3, [r7, #15]	@ zero_extendqisi2
 196 0058 002B     		cmp	r3, #0
 197 005a E8D1     		bne	.L7
 198              	.LBE2:
 174:.\Generated_Source\PSoC5/cyfitter_cfg.c **** 	for (i = 0u; i < CY_CFG_BASE_ADDR_COUNT; i++)
 199              		.loc 1 174 0
 200 005c 7B69     		ldr	r3, [r7, #20]
 201 005e 0133     		adds	r3, r3, #1
 202 0060 7B61     		str	r3, [r7, #20]
 203              	.L5:
 174:.\Generated_Source\PSoC5/cyfitter_cfg.c **** 	for (i = 0u; i < CY_CFG_BASE_ADDR_COUNT; i++)
 204              		.loc 1 174 0 is_stmt 0 discriminator 1
 205 0062 7B69     		ldr	r3, [r7, #20]
 206 0064 122B     		cmp	r3, #18
 207 0066 D5D9     		bls	.L8
 184:.\Generated_Source\PSoC5/cyfitter_cfg.c **** 		}
 185:.\Generated_Source\PSoC5/cyfitter_cfg.c **** 	}
 186:.\Generated_Source\PSoC5/cyfitter_cfg.c **** }
 208              		.loc 1 186 0 is_stmt 1
 209 0068 1C37     		adds	r7, r7, #28
 210 006a BD46     		mov	sp, r7
ARM GAS  C:\Users\SCOTTC~1\AppData\Local\Temp\cc56Hi2f.s 			page 8


 211              		@ sp needed
 212 006c 5DF8047B 		ldr	r7, [sp], #4
 213 0070 7047     		bx	lr
 214              		.cfi_endproc
 215              	.LFE3:
 216              		.size	cfg_write_bytes32, .-cfg_write_bytes32
 217 0072 00BF     		.section	.text.ClockSetup,"ax",%progbits
 218              		.align	2
 219              		.thumb
 220              		.thumb_func
 221              		.type	ClockSetup, %function
 222              	ClockSetup:
 223              	.LFB4:
 187:.\Generated_Source\PSoC5/cyfitter_cfg.c **** 
 188:.\Generated_Source\PSoC5/cyfitter_cfg.c **** /*******************************************************************************
 189:.\Generated_Source\PSoC5/cyfitter_cfg.c **** * Function Name: ClockSetup
 190:.\Generated_Source\PSoC5/cyfitter_cfg.c **** ********************************************************************************
 191:.\Generated_Source\PSoC5/cyfitter_cfg.c **** *
 192:.\Generated_Source\PSoC5/cyfitter_cfg.c **** * Summary:
 193:.\Generated_Source\PSoC5/cyfitter_cfg.c **** *  Performs the initialization of all of the clocks in the device based on the
 194:.\Generated_Source\PSoC5/cyfitter_cfg.c **** *  settings in the Clock tab of the DWR.  This includes enabling the requested
 195:.\Generated_Source\PSoC5/cyfitter_cfg.c **** *  clocks and setting the necessary dividers to produce the desired frequency. 
 196:.\Generated_Source\PSoC5/cyfitter_cfg.c **** *
 197:.\Generated_Source\PSoC5/cyfitter_cfg.c **** * Parameters:
 198:.\Generated_Source\PSoC5/cyfitter_cfg.c **** *  void
 199:.\Generated_Source\PSoC5/cyfitter_cfg.c **** *
 200:.\Generated_Source\PSoC5/cyfitter_cfg.c **** * Return:
 201:.\Generated_Source\PSoC5/cyfitter_cfg.c **** *  void
 202:.\Generated_Source\PSoC5/cyfitter_cfg.c **** *
 203:.\Generated_Source\PSoC5/cyfitter_cfg.c **** *******************************************************************************/
 204:.\Generated_Source\PSoC5/cyfitter_cfg.c **** static void ClockSetup(void);
 205:.\Generated_Source\PSoC5/cyfitter_cfg.c **** static void ClockSetup(void)
 206:.\Generated_Source\PSoC5/cyfitter_cfg.c **** {
 224              		.loc 1 206 0
 225              		.cfi_startproc
 226              		@ args = 0, pretend = 0, frame = 8
 227              		@ frame_needed = 1, uses_anonymous_args = 0
 228 0000 80B5     		push	{r7, lr}
 229              		.cfi_def_cfa_offset 8
 230              		.cfi_offset 7, -8
 231              		.cfi_offset 14, -4
 232 0002 82B0     		sub	sp, sp, #8
 233              		.cfi_def_cfa_offset 16
 234 0004 00AF     		add	r7, sp, #0
 235              		.cfi_def_cfa_register 7
 207:.\Generated_Source\PSoC5/cyfitter_cfg.c **** 	uint32 timeout;
 208:.\Generated_Source\PSoC5/cyfitter_cfg.c **** 	uint8 pllLock;
 209:.\Generated_Source\PSoC5/cyfitter_cfg.c **** 
 210:.\Generated_Source\PSoC5/cyfitter_cfg.c **** 
 211:.\Generated_Source\PSoC5/cyfitter_cfg.c **** 	/* Configure Digital Clocks based on settings from Clock DWR */
 212:.\Generated_Source\PSoC5/cyfitter_cfg.c **** 	CY_SET_XTND_REG16((void CYFAR *)(CYREG_CLKDIST_DCFG0_CFG0), 0x0000u);
 236              		.loc 1 212 0
 237 0006 4A4B     		ldr	r3, .L16
 238 0008 0022     		movs	r2, #0
 239 000a 1A80     		strh	r2, [r3]	@ movhi
 213:.\Generated_Source\PSoC5/cyfitter_cfg.c **** 	CY_SET_XTND_REG8((void CYFAR *)(CYREG_CLKDIST_DCFG0_CFG0 + 0x2u), 0x50u);
 240              		.loc 1 213 0
ARM GAS  C:\Users\SCOTTC~1\AppData\Local\Temp\cc56Hi2f.s 			page 9


 241 000c 494B     		ldr	r3, .L16+4
 242 000e 5022     		movs	r2, #80
 243 0010 1A70     		strb	r2, [r3]
 214:.\Generated_Source\PSoC5/cyfitter_cfg.c **** 
 215:.\Generated_Source\PSoC5/cyfitter_cfg.c **** 	/* Configure Analog Clocks based on settings from Clock DWR */
 216:.\Generated_Source\PSoC5/cyfitter_cfg.c **** 	CYCONFIGCPY((void CYFAR *)(CYREG_CLKDIST_ACFG0_CFG0), (const void CYFAR *)(BS_CYDEV_CLKDIST_ACFG0_
 244              		.loc 1 216 0
 245 0012 4948     		ldr	r0, .L16+8
 246 0014 4949     		ldr	r1, .L16+12
 247 0016 0422     		movs	r2, #4
 248 0018 FFF7FEFF 		bl	CYCONFIGCPY
 217:.\Generated_Source\PSoC5/cyfitter_cfg.c **** 
 218:.\Generated_Source\PSoC5/cyfitter_cfg.c **** 	/* Configure ILO based on settings from Clock DWR */
 219:.\Generated_Source\PSoC5/cyfitter_cfg.c **** 	CY_SET_XTND_REG8((void CYFAR *)(CYREG_SLOWCLK_ILO_CR0), 0x02u);
 249              		.loc 1 219 0
 250 001c 484B     		ldr	r3, .L16+16
 251 001e 0222     		movs	r2, #2
 252 0020 1A70     		strb	r2, [r3]
 220:.\Generated_Source\PSoC5/cyfitter_cfg.c **** 	CY_SET_XTND_REG8((void CYFAR *)(CYREG_CLKDIST_CR), 0x08u);
 253              		.loc 1 220 0
 254 0022 4FF04023 		mov	r3, #1073758208
 255 0026 0822     		movs	r2, #8
 256 0028 1A70     		strb	r2, [r3]
 221:.\Generated_Source\PSoC5/cyfitter_cfg.c **** 
 222:.\Generated_Source\PSoC5/cyfitter_cfg.c **** 	/* Configure XTAL based on settings from Clock DWR */
 223:.\Generated_Source\PSoC5/cyfitter_cfg.c **** 	CY_SET_XTND_REG16((void CYFAR *)(CYREG_FASTCLK_XMHZ_CFG0), 0x550Eu);
 257              		.loc 1 223 0
 258 002a 464B     		ldr	r3, .L16+20
 259 002c 45F20E52 		movw	r2, #21774
 260 0030 1A80     		strh	r2, [r3]	@ movhi
 224:.\Generated_Source\PSoC5/cyfitter_cfg.c **** 	CY_SET_XTND_REG8((void CYFAR *)(CYREG_FASTCLK_XMHZ_CSR), 0x05u);
 261              		.loc 1 224 0
 262 0032 454B     		ldr	r3, .L16+24
 263 0034 0522     		movs	r2, #5
 264 0036 1A70     		strb	r2, [r3]
 225:.\Generated_Source\PSoC5/cyfitter_cfg.c **** 	/* Wait up to 130000us for the XTAL to lock */
 226:.\Generated_Source\PSoC5/cyfitter_cfg.c **** 	CY_GET_XTND_REG8((void CYFAR *)CYREG_FASTCLK_XMHZ_CSR);
 265              		.loc 1 226 0
 266 0038 434B     		ldr	r3, .L16+24
 267 003a 1B78     		ldrb	r3, [r3]
 227:.\Generated_Source\PSoC5/cyfitter_cfg.c **** 	for (timeout = 130000u / 10u; (timeout > 0u) && ((CY_GET_XTND_REG8((void CYFAR *)CYREG_FASTCLK_XMH
 268              		.loc 1 227 0
 269 003c 43F2C823 		movw	r3, #13000
 270 0040 7B60     		str	r3, [r7, #4]
 271 0042 06E0     		b	.L10
 272              	.L12:
 228:.\Generated_Source\PSoC5/cyfitter_cfg.c **** 	{ 
 229:.\Generated_Source\PSoC5/cyfitter_cfg.c **** 		
 230:.\Generated_Source\PSoC5/cyfitter_cfg.c **** 		CyDelayCycles(10u * 48u); /* Delay 10us based on 48MHz clock */
 273              		.loc 1 230 0 discriminator 1
 274 0044 4FF4F070 		mov	r0, #480
 275 0048 FFF7FEFF 		bl	CyDelayCycles
 227:.\Generated_Source\PSoC5/cyfitter_cfg.c **** 	for (timeout = 130000u / 10u; (timeout > 0u) && ((CY_GET_XTND_REG8((void CYFAR *)CYREG_FASTCLK_XMH
 276              		.loc 1 227 0 discriminator 1
 277 004c 7B68     		ldr	r3, [r7, #4]
 278 004e 013B     		subs	r3, r3, #1
 279 0050 7B60     		str	r3, [r7, #4]
ARM GAS  C:\Users\SCOTTC~1\AppData\Local\Temp\cc56Hi2f.s 			page 10


 280              	.L10:
 281 0052 7B68     		ldr	r3, [r7, #4]
 282 0054 002B     		cmp	r3, #0
 283 0056 06D0     		beq	.L11
 227:.\Generated_Source\PSoC5/cyfitter_cfg.c **** 	for (timeout = 130000u / 10u; (timeout > 0u) && ((CY_GET_XTND_REG8((void CYFAR *)CYREG_FASTCLK_XMH
 284              		.loc 1 227 0 is_stmt 0 discriminator 2
 285 0058 3B4B     		ldr	r3, .L16+24
 286 005a 1B78     		ldrb	r3, [r3]
 287 005c DBB2     		uxtb	r3, r3
 288 005e DBB2     		uxtb	r3, r3
 289 0060 5BB2     		sxtb	r3, r3
 290 0062 002B     		cmp	r3, #0
 291 0064 EEDB     		blt	.L12
 292              	.L11:
 231:.\Generated_Source\PSoC5/cyfitter_cfg.c **** 	}
 232:.\Generated_Source\PSoC5/cyfitter_cfg.c **** 
 233:.\Generated_Source\PSoC5/cyfitter_cfg.c **** 	/* Configure IMO based on settings from Clock DWR */
 234:.\Generated_Source\PSoC5/cyfitter_cfg.c **** 	CY_SET_XTND_REG8((void CYFAR *)(CYREG_IMO_TR1), (CY_GET_XTND_REG8((void CYFAR *)CYREG_FLSHID_CUST_
 293              		.loc 1 234 0 is_stmt 1
 294 0066 394B     		ldr	r3, .L16+28
 295 0068 394A     		ldr	r2, .L16+32
 296 006a 1278     		ldrb	r2, [r2]
 297 006c D2B2     		uxtb	r2, r2
 298 006e 1A70     		strb	r2, [r3]
 235:.\Generated_Source\PSoC5/cyfitter_cfg.c **** 	CY_SET_XTND_REG8((void CYFAR *)(CYREG_FASTCLK_IMO_CR), 0x05u);
 299              		.loc 1 235 0
 300 0070 384B     		ldr	r3, .L16+36
 301 0072 0522     		movs	r2, #5
 302 0074 1A70     		strb	r2, [r3]
 236:.\Generated_Source\PSoC5/cyfitter_cfg.c **** 
 237:.\Generated_Source\PSoC5/cyfitter_cfg.c **** 	/* Configure Bus/Master Clock based on settings from Clock DWR */
 238:.\Generated_Source\PSoC5/cyfitter_cfg.c **** 	CY_SET_XTND_REG16((void CYFAR *)(CYREG_CLKDIST_MSTR0), 0x0000u);
 303              		.loc 1 238 0
 304 0076 384B     		ldr	r3, .L16+40
 305 0078 0022     		movs	r2, #0
 306 007a 1A80     		strh	r2, [r3]	@ movhi
 239:.\Generated_Source\PSoC5/cyfitter_cfg.c **** 
 240:.\Generated_Source\PSoC5/cyfitter_cfg.c **** 	/* Configure PLL based on settings from Clock DWR */
 241:.\Generated_Source\PSoC5/cyfitter_cfg.c **** 	CY_SET_XTND_REG16((void CYFAR *)(CYREG_FASTCLK_PLL_P), 0x0418u);
 307              		.loc 1 241 0
 308 007c 374B     		ldr	r3, .L16+44
 309 007e 4FF48362 		mov	r2, #1048
 310 0082 1A80     		strh	r2, [r3]	@ movhi
 242:.\Generated_Source\PSoC5/cyfitter_cfg.c **** 	CY_SET_XTND_REG8((void CYFAR *)(CYREG_CLKDIST_CR), 0x09u);
 311              		.loc 1 242 0
 312 0084 4FF04023 		mov	r3, #1073758208
 313 0088 0922     		movs	r2, #9
 314 008a 1A70     		strb	r2, [r3]
 243:.\Generated_Source\PSoC5/cyfitter_cfg.c **** 	CY_SET_XTND_REG16((void CYFAR *)(CYREG_FASTCLK_PLL_CFG0), 0x1251u);
 315              		.loc 1 243 0
 316 008c 344B     		ldr	r3, .L16+48
 317 008e 41F25122 		movw	r2, #4689
 318 0092 1A80     		strh	r2, [r3]	@ movhi
 244:.\Generated_Source\PSoC5/cyfitter_cfg.c **** 	/* Wait up to 250us for the PLL to lock */
 245:.\Generated_Source\PSoC5/cyfitter_cfg.c **** 	pllLock = 0u;
 319              		.loc 1 245 0
 320 0094 0023     		movs	r3, #0
ARM GAS  C:\Users\SCOTTC~1\AppData\Local\Temp\cc56Hi2f.s 			page 11


 321 0096 FB70     		strb	r3, [r7, #3]
 246:.\Generated_Source\PSoC5/cyfitter_cfg.c **** 	for (timeout = 250u / 10u; (timeout > 0u) && (pllLock != 0x03u); timeout--)
 322              		.loc 1 246 0
 323 0098 1923     		movs	r3, #25
 324 009a 7B60     		str	r3, [r7, #4]
 325 009c 14E0     		b	.L13
 326              	.L15:
 247:.\Generated_Source\PSoC5/cyfitter_cfg.c **** 	{ 
 248:.\Generated_Source\PSoC5/cyfitter_cfg.c **** 		pllLock = 0x03u & ((uint8)((uint8)pllLock << 1) | ((CY_GET_XTND_REG8((void CYFAR *)CYREG_FASTCLK_
 327              		.loc 1 248 0 discriminator 1
 328 009e FB78     		ldrb	r3, [r7, #3]
 329 00a0 5B00     		lsls	r3, r3, #1
 330 00a2 DAB2     		uxtb	r2, r3
 331 00a4 2F4B     		ldr	r3, .L16+52
 332 00a6 1B78     		ldrb	r3, [r3]
 333 00a8 DBB2     		uxtb	r3, r3
 334 00aa 03F00103 		and	r3, r3, #1
 335 00ae DBB2     		uxtb	r3, r3
 336 00b0 1343     		orrs	r3, r3, r2
 337 00b2 DBB2     		uxtb	r3, r3
 338 00b4 03F00303 		and	r3, r3, #3
 339 00b8 FB70     		strb	r3, [r7, #3]
 249:.\Generated_Source\PSoC5/cyfitter_cfg.c **** 		CyDelayCycles(10u * 48u); /* Delay 10us based on 48MHz clock */
 340              		.loc 1 249 0 discriminator 1
 341 00ba 4FF4F070 		mov	r0, #480
 342 00be FFF7FEFF 		bl	CyDelayCycles
 246:.\Generated_Source\PSoC5/cyfitter_cfg.c **** 	for (timeout = 250u / 10u; (timeout > 0u) && (pllLock != 0x03u); timeout--)
 343              		.loc 1 246 0 discriminator 1
 344 00c2 7B68     		ldr	r3, [r7, #4]
 345 00c4 013B     		subs	r3, r3, #1
 346 00c6 7B60     		str	r3, [r7, #4]
 347              	.L13:
 348 00c8 7B68     		ldr	r3, [r7, #4]
 349 00ca 002B     		cmp	r3, #0
 350 00cc 02D0     		beq	.L14
 246:.\Generated_Source\PSoC5/cyfitter_cfg.c **** 	for (timeout = 250u / 10u; (timeout > 0u) && (pllLock != 0x03u); timeout--)
 351              		.loc 1 246 0 is_stmt 0 discriminator 2
 352 00ce FB78     		ldrb	r3, [r7, #3]	@ zero_extendqisi2
 353 00d0 032B     		cmp	r3, #3
 354 00d2 E4D1     		bne	.L15
 355              	.L14:
 250:.\Generated_Source\PSoC5/cyfitter_cfg.c **** 	}
 251:.\Generated_Source\PSoC5/cyfitter_cfg.c **** 	CY_SET_XTND_REG8((void CYFAR *)(CYREG_CLKDIST_MSTR0), 0x07u);
 356              		.loc 1 251 0 is_stmt 1
 357 00d4 204B     		ldr	r3, .L16+40
 358 00d6 0722     		movs	r2, #7
 359 00d8 1A70     		strb	r2, [r3]
 252:.\Generated_Source\PSoC5/cyfitter_cfg.c **** 	CY_SET_XTND_REG8((void CYFAR *)(CYREG_CLKDIST_BCFG0), 0x00u);
 360              		.loc 1 252 0
 361 00da 234B     		ldr	r3, .L16+56
 362 00dc 0022     		movs	r2, #0
 363 00de 1A70     		strb	r2, [r3]
 253:.\Generated_Source\PSoC5/cyfitter_cfg.c **** 	CY_SET_XTND_REG8((void CYFAR *)(CYREG_CLKDIST_BCFG2), 0x48u);
 364              		.loc 1 253 0
 365 00e0 224B     		ldr	r3, .L16+60
 366 00e2 4822     		movs	r2, #72
 367 00e4 1A70     		strb	r2, [r3]
ARM GAS  C:\Users\SCOTTC~1\AppData\Local\Temp\cc56Hi2f.s 			page 12


 254:.\Generated_Source\PSoC5/cyfitter_cfg.c **** 	CY_SET_XTND_REG8((void CYFAR *)(CYREG_CLKDIST_MSTR0), 0x00u);
 368              		.loc 1 254 0
 369 00e6 1C4B     		ldr	r3, .L16+40
 370 00e8 0022     		movs	r2, #0
 371 00ea 1A70     		strb	r2, [r3]
 255:.\Generated_Source\PSoC5/cyfitter_cfg.c **** 	CY_SET_XTND_REG8((void CYFAR *)(CYREG_CLKDIST_LD), 0x02u);
 372              		.loc 1 255 0
 373 00ec 204B     		ldr	r3, .L16+64
 374 00ee 0222     		movs	r2, #2
 375 00f0 1A70     		strb	r2, [r3]
 256:.\Generated_Source\PSoC5/cyfitter_cfg.c **** 	CY_SET_XTND_REG8((void CYFAR *)(CYREG_CLKDIST_DLY1), 0x04u);
 376              		.loc 1 256 0
 377 00f2 204B     		ldr	r3, .L16+68
 378 00f4 0422     		movs	r2, #4
 379 00f6 1A70     		strb	r2, [r3]
 257:.\Generated_Source\PSoC5/cyfitter_cfg.c **** 
 258:.\Generated_Source\PSoC5/cyfitter_cfg.c **** 	CY_SET_XTND_REG8((void CYFAR *)(CYREG_PM_ACT_CFG2), ((CY_GET_XTND_REG8((void CYFAR *)CYREG_PM_ACT_
 380              		.loc 1 258 0
 381 00f8 1F4B     		ldr	r3, .L16+72
 382 00fa 1F4A     		ldr	r2, .L16+72
 383 00fc 1278     		ldrb	r2, [r2]
 384 00fe D2B2     		uxtb	r2, r2
 385 0100 42F00102 		orr	r2, r2, #1
 386 0104 D2B2     		uxtb	r2, r2
 387 0106 1A70     		strb	r2, [r3]
 259:.\Generated_Source\PSoC5/cyfitter_cfg.c **** 	CY_SET_XTND_REG8((void CYFAR *)(CYREG_PM_ACT_CFG1), ((CY_GET_XTND_REG8((void CYFAR *)CYREG_PM_ACT_
 388              		.loc 1 259 0
 389 0108 1C4B     		ldr	r3, .L16+76
 390 010a 1C4A     		ldr	r2, .L16+76
 391 010c 1278     		ldrb	r2, [r2]
 392 010e D2B2     		uxtb	r2, r2
 393 0110 42F00102 		orr	r2, r2, #1
 394 0114 D2B2     		uxtb	r2, r2
 395 0116 1A70     		strb	r2, [r3]
 260:.\Generated_Source\PSoC5/cyfitter_cfg.c **** 	CY_SET_XTND_REG8((void CYFAR *)(CYREG_PM_ACT_CFG0), ((CY_GET_XTND_REG8((void CYFAR *)CYREG_PM_ACT_
 396              		.loc 1 260 0
 397 0118 194B     		ldr	r3, .L16+80
 398 011a 194A     		ldr	r2, .L16+80
 399 011c 1278     		ldrb	r2, [r2]
 400 011e D2B2     		uxtb	r2, r2
 401 0120 62F07F02 		orn	r2, r2, #127
 402 0124 D2B2     		uxtb	r2, r2
 403 0126 1A70     		strb	r2, [r3]
 261:.\Generated_Source\PSoC5/cyfitter_cfg.c **** }
 404              		.loc 1 261 0
 405 0128 0837     		adds	r7, r7, #8
 406 012a BD46     		mov	sp, r7
 407              		@ sp needed
 408 012c 80BD     		pop	{r7, pc}
 409              	.L17:
 410 012e 00BF     		.align	2
 411              	.L16:
 412 0130 80400040 		.word	1073758336
 413 0134 82400040 		.word	1073758338
 414 0138 00410040 		.word	1073758464
 415 013c 00010048 		.word	1207959808
 416 0140 00430040 		.word	1073758976
ARM GAS  C:\Users\SCOTTC~1\AppData\Local\Temp\cc56Hi2f.s 			page 13


 417 0144 12420040 		.word	1073758738
 418 0148 10420040 		.word	1073758736
 419 014c A1460040 		.word	1073759905
 420 0150 0C010049 		.word	1224737036
 421 0154 00420040 		.word	1073758720
 422 0158 04400040 		.word	1073758212
 423 015c 22420040 		.word	1073758754
 424 0160 20420040 		.word	1073758752
 425 0164 25420040 		.word	1073758757
 426 0168 06400040 		.word	1073758214
 427 016c 08400040 		.word	1073758216
 428 0170 01400040 		.word	1073758209
 429 0174 0B400040 		.word	1073758219
 430 0178 A2430040 		.word	1073759138
 431 017c A1430040 		.word	1073759137
 432 0180 A0430040 		.word	1073759136
 433              		.cfi_endproc
 434              	.LFE4:
 435              		.size	ClockSetup, .-ClockSetup
 436              		.section	.text.AnalogSetDefault,"ax",%progbits
 437              		.align	2
 438              		.thumb
 439              		.thumb_func
 440              		.type	AnalogSetDefault, %function
 441              	AnalogSetDefault:
 442              	.LFB5:
 262:.\Generated_Source\PSoC5/cyfitter_cfg.c **** 
 263:.\Generated_Source\PSoC5/cyfitter_cfg.c **** 
 264:.\Generated_Source\PSoC5/cyfitter_cfg.c **** /* Analog API Functions */
 265:.\Generated_Source\PSoC5/cyfitter_cfg.c **** 
 266:.\Generated_Source\PSoC5/cyfitter_cfg.c **** 
 267:.\Generated_Source\PSoC5/cyfitter_cfg.c **** /*******************************************************************************
 268:.\Generated_Source\PSoC5/cyfitter_cfg.c **** * Function Name: AnalogSetDefault
 269:.\Generated_Source\PSoC5/cyfitter_cfg.c **** ********************************************************************************
 270:.\Generated_Source\PSoC5/cyfitter_cfg.c **** *
 271:.\Generated_Source\PSoC5/cyfitter_cfg.c **** * Summary:
 272:.\Generated_Source\PSoC5/cyfitter_cfg.c **** *  Sets up the analog portions of the chip to default values based on chip
 273:.\Generated_Source\PSoC5/cyfitter_cfg.c **** *  configuration options from the project.
 274:.\Generated_Source\PSoC5/cyfitter_cfg.c **** *
 275:.\Generated_Source\PSoC5/cyfitter_cfg.c **** * Parameters:
 276:.\Generated_Source\PSoC5/cyfitter_cfg.c **** *  void
 277:.\Generated_Source\PSoC5/cyfitter_cfg.c **** *
 278:.\Generated_Source\PSoC5/cyfitter_cfg.c **** * Return:
 279:.\Generated_Source\PSoC5/cyfitter_cfg.c **** *  void
 280:.\Generated_Source\PSoC5/cyfitter_cfg.c **** *
 281:.\Generated_Source\PSoC5/cyfitter_cfg.c **** *******************************************************************************/
 282:.\Generated_Source\PSoC5/cyfitter_cfg.c **** static void AnalogSetDefault(void);
 283:.\Generated_Source\PSoC5/cyfitter_cfg.c **** static void AnalogSetDefault(void)
 284:.\Generated_Source\PSoC5/cyfitter_cfg.c **** {
 443              		.loc 1 284 0
 444              		.cfi_startproc
 445              		@ args = 0, pretend = 0, frame = 8
 446              		@ frame_needed = 1, uses_anonymous_args = 0
 447              		@ link register save eliminated.
 448 0000 80B4     		push	{r7}
 449              		.cfi_def_cfa_offset 4
 450              		.cfi_offset 7, -4
ARM GAS  C:\Users\SCOTTC~1\AppData\Local\Temp\cc56Hi2f.s 			page 14


 451 0002 83B0     		sub	sp, sp, #12
 452              		.cfi_def_cfa_offset 16
 453 0004 00AF     		add	r7, sp, #0
 454              		.cfi_def_cfa_register 7
 285:.\Generated_Source\PSoC5/cyfitter_cfg.c **** 	uint8 bg_xover_inl_trim = CY_GET_XTND_REG8((void CYFAR *)(CYREG_FLSHID_MFG_CFG_BG_XOVER_INL_TRIM +
 455              		.loc 1 285 0
 456 0006 0E4B     		ldr	r3, .L19
 457 0008 1B78     		ldrb	r3, [r3]
 458 000a FB71     		strb	r3, [r7, #7]
 286:.\Generated_Source\PSoC5/cyfitter_cfg.c **** 	CY_SET_XTND_REG8((void CYFAR *)(CYREG_BG_DFT0), (bg_xover_inl_trim & 0x07u));
 459              		.loc 1 286 0
 460 000c 0D4B     		ldr	r3, .L19+4
 461 000e FA79     		ldrb	r2, [r7, #7]
 462 0010 02F00702 		and	r2, r2, #7
 463 0014 D2B2     		uxtb	r2, r2
 464 0016 1A70     		strb	r2, [r3]
 287:.\Generated_Source\PSoC5/cyfitter_cfg.c **** 	CY_SET_XTND_REG8((void CYFAR *)(CYREG_BG_DFT1), ((bg_xover_inl_trim >> 4) & 0x0Fu));
 465              		.loc 1 287 0
 466 0018 0B4B     		ldr	r3, .L19+8
 467 001a FA79     		ldrb	r2, [r7, #7]	@ zero_extendqisi2
 468 001c 1209     		lsrs	r2, r2, #4
 469 001e D2B2     		uxtb	r2, r2
 470 0020 1A70     		strb	r2, [r3]
 288:.\Generated_Source\PSoC5/cyfitter_cfg.c **** 	CY_SET_XTND_REG8((void CYFAR *)CYREG_PRT0_AG, 0x01u);
 471              		.loc 1 288 0
 472 0022 0A4B     		ldr	r3, .L19+12
 473 0024 0122     		movs	r2, #1
 474 0026 1A70     		strb	r2, [r3]
 289:.\Generated_Source\PSoC5/cyfitter_cfg.c **** 	CY_SET_XTND_REG8((void CYFAR *)CYREG_DSM0_SW0, 0x10u);
 475              		.loc 1 289 0
 476 0028 094B     		ldr	r3, .L19+16
 477 002a 1022     		movs	r2, #16
 478 002c 1A70     		strb	r2, [r3]
 290:.\Generated_Source\PSoC5/cyfitter_cfg.c **** 	CY_SET_XTND_REG8((void CYFAR *)CYREG_PUMP_CR0, 0x44u);
 479              		.loc 1 290 0
 480 002e 094B     		ldr	r3, .L19+20
 481 0030 4422     		movs	r2, #68
 482 0032 1A70     		strb	r2, [r3]
 291:.\Generated_Source\PSoC5/cyfitter_cfg.c **** }
 483              		.loc 1 291 0
 484 0034 0C37     		adds	r7, r7, #12
 485 0036 BD46     		mov	sp, r7
 486              		@ sp needed
 487 0038 5DF8047B 		ldr	r7, [sp], #4
 488 003c 7047     		bx	lr
 489              	.L20:
 490 003e 00BF     		.align	2
 491              	.L19:
 492 0040 CF010049 		.word	1224737231
 493 0044 6E580040 		.word	1073764462
 494 0048 6F580040 		.word	1073764463
 495 004c 0D510040 		.word	1073762573
 496 0050 005B0040 		.word	1073765120
 497 0054 76580040 		.word	1073764470
 498              		.cfi_endproc
 499              	.LFE5:
 500              		.size	AnalogSetDefault, .-AnalogSetDefault
ARM GAS  C:\Users\SCOTTC~1\AppData\Local\Temp\cc56Hi2f.s 			page 15


 501              		.section	.text.SetAnalogRoutingPumps,"ax",%progbits
 502              		.align	2
 503              		.global	SetAnalogRoutingPumps
 504              		.thumb
 505              		.thumb_func
 506              		.type	SetAnalogRoutingPumps, %function
 507              	SetAnalogRoutingPumps:
 508              	.LFB6:
 292:.\Generated_Source\PSoC5/cyfitter_cfg.c **** 
 293:.\Generated_Source\PSoC5/cyfitter_cfg.c **** 
 294:.\Generated_Source\PSoC5/cyfitter_cfg.c **** /*******************************************************************************
 295:.\Generated_Source\PSoC5/cyfitter_cfg.c **** * Function Name: SetAnalogRoutingPumps
 296:.\Generated_Source\PSoC5/cyfitter_cfg.c **** ********************************************************************************
 297:.\Generated_Source\PSoC5/cyfitter_cfg.c **** *
 298:.\Generated_Source\PSoC5/cyfitter_cfg.c **** * Summary:
 299:.\Generated_Source\PSoC5/cyfitter_cfg.c **** * Enables or disables the analog pumps feeding analog routing switches.
 300:.\Generated_Source\PSoC5/cyfitter_cfg.c **** * Intended to be called at startup, based on the Vdda system configuration;
 301:.\Generated_Source\PSoC5/cyfitter_cfg.c **** * may be called during operation when the user informs us that the Vdda voltage
 302:.\Generated_Source\PSoC5/cyfitter_cfg.c **** * crossed the pump threshold.
 303:.\Generated_Source\PSoC5/cyfitter_cfg.c **** *
 304:.\Generated_Source\PSoC5/cyfitter_cfg.c **** * Parameters:
 305:.\Generated_Source\PSoC5/cyfitter_cfg.c **** *  enabled - 1 to enable the pumps, 0 to disable the pumps
 306:.\Generated_Source\PSoC5/cyfitter_cfg.c **** *
 307:.\Generated_Source\PSoC5/cyfitter_cfg.c **** * Return:
 308:.\Generated_Source\PSoC5/cyfitter_cfg.c **** *  void
 309:.\Generated_Source\PSoC5/cyfitter_cfg.c **** *
 310:.\Generated_Source\PSoC5/cyfitter_cfg.c **** *******************************************************************************/
 311:.\Generated_Source\PSoC5/cyfitter_cfg.c **** void SetAnalogRoutingPumps(uint8 enabled)
 312:.\Generated_Source\PSoC5/cyfitter_cfg.c **** {
 509              		.loc 1 312 0
 510              		.cfi_startproc
 511              		@ args = 0, pretend = 0, frame = 16
 512              		@ frame_needed = 1, uses_anonymous_args = 0
 513              		@ link register save eliminated.
 514 0000 80B4     		push	{r7}
 515              		.cfi_def_cfa_offset 4
 516              		.cfi_offset 7, -4
 517 0002 85B0     		sub	sp, sp, #20
 518              		.cfi_def_cfa_offset 24
 519 0004 00AF     		add	r7, sp, #0
 520              		.cfi_def_cfa_register 7
 521 0006 0346     		mov	r3, r0
 522 0008 FB71     		strb	r3, [r7, #7]
 313:.\Generated_Source\PSoC5/cyfitter_cfg.c **** 	uint8 regValue = CY_GET_XTND_REG8((void CYFAR *)CYREG_PUMP_CR0);
 523              		.loc 1 313 0
 524 000a 0B4B     		ldr	r3, .L24
 525 000c 1B78     		ldrb	r3, [r3]
 526 000e FB73     		strb	r3, [r7, #15]
 314:.\Generated_Source\PSoC5/cyfitter_cfg.c **** 	if (enabled != 0u)
 527              		.loc 1 314 0
 528 0010 FB79     		ldrb	r3, [r7, #7]	@ zero_extendqisi2
 529 0012 002B     		cmp	r3, #0
 530 0014 04D0     		beq	.L22
 315:.\Generated_Source\PSoC5/cyfitter_cfg.c **** 	{
 316:.\Generated_Source\PSoC5/cyfitter_cfg.c **** 		regValue |= 0x22u;
 531              		.loc 1 316 0
 532 0016 FB7B     		ldrb	r3, [r7, #15]
ARM GAS  C:\Users\SCOTTC~1\AppData\Local\Temp\cc56Hi2f.s 			page 16


 533 0018 43F02203 		orr	r3, r3, #34
 534 001c FB73     		strb	r3, [r7, #15]
 535 001e 03E0     		b	.L23
 536              	.L22:
 317:.\Generated_Source\PSoC5/cyfitter_cfg.c **** 	}
 318:.\Generated_Source\PSoC5/cyfitter_cfg.c **** 	else
 319:.\Generated_Source\PSoC5/cyfitter_cfg.c **** 	{
 320:.\Generated_Source\PSoC5/cyfitter_cfg.c **** 		regValue &= (uint8)~0x22u;
 537              		.loc 1 320 0
 538 0020 FB7B     		ldrb	r3, [r7, #15]
 539 0022 23F02203 		bic	r3, r3, #34
 540 0026 FB73     		strb	r3, [r7, #15]
 541              	.L23:
 321:.\Generated_Source\PSoC5/cyfitter_cfg.c **** 	}
 322:.\Generated_Source\PSoC5/cyfitter_cfg.c **** 	CY_SET_XTND_REG8((void CYFAR *)CYREG_PUMP_CR0, regValue);
 542              		.loc 1 322 0
 543 0028 034B     		ldr	r3, .L24
 544 002a FA7B     		ldrb	r2, [r7, #15]
 545 002c 1A70     		strb	r2, [r3]
 323:.\Generated_Source\PSoC5/cyfitter_cfg.c **** }
 546              		.loc 1 323 0
 547 002e 1437     		adds	r7, r7, #20
 548 0030 BD46     		mov	sp, r7
 549              		@ sp needed
 550 0032 5DF8047B 		ldr	r7, [sp], #4
 551 0036 7047     		bx	lr
 552              	.L25:
 553              		.align	2
 554              	.L24:
 555 0038 76580040 		.word	1073764470
 556              		.cfi_endproc
 557              	.LFE6:
 558              		.size	SetAnalogRoutingPumps, .-SetAnalogRoutingPumps
 559              		.global	ADC_DelSig_1_AMux__addrTable
 560              		.section	.rodata
 561              		.align	2
 562              		.type	ADC_DelSig_1_AMux__addrTable, %object
 563              		.size	ADC_DelSig_1_AMux__addrTable, 8
 564              	ADC_DelSig_1_AMux__addrTable:
 565 0000 035B0040 		.word	1073765123
 566 0004 24430040 		.word	1073759012
 567              		.global	ADC_DelSig_1_AMux__maskTable
 568              		.align	2
 569              		.type	ADC_DelSig_1_AMux__maskTable, %object
 570              		.size	ADC_DelSig_1_AMux__maskTable, 2
 571              	ADC_DelSig_1_AMux__maskTable:
 572 0008 40       		.byte	64
 573 0009 00       		.byte	0
 574              		.section	.text.ADC_DelSig_1_AMux_Set,"ax",%progbits
 575              		.align	2
 576              		.global	ADC_DelSig_1_AMux_Set
 577              		.thumb
 578              		.thumb_func
 579              		.type	ADC_DelSig_1_AMux_Set, %function
 580              	ADC_DelSig_1_AMux_Set:
 581              	.LFB7:
 324:.\Generated_Source\PSoC5/cyfitter_cfg.c **** 
ARM GAS  C:\Users\SCOTTC~1\AppData\Local\Temp\cc56Hi2f.s 			page 17


 325:.\Generated_Source\PSoC5/cyfitter_cfg.c **** #define CY_AMUX_UNUSED CYREG_BOOST_SR
 326:.\Generated_Source\PSoC5/cyfitter_cfg.c **** /* This is an implementation detail of the AMux. Code that depends on it may be
 327:.\Generated_Source\PSoC5/cyfitter_cfg.c ****    incompatible with other versions of PSoC Creator. */
 328:.\Generated_Source\PSoC5/cyfitter_cfg.c **** uint8 CYXDATA * const CYCODE ADC_DelSig_1_AMux__addrTable[2] = {
 329:.\Generated_Source\PSoC5/cyfitter_cfg.c **** 	(uint8 CYXDATA *)CYREG_DSM0_SW3, 
 330:.\Generated_Source\PSoC5/cyfitter_cfg.c **** 	(uint8 CYXDATA *)CY_AMUX_UNUSED, 
 331:.\Generated_Source\PSoC5/cyfitter_cfg.c **** };
 332:.\Generated_Source\PSoC5/cyfitter_cfg.c **** 
 333:.\Generated_Source\PSoC5/cyfitter_cfg.c **** /* This is an implementation detail of the AMux. Code that depends on it may be
 334:.\Generated_Source\PSoC5/cyfitter_cfg.c ****    incompatible with other versions of PSoC Creator. */
 335:.\Generated_Source\PSoC5/cyfitter_cfg.c **** const uint8 CYCODE ADC_DelSig_1_AMux__maskTable[2] = {
 336:.\Generated_Source\PSoC5/cyfitter_cfg.c **** 	0x40u, 
 337:.\Generated_Source\PSoC5/cyfitter_cfg.c **** 	0x00u, 
 338:.\Generated_Source\PSoC5/cyfitter_cfg.c **** };
 339:.\Generated_Source\PSoC5/cyfitter_cfg.c **** 
 340:.\Generated_Source\PSoC5/cyfitter_cfg.c **** /*******************************************************************************
 341:.\Generated_Source\PSoC5/cyfitter_cfg.c **** * Function Name: ADC_DelSig_1_AMux_Set
 342:.\Generated_Source\PSoC5/cyfitter_cfg.c **** ********************************************************************************
 343:.\Generated_Source\PSoC5/cyfitter_cfg.c **** * Summary:
 344:.\Generated_Source\PSoC5/cyfitter_cfg.c **** *  This function is used to set a particular channel as active on the AMux.
 345:.\Generated_Source\PSoC5/cyfitter_cfg.c **** *
 346:.\Generated_Source\PSoC5/cyfitter_cfg.c **** * Parameters:  
 347:.\Generated_Source\PSoC5/cyfitter_cfg.c **** *   channel - The mux channel input to set as active
 348:.\Generated_Source\PSoC5/cyfitter_cfg.c **** *
 349:.\Generated_Source\PSoC5/cyfitter_cfg.c **** * Return:
 350:.\Generated_Source\PSoC5/cyfitter_cfg.c **** *   void
 351:.\Generated_Source\PSoC5/cyfitter_cfg.c **** *
 352:.\Generated_Source\PSoC5/cyfitter_cfg.c **** *******************************************************************************/
 353:.\Generated_Source\PSoC5/cyfitter_cfg.c **** void ADC_DelSig_1_AMux_Set(uint8 channel)
 354:.\Generated_Source\PSoC5/cyfitter_cfg.c **** {
 582              		.loc 1 354 0
 583              		.cfi_startproc
 584              		@ args = 0, pretend = 0, frame = 8
 585              		@ frame_needed = 1, uses_anonymous_args = 0
 586              		@ link register save eliminated.
 587 0000 80B4     		push	{r7}
 588              		.cfi_def_cfa_offset 4
 589              		.cfi_offset 7, -4
 590 0002 83B0     		sub	sp, sp, #12
 591              		.cfi_def_cfa_offset 16
 592 0004 00AF     		add	r7, sp, #0
 593              		.cfi_def_cfa_register 7
 594 0006 0346     		mov	r3, r0
 595 0008 FB71     		strb	r3, [r7, #7]
 355:.\Generated_Source\PSoC5/cyfitter_cfg.c **** 	if (channel < 2)
 596              		.loc 1 355 0
 597 000a FB79     		ldrb	r3, [r7, #7]	@ zero_extendqisi2
 598 000c 012B     		cmp	r3, #1
 599 000e 0ED8     		bhi	.L26
 356:.\Generated_Source\PSoC5/cyfitter_cfg.c **** 	{
 357:.\Generated_Source\PSoC5/cyfitter_cfg.c **** 		*ADC_DelSig_1_AMux__addrTable[channel] |= ADC_DelSig_1_AMux__maskTable[channel];
 600              		.loc 1 357 0
 601 0010 FA79     		ldrb	r2, [r7, #7]	@ zero_extendqisi2
 602 0012 094B     		ldr	r3, .L28
 603 0014 53F82230 		ldr	r3, [r3, r2, lsl #2]
 604 0018 F979     		ldrb	r1, [r7, #7]	@ zero_extendqisi2
 605 001a 074A     		ldr	r2, .L28
ARM GAS  C:\Users\SCOTTC~1\AppData\Local\Temp\cc56Hi2f.s 			page 18


 606 001c 52F82120 		ldr	r2, [r2, r1, lsl #2]
 607 0020 1178     		ldrb	r1, [r2]	@ zero_extendqisi2
 608 0022 FA79     		ldrb	r2, [r7, #7]	@ zero_extendqisi2
 609 0024 0548     		ldr	r0, .L28+4
 610 0026 825C     		ldrb	r2, [r0, r2]	@ zero_extendqisi2
 611 0028 0A43     		orrs	r2, r2, r1
 612 002a D2B2     		uxtb	r2, r2
 613 002c 1A70     		strb	r2, [r3]
 614              	.L26:
 358:.\Generated_Source\PSoC5/cyfitter_cfg.c **** 	}
 359:.\Generated_Source\PSoC5/cyfitter_cfg.c **** }
 615              		.loc 1 359 0
 616 002e 0C37     		adds	r7, r7, #12
 617 0030 BD46     		mov	sp, r7
 618              		@ sp needed
 619 0032 5DF8047B 		ldr	r7, [sp], #4
 620 0036 7047     		bx	lr
 621              	.L29:
 622              		.align	2
 623              	.L28:
 624 0038 00000000 		.word	ADC_DelSig_1_AMux__addrTable
 625 003c 00000000 		.word	ADC_DelSig_1_AMux__maskTable
 626              		.cfi_endproc
 627              	.LFE7:
 628              		.size	ADC_DelSig_1_AMux_Set, .-ADC_DelSig_1_AMux_Set
 629              		.section	.text.ADC_DelSig_1_AMux_Unset,"ax",%progbits
 630              		.align	2
 631              		.global	ADC_DelSig_1_AMux_Unset
 632              		.thumb
 633              		.thumb_func
 634              		.type	ADC_DelSig_1_AMux_Unset, %function
 635              	ADC_DelSig_1_AMux_Unset:
 636              	.LFB8:
 360:.\Generated_Source\PSoC5/cyfitter_cfg.c **** 
 361:.\Generated_Source\PSoC5/cyfitter_cfg.c **** /*******************************************************************************
 362:.\Generated_Source\PSoC5/cyfitter_cfg.c **** * Function Name: ADC_DelSig_1_AMux_Unset
 363:.\Generated_Source\PSoC5/cyfitter_cfg.c **** ********************************************************************************
 364:.\Generated_Source\PSoC5/cyfitter_cfg.c **** * Summary:
 365:.\Generated_Source\PSoC5/cyfitter_cfg.c **** *  This function is used to clear a particular channel from being active on the
 366:.\Generated_Source\PSoC5/cyfitter_cfg.c **** *  AMux.
 367:.\Generated_Source\PSoC5/cyfitter_cfg.c **** *
 368:.\Generated_Source\PSoC5/cyfitter_cfg.c **** * Parameters:  
 369:.\Generated_Source\PSoC5/cyfitter_cfg.c **** *   channel - The mux channel input to mark inactive
 370:.\Generated_Source\PSoC5/cyfitter_cfg.c **** *
 371:.\Generated_Source\PSoC5/cyfitter_cfg.c **** * Return:
 372:.\Generated_Source\PSoC5/cyfitter_cfg.c **** *   void
 373:.\Generated_Source\PSoC5/cyfitter_cfg.c **** *
 374:.\Generated_Source\PSoC5/cyfitter_cfg.c **** *******************************************************************************/
 375:.\Generated_Source\PSoC5/cyfitter_cfg.c **** void ADC_DelSig_1_AMux_Unset(uint8 channel)
 376:.\Generated_Source\PSoC5/cyfitter_cfg.c **** {
 637              		.loc 1 376 0
 638              		.cfi_startproc
 639              		@ args = 0, pretend = 0, frame = 8
 640              		@ frame_needed = 1, uses_anonymous_args = 0
 641              		@ link register save eliminated.
 642 0000 80B4     		push	{r7}
 643              		.cfi_def_cfa_offset 4
ARM GAS  C:\Users\SCOTTC~1\AppData\Local\Temp\cc56Hi2f.s 			page 19


 644              		.cfi_offset 7, -4
 645 0002 83B0     		sub	sp, sp, #12
 646              		.cfi_def_cfa_offset 16
 647 0004 00AF     		add	r7, sp, #0
 648              		.cfi_def_cfa_register 7
 649 0006 0346     		mov	r3, r0
 650 0008 FB71     		strb	r3, [r7, #7]
 377:.\Generated_Source\PSoC5/cyfitter_cfg.c **** 	if (channel < 2)
 651              		.loc 1 377 0
 652 000a FB79     		ldrb	r3, [r7, #7]	@ zero_extendqisi2
 653 000c 012B     		cmp	r3, #1
 654 000e 10D8     		bhi	.L30
 378:.\Generated_Source\PSoC5/cyfitter_cfg.c **** 	{
 379:.\Generated_Source\PSoC5/cyfitter_cfg.c **** 		*ADC_DelSig_1_AMux__addrTable[channel] &= (uint8)~ADC_DelSig_1_AMux__maskTable[channel];
 655              		.loc 1 379 0
 656 0010 FA79     		ldrb	r2, [r7, #7]	@ zero_extendqisi2
 657 0012 0A4B     		ldr	r3, .L32
 658 0014 53F82230 		ldr	r3, [r3, r2, lsl #2]
 659 0018 F979     		ldrb	r1, [r7, #7]	@ zero_extendqisi2
 660 001a 084A     		ldr	r2, .L32
 661 001c 52F82120 		ldr	r2, [r2, r1, lsl #2]
 662 0020 1178     		ldrb	r1, [r2]	@ zero_extendqisi2
 663 0022 FA79     		ldrb	r2, [r7, #7]	@ zero_extendqisi2
 664 0024 0648     		ldr	r0, .L32+4
 665 0026 825C     		ldrb	r2, [r0, r2]	@ zero_extendqisi2
 666 0028 D243     		mvns	r2, r2
 667 002a D2B2     		uxtb	r2, r2
 668 002c 0A40     		ands	r2, r2, r1
 669 002e D2B2     		uxtb	r2, r2
 670 0030 1A70     		strb	r2, [r3]
 671              	.L30:
 380:.\Generated_Source\PSoC5/cyfitter_cfg.c **** 	}
 381:.\Generated_Source\PSoC5/cyfitter_cfg.c **** }
 672              		.loc 1 381 0
 673 0032 0C37     		adds	r7, r7, #12
 674 0034 BD46     		mov	sp, r7
 675              		@ sp needed
 676 0036 5DF8047B 		ldr	r7, [sp], #4
 677 003a 7047     		bx	lr
 678              	.L33:
 679              		.align	2
 680              	.L32:
 681 003c 00000000 		.word	ADC_DelSig_1_AMux__addrTable
 682 0040 00000000 		.word	ADC_DelSig_1_AMux__maskTable
 683              		.cfi_endproc
 684              	.LFE8:
 685              		.size	ADC_DelSig_1_AMux_Unset, .-ADC_DelSig_1_AMux_Unset
 686              		.section	.text.cyfitter_cfg,"ax",%progbits
 687              		.align	2
 688              		.global	cyfitter_cfg
 689              		.thumb
 690              		.thumb_func
 691              		.type	cyfitter_cfg, %function
 692              	cyfitter_cfg:
 693              	.LFB9:
 382:.\Generated_Source\PSoC5/cyfitter_cfg.c **** 
 383:.\Generated_Source\PSoC5/cyfitter_cfg.c **** 
ARM GAS  C:\Users\SCOTTC~1\AppData\Local\Temp\cc56Hi2f.s 			page 20


 384:.\Generated_Source\PSoC5/cyfitter_cfg.c **** 
 385:.\Generated_Source\PSoC5/cyfitter_cfg.c **** /*******************************************************************************
 386:.\Generated_Source\PSoC5/cyfitter_cfg.c **** * Function Name: cyfitter_cfg
 387:.\Generated_Source\PSoC5/cyfitter_cfg.c **** ********************************************************************************
 388:.\Generated_Source\PSoC5/cyfitter_cfg.c **** * Summary:
 389:.\Generated_Source\PSoC5/cyfitter_cfg.c **** *  This function is called by the start-up code for the selected device. It
 390:.\Generated_Source\PSoC5/cyfitter_cfg.c **** *  performs all of the necessary device configuration based on the design
 391:.\Generated_Source\PSoC5/cyfitter_cfg.c **** *  settings.  This includes settings from the Design Wide Resources (DWR) such
 392:.\Generated_Source\PSoC5/cyfitter_cfg.c **** *  as Clocks and Pins as well as any component configuration that is necessary.
 393:.\Generated_Source\PSoC5/cyfitter_cfg.c **** *
 394:.\Generated_Source\PSoC5/cyfitter_cfg.c **** * Parameters:  
 395:.\Generated_Source\PSoC5/cyfitter_cfg.c **** *   void
 396:.\Generated_Source\PSoC5/cyfitter_cfg.c **** *
 397:.\Generated_Source\PSoC5/cyfitter_cfg.c **** * Return:
 398:.\Generated_Source\PSoC5/cyfitter_cfg.c **** *   void
 399:.\Generated_Source\PSoC5/cyfitter_cfg.c **** *
 400:.\Generated_Source\PSoC5/cyfitter_cfg.c **** *******************************************************************************/
 401:.\Generated_Source\PSoC5/cyfitter_cfg.c **** 
 402:.\Generated_Source\PSoC5/cyfitter_cfg.c **** void cyfitter_cfg(void)
 403:.\Generated_Source\PSoC5/cyfitter_cfg.c **** {
 694              		.loc 1 403 0
 695              		.cfi_startproc
 696              		@ args = 0, pretend = 0, frame = 8
 697              		@ frame_needed = 1, uses_anonymous_args = 0
 698 0000 80B5     		push	{r7, lr}
 699              		.cfi_def_cfa_offset 8
 700              		.cfi_offset 7, -8
 701              		.cfi_offset 14, -4
 702 0002 82B0     		sub	sp, sp, #8
 703              		.cfi_def_cfa_offset 16
 704 0004 00AF     		add	r7, sp, #0
 705              		.cfi_def_cfa_register 7
 404:.\Generated_Source\PSoC5/cyfitter_cfg.c **** #ifdef CYGlobalIntDisable
 405:.\Generated_Source\PSoC5/cyfitter_cfg.c **** 	/* Disable interrupts by default. Let user enable if/when they want. */
 406:.\Generated_Source\PSoC5/cyfitter_cfg.c **** 	CYGlobalIntDisable
 706              		.loc 1 406 0
 707              	@ 406 ".\Generated_Source\PSoC5\cyfitter_cfg.c" 1
 708 0006 72B6     		CPSID   i
 709              	@ 0 "" 2
 407:.\Generated_Source\PSoC5/cyfitter_cfg.c **** #endif
 408:.\Generated_Source\PSoC5/cyfitter_cfg.c **** 
 409:.\Generated_Source\PSoC5/cyfitter_cfg.c **** 
 410:.\Generated_Source\PSoC5/cyfitter_cfg.c **** 	/* Set Flash Cycles based on max possible frequency in case a glitch occurs during ClockSetup(). *
 411:.\Generated_Source\PSoC5/cyfitter_cfg.c **** 	CY_SET_XTND_REG8((void CYFAR *)(CYREG_CACHE_CC_CTL), (((CYDEV_INSTRUCT_CACHE_ENABLED) != 0) ? 0x01
 710              		.loc 1 411 0
 711              		.thumb
 712 0008 414B     		ldr	r3, .L37
 713 000a 0122     		movs	r2, #1
 714 000c 1A70     		strb	r2, [r3]
 412:.\Generated_Source\PSoC5/cyfitter_cfg.c **** 	/* Setup clocks based on selections from Clock DWR */
 413:.\Generated_Source\PSoC5/cyfitter_cfg.c **** 	ClockSetup();
 715              		.loc 1 413 0
 716 000e FFF7FEFF 		bl	ClockSetup
 414:.\Generated_Source\PSoC5/cyfitter_cfg.c **** 	/* Enable/Disable Debug functionality based on settings from System DWR */
 415:.\Generated_Source\PSoC5/cyfitter_cfg.c **** 	CY_SET_XTND_REG8((void CYFAR *)CYREG_MLOGIC_DEBUG, (CY_GET_XTND_REG8((void CYFAR *)CYREG_MLOGIC_DE
 717              		.loc 1 415 0
 718 0012 404B     		ldr	r3, .L37+4
ARM GAS  C:\Users\SCOTTC~1\AppData\Local\Temp\cc56Hi2f.s 			page 21


 719 0014 3F4A     		ldr	r2, .L37+4
 720 0016 1278     		ldrb	r2, [r2]
 721 0018 D2B2     		uxtb	r2, r2
 722 001a 42F00402 		orr	r2, r2, #4
 723 001e D2B2     		uxtb	r2, r2
 724 0020 1A70     		strb	r2, [r3]
 725              	.LBB3:
 416:.\Generated_Source\PSoC5/cyfitter_cfg.c **** 
 417:.\Generated_Source\PSoC5/cyfitter_cfg.c **** 	{
 418:.\Generated_Source\PSoC5/cyfitter_cfg.c **** 
 419:.\Generated_Source\PSoC5/cyfitter_cfg.c **** 		CYPACKED typedef struct {
 420:.\Generated_Source\PSoC5/cyfitter_cfg.c **** 			void CYFAR *address;
 421:.\Generated_Source\PSoC5/cyfitter_cfg.c **** 			uint16 size;
 422:.\Generated_Source\PSoC5/cyfitter_cfg.c **** 		} CYPACKED_ATTR cfg_memset_t;
 423:.\Generated_Source\PSoC5/cyfitter_cfg.c **** 
 424:.\Generated_Source\PSoC5/cyfitter_cfg.c **** 		static const cfg_memset_t CYCODE cfg_memset_list [] = {
 425:.\Generated_Source\PSoC5/cyfitter_cfg.c **** 			/* address, size */
 426:.\Generated_Source\PSoC5/cyfitter_cfg.c **** 			{(void CYFAR *)(CYREG_PRT1_DR), 16u},
 427:.\Generated_Source\PSoC5/cyfitter_cfg.c **** 			{(void CYFAR *)(CYREG_PRT3_DR), 64u},
 428:.\Generated_Source\PSoC5/cyfitter_cfg.c **** 			{(void CYFAR *)(CYREG_PRT12_DR), 16u},
 429:.\Generated_Source\PSoC5/cyfitter_cfg.c **** 			{(void CYFAR *)(CYREG_PRT15_DR), 16u},
 430:.\Generated_Source\PSoC5/cyfitter_cfg.c **** 			{(void CYFAR *)(CYDEV_UCFG_B0_P0_U0_BASE), 4096u},
 431:.\Generated_Source\PSoC5/cyfitter_cfg.c **** 			{(void CYFAR *)(CYDEV_UCFG_B1_P2_U0_BASE), 2048u},
 432:.\Generated_Source\PSoC5/cyfitter_cfg.c **** 			{(void CYFAR *)(CYDEV_UCFG_DSI0_BASE), 2560u},
 433:.\Generated_Source\PSoC5/cyfitter_cfg.c **** 			{(void CYFAR *)(CYDEV_UCFG_DSI12_BASE), 512u},
 434:.\Generated_Source\PSoC5/cyfitter_cfg.c **** 			{(void CYFAR *)(CYREG_BCTL0_MDCLK_EN), 32u},
 435:.\Generated_Source\PSoC5/cyfitter_cfg.c **** 		};
 436:.\Generated_Source\PSoC5/cyfitter_cfg.c **** 
 437:.\Generated_Source\PSoC5/cyfitter_cfg.c **** 		uint8 CYDATA i;
 438:.\Generated_Source\PSoC5/cyfitter_cfg.c **** 
 439:.\Generated_Source\PSoC5/cyfitter_cfg.c **** 		/* Zero out critical memory blocks before beginning configuration */
 440:.\Generated_Source\PSoC5/cyfitter_cfg.c **** 		for (i = 0u; i < (sizeof(cfg_memset_list)/sizeof(cfg_memset_list[0])); i++)
 726              		.loc 1 440 0
 727 0022 0023     		movs	r3, #0
 728 0024 FB71     		strb	r3, [r7, #7]
 729 0026 13E0     		b	.L35
 730              	.L36:
 731              	.LBB4:
 441:.\Generated_Source\PSoC5/cyfitter_cfg.c **** 		{
 442:.\Generated_Source\PSoC5/cyfitter_cfg.c **** 			const cfg_memset_t CYCODE * CYDATA ms = &cfg_memset_list[i];
 732              		.loc 1 442 0 discriminator 2
 733 0028 FA79     		ldrb	r2, [r7, #7]	@ zero_extendqisi2
 734 002a 1346     		mov	r3, r2
 735 002c 5B00     		lsls	r3, r3, #1
 736 002e 1344     		add	r3, r3, r2
 737 0030 5B00     		lsls	r3, r3, #1
 738 0032 394A     		ldr	r2, .L37+8
 739 0034 1344     		add	r3, r3, r2
 740 0036 3B60     		str	r3, [r7]
 443:.\Generated_Source\PSoC5/cyfitter_cfg.c **** 			CYMEMZERO(ms->address, (size_t)(uint32)(ms->size));
 741              		.loc 1 443 0 discriminator 2
 742 0038 3B68     		ldr	r3, [r7]
 743 003a 1A68     		ldr	r2, [r3]	@ unaligned
 744 003c 3B68     		ldr	r3, [r7]
 745 003e 9B88     		ldrh	r3, [r3, #4]	@ unaligned
 746 0040 9BB2     		uxth	r3, r3
 747 0042 1046     		mov	r0, r2
ARM GAS  C:\Users\SCOTTC~1\AppData\Local\Temp\cc56Hi2f.s 			page 22


 748 0044 1946     		mov	r1, r3
 749 0046 FFF7FEFF 		bl	CYMEMZERO
 750              	.LBE4:
 440:.\Generated_Source\PSoC5/cyfitter_cfg.c **** 		for (i = 0u; i < (sizeof(cfg_memset_list)/sizeof(cfg_memset_list[0])); i++)
 751              		.loc 1 440 0 discriminator 2
 752 004a FB79     		ldrb	r3, [r7, #7]	@ zero_extendqisi2
 753 004c 0133     		adds	r3, r3, #1
 754 004e FB71     		strb	r3, [r7, #7]
 755              	.L35:
 440:.\Generated_Source\PSoC5/cyfitter_cfg.c **** 		for (i = 0u; i < (sizeof(cfg_memset_list)/sizeof(cfg_memset_list[0])); i++)
 756              		.loc 1 440 0 is_stmt 0 discriminator 1
 757 0050 FB79     		ldrb	r3, [r7, #7]	@ zero_extendqisi2
 758 0052 082B     		cmp	r3, #8
 759 0054 E8D9     		bls	.L36
 444:.\Generated_Source\PSoC5/cyfitter_cfg.c **** 		}
 445:.\Generated_Source\PSoC5/cyfitter_cfg.c **** 
 446:.\Generated_Source\PSoC5/cyfitter_cfg.c **** 		cfg_write_bytes32(cy_cfg_addr_table, cy_cfg_data_table);
 760              		.loc 1 446 0 is_stmt 1
 761 0056 4FF09040 		mov	r0, #1207959552
 762 005a 3049     		ldr	r1, .L37+12
 763 005c FFF7FEFF 		bl	cfg_write_bytes32
 447:.\Generated_Source\PSoC5/cyfitter_cfg.c **** 
 448:.\Generated_Source\PSoC5/cyfitter_cfg.c **** 		/* Perform normal device configuration. Order is not critical for these items. */
 449:.\Generated_Source\PSoC5/cyfitter_cfg.c **** 		CY_SET_XTND_REG8((void CYFAR *)(CYREG_DSM0_CR3), 0x0Au);
 764              		.loc 1 449 0
 765 0060 2F4B     		ldr	r3, .L37+16
 766 0062 0A22     		movs	r2, #10
 767 0064 1A70     		strb	r2, [r3]
 450:.\Generated_Source\PSoC5/cyfitter_cfg.c **** 		CYMEMZERO((void CYFAR *)(CYREG_PHUB_CFGMEM0_CFG0), 4u);
 768              		.loc 1 450 0
 769 0066 2F48     		ldr	r0, .L37+20
 770 0068 0421     		movs	r1, #4
 771 006a FFF7FEFF 		bl	CYMEMZERO
 451:.\Generated_Source\PSoC5/cyfitter_cfg.c **** 		CYCONFIGCPY((void CYFAR *)(CYREG_PHUB_CFGMEM10_CFG0), (const void CYFAR *)(BS_PHUB_CFGMEM10_VAL),
 772              		.loc 1 451 0
 773 006e 2E48     		ldr	r0, .L37+24
 774 0070 2E49     		ldr	r1, .L37+28
 775 0072 0422     		movs	r2, #4
 776 0074 FFF7FEFF 		bl	CYCONFIGCPY
 452:.\Generated_Source\PSoC5/cyfitter_cfg.c **** 		CYCONFIGCPY((void CYFAR *)(CYREG_PHUB_CFGMEM1_CFG0), (const void CYFAR *)(BS_PHUB_CFGMEM1_VAL), 4
 777              		.loc 1 452 0
 778 0078 2D48     		ldr	r0, .L37+32
 779 007a 2E49     		ldr	r1, .L37+36
 780 007c 0422     		movs	r2, #4
 781 007e FFF7FEFF 		bl	CYCONFIGCPY
 453:.\Generated_Source\PSoC5/cyfitter_cfg.c **** 		CYCONFIGCPY((void CYFAR *)(CYREG_PHUB_CFGMEM2_CFG0), (const void CYFAR *)(BS_PHUB_CFGMEM2_VAL), 4
 782              		.loc 1 453 0
 783 0082 2D48     		ldr	r0, .L37+40
 784 0084 2D49     		ldr	r1, .L37+44
 785 0086 0422     		movs	r2, #4
 786 0088 FFF7FEFF 		bl	CYCONFIGCPY
 454:.\Generated_Source\PSoC5/cyfitter_cfg.c **** 		CYCONFIGCPY((void CYFAR *)(CYREG_PHUB_CFGMEM8_CFG0), (const void CYFAR *)(BS_PHUB_CFGMEM8_VAL), 4
 787              		.loc 1 454 0
 788 008c 2C48     		ldr	r0, .L37+48
 789 008e 2D49     		ldr	r1, .L37+52
 790 0090 0422     		movs	r2, #4
 791 0092 FFF7FEFF 		bl	CYCONFIGCPY
ARM GAS  C:\Users\SCOTTC~1\AppData\Local\Temp\cc56Hi2f.s 			page 23


 455:.\Generated_Source\PSoC5/cyfitter_cfg.c **** 
 456:.\Generated_Source\PSoC5/cyfitter_cfg.c **** 		/* Enable digital routing */
 457:.\Generated_Source\PSoC5/cyfitter_cfg.c **** 		CY_SET_XTND_REG8((void CYFAR *)CYREG_BCTL0_BANK_CTL, CY_GET_XTND_REG8((void CYFAR *)CYREG_BCTL0_B
 792              		.loc 1 457 0
 793 0096 2C4B     		ldr	r3, .L37+56
 794 0098 2B4A     		ldr	r2, .L37+56
 795 009a 1278     		ldrb	r2, [r2]
 796 009c D2B2     		uxtb	r2, r2
 797 009e 42F00202 		orr	r2, r2, #2
 798 00a2 D2B2     		uxtb	r2, r2
 799 00a4 1A70     		strb	r2, [r3]
 458:.\Generated_Source\PSoC5/cyfitter_cfg.c **** 		CY_SET_XTND_REG8((void CYFAR *)CYREG_BCTL1_BANK_CTL, CY_GET_XTND_REG8((void CYFAR *)CYREG_BCTL1_B
 800              		.loc 1 458 0
 801 00a6 294B     		ldr	r3, .L37+60
 802 00a8 284A     		ldr	r2, .L37+60
 803 00aa 1278     		ldrb	r2, [r2]
 804 00ac D2B2     		uxtb	r2, r2
 805 00ae 42F00202 		orr	r2, r2, #2
 806 00b2 D2B2     		uxtb	r2, r2
 807 00b4 1A70     		strb	r2, [r3]
 459:.\Generated_Source\PSoC5/cyfitter_cfg.c **** 
 460:.\Generated_Source\PSoC5/cyfitter_cfg.c **** 		/* Enable UDB array */
 461:.\Generated_Source\PSoC5/cyfitter_cfg.c **** 		CY_SET_XTND_REG8((void CYFAR *)CYREG_PM_ACT_CFG0, CY_GET_XTND_REG8((void CYFAR *)CYREG_PM_ACT_CFG
 808              		.loc 1 461 0
 809 00b6 264B     		ldr	r3, .L37+64
 810 00b8 254A     		ldr	r2, .L37+64
 811 00ba 1278     		ldrb	r2, [r2]
 812 00bc D2B2     		uxtb	r2, r2
 813 00be 42F04002 		orr	r2, r2, #64
 814 00c2 D2B2     		uxtb	r2, r2
 815 00c4 1A70     		strb	r2, [r3]
 462:.\Generated_Source\PSoC5/cyfitter_cfg.c **** 		CY_SET_XTND_REG8((void CYFAR *)CYREG_PM_AVAIL_CR2, CY_GET_XTND_REG8((void CYFAR *)CYREG_PM_AVAIL_
 816              		.loc 1 462 0
 817 00c6 234B     		ldr	r3, .L37+68
 818 00c8 224A     		ldr	r2, .L37+68
 819 00ca 1278     		ldrb	r2, [r2]
 820 00cc D2B2     		uxtb	r2, r2
 821 00ce 42F01002 		orr	r2, r2, #16
 822 00d2 D2B2     		uxtb	r2, r2
 823 00d4 1A70     		strb	r2, [r3]
 824              	.LBE3:
 463:.\Generated_Source\PSoC5/cyfitter_cfg.c **** 	}
 464:.\Generated_Source\PSoC5/cyfitter_cfg.c **** 
 465:.\Generated_Source\PSoC5/cyfitter_cfg.c **** 
 466:.\Generated_Source\PSoC5/cyfitter_cfg.c **** 	/* Perform second pass device configuration. These items must be configured in specific order afte
 467:.\Generated_Source\PSoC5/cyfitter_cfg.c **** 	CYCONFIGCPY((void CYFAR *)(CYREG_PRT0_DM0), (const void CYFAR *)(BS_IOPINS0_0_VAL), 8u);
 825              		.loc 1 467 0
 826 00d6 2048     		ldr	r0, .L37+72
 827 00d8 2049     		ldr	r1, .L37+76
 828 00da 0822     		movs	r2, #8
 829 00dc FFF7FEFF 		bl	CYCONFIGCPY
 468:.\Generated_Source\PSoC5/cyfitter_cfg.c **** 	CYCONFIGCPY((void CYFAR *)(CYREG_PRT2_DM0), (const void CYFAR *)(BS_IOPINS0_2_VAL), 8u);
 830              		.loc 1 468 0
 831 00e0 1F48     		ldr	r0, .L37+80
 832 00e2 2049     		ldr	r1, .L37+84
 833 00e4 0822     		movs	r2, #8
 834 00e6 FFF7FEFF 		bl	CYCONFIGCPY
ARM GAS  C:\Users\SCOTTC~1\AppData\Local\Temp\cc56Hi2f.s 			page 24


 469:.\Generated_Source\PSoC5/cyfitter_cfg.c **** 	/* Switch Boost to the precision bandgap reference from its internal reference */
 470:.\Generated_Source\PSoC5/cyfitter_cfg.c **** 	CY_SET_REG8((void CYXDATA *)CYREG_BOOST_CR2, (CY_GET_REG8((void CYXDATA *)CYREG_BOOST_CR2) | 0x08u
 835              		.loc 1 470 0
 836 00ea 1F4B     		ldr	r3, .L37+88
 837 00ec 1E4A     		ldr	r2, .L37+88
 838 00ee 1278     		ldrb	r2, [r2]
 839 00f0 D2B2     		uxtb	r2, r2
 840 00f2 42F00802 		orr	r2, r2, #8
 841 00f6 D2B2     		uxtb	r2, r2
 842 00f8 1A70     		strb	r2, [r3]
 471:.\Generated_Source\PSoC5/cyfitter_cfg.c **** 
 472:.\Generated_Source\PSoC5/cyfitter_cfg.c **** 	/* Perform basic analog initialization to defaults */
 473:.\Generated_Source\PSoC5/cyfitter_cfg.c **** 	AnalogSetDefault();
 843              		.loc 1 473 0
 844 00fa FFF7FEFF 		bl	AnalogSetDefault
 474:.\Generated_Source\PSoC5/cyfitter_cfg.c **** 
 475:.\Generated_Source\PSoC5/cyfitter_cfg.c **** 	/* Configure alternate active mode */
 476:.\Generated_Source\PSoC5/cyfitter_cfg.c **** 	CYCONFIGCPY((void CYFAR *)CYDEV_PM_STBY_BASE, (const void CYFAR *)CYDEV_PM_ACT_BASE, 14u);
 845              		.loc 1 476 0
 846 00fe 1B48     		ldr	r0, .L37+92
 847 0100 1349     		ldr	r1, .L37+64
 848 0102 0E22     		movs	r2, #14
 849 0104 FFF7FEFF 		bl	CYCONFIGCPY
 477:.\Generated_Source\PSoC5/cyfitter_cfg.c **** }
 850              		.loc 1 477 0
 851 0108 0837     		adds	r7, r7, #8
 852 010a BD46     		mov	sp, r7
 853              		@ sp needed
 854 010c 80BD     		pop	{r7, pc}
 855              	.L38:
 856 010e 00BF     		.align	2
 857              	.L37:
 858 0110 00480040 		.word	1073760256
 859 0114 E8460040 		.word	1073759976
 860 0118 0C000000 		.word	cfg_memset_list.4890
 861 011c 4C000048 		.word	1207959628
 862 0120 83580040 		.word	1073764483
 863 0124 00760040 		.word	1073772032
 864 0128 50760040 		.word	1073772112
 865 012c 04010048 		.word	1207959812
 866 0130 08760040 		.word	1073772040
 867 0134 08010048 		.word	1207959816
 868 0138 10760040 		.word	1073772048
 869 013c 0C010048 		.word	1207959820
 870 0140 40760040 		.word	1073772096
 871 0144 10010048 		.word	1207959824
 872 0148 03500140 		.word	1073827843
 873 014c 13500140 		.word	1073827859
 874 0150 A0430040 		.word	1073759136
 875 0154 C2430040 		.word	1073759170
 876 0158 02510040 		.word	1073762562
 877 015c F0000048 		.word	1207959792
 878 0160 22510040 		.word	1073762594
 879 0164 F8000048 		.word	1207959800
 880 0168 22430040 		.word	1073759010
 881 016c B0430040 		.word	1073759152
 882              		.cfi_endproc
ARM GAS  C:\Users\SCOTTC~1\AppData\Local\Temp\cc56Hi2f.s 			page 25


 883              	.LFE9:
 884              		.size	cyfitter_cfg, .-cyfitter_cfg
 885              		.section	.rodata
 886 000a 0000     		.align	2
 887              		.type	cfg_memset_list.4890, %object
 888              		.size	cfg_memset_list.4890, 54
 889              	cfg_memset_list.4890:
 890 000c 10510040 		.word	1073762576
 891 0010 1000     		.short	16
 892 0012 30510040 		.4byte	1073762608
 893 0016 4000     		.short	64
 894 0018 C0510040 		.word	1073762752
 895 001c 1000     		.short	16
 896 001e F0510040 		.4byte	1073762800
 897 0022 1000     		.short	16
 898 0024 00000140 		.word	1073807360
 899 0028 0010     		.short	4096
 900 002a 00140140 		.4byte	1073812480
 901 002e 0008     		.short	2048
 902 0030 00400140 		.word	1073823744
 903 0034 000A     		.short	2560
 904 0036 004C0140 		.4byte	1073826816
 905 003a 0002     		.short	512
 906 003c 00500140 		.word	1073827840
 907 0040 2000     		.short	32
 908 0042 0000     		.text
 909              	.Letext0:
 910              		.file 2 "c:\\program files\\cypress\\psoc creator\\3.2\\psoc creator\\import\\gnu\\arm\\4.8.4\\lib
 911              		.file 3 ".\\Generated_Source\\PSoC5\\cytypes.h"