ARM GAS  C:\Users\SCOTTC~1\AppData\Local\Temp\ccK1cr4f.s 			page 1


   1              		.syntax unified
   2              		.cpu cortex-m3
   3              		.fpu softvfp
   4              		.eabi_attribute 20, 1
   5              		.eabi_attribute 21, 1
   6              		.eabi_attribute 23, 3
   7              		.eabi_attribute 24, 1
   8              		.eabi_attribute 25, 1
   9              		.eabi_attribute 26, 1
  10              		.eabi_attribute 30, 6
  11              		.eabi_attribute 34, 1
  12              		.eabi_attribute 18, 4
  13              		.thumb
  14              		.file	"Filter.c"
  15              		.text
  16              	.Ltext0:
  17              		.cfi_sections	.debug_frame
  18              		.global	Filter_initVar
  19              		.bss
  20              		.type	Filter_initVar, %object
  21              		.size	Filter_initVar, 1
  22              	Filter_initVar:
  23 0000 00       		.space	1
  24              		.section	.text.Filter_Init,"ax",%progbits
  25              		.align	2
  26              		.global	Filter_Init
  27              		.thumb
  28              		.thumb_func
  29              		.type	Filter_Init, %function
  30              	Filter_Init:
  31              	.LFB0:
  32              		.file 1 ".\\Generated_Source\\PSoC5\\Filter.c"
   1:.\Generated_Source\PSoC5/Filter.c **** /*******************************************************************************
   2:.\Generated_Source\PSoC5/Filter.c **** * File Name: Filter.c
   3:.\Generated_Source\PSoC5/Filter.c **** * Version 2.30
   4:.\Generated_Source\PSoC5/Filter.c **** *
   5:.\Generated_Source\PSoC5/Filter.c **** * Description:
   6:.\Generated_Source\PSoC5/Filter.c **** *  This file provides the API source code for the FILT component.
   7:.\Generated_Source\PSoC5/Filter.c **** *
   8:.\Generated_Source\PSoC5/Filter.c **** * Note:
   9:.\Generated_Source\PSoC5/Filter.c **** *  
  10:.\Generated_Source\PSoC5/Filter.c **** *******************************************************************************
  11:.\Generated_Source\PSoC5/Filter.c **** * Copyright 2008-2013, Cypress Semiconductor Corporation.  All rights reserved.
  12:.\Generated_Source\PSoC5/Filter.c **** * You may use this file only in accordance with the license, terms, conditions, 
  13:.\Generated_Source\PSoC5/Filter.c **** * disclaimers, and limitations in the end user license agreement accompanying 
  14:.\Generated_Source\PSoC5/Filter.c **** * the software package with which this file was provided.
  15:.\Generated_Source\PSoC5/Filter.c **** ********************************************************************************/
  16:.\Generated_Source\PSoC5/Filter.c **** 
  17:.\Generated_Source\PSoC5/Filter.c **** #include "Filter_PVT.h"
  18:.\Generated_Source\PSoC5/Filter.c **** 
  19:.\Generated_Source\PSoC5/Filter.c **** 
  20:.\Generated_Source\PSoC5/Filter.c **** /*******************************************************************************
  21:.\Generated_Source\PSoC5/Filter.c **** * FILT component internal variables.
  22:.\Generated_Source\PSoC5/Filter.c **** *******************************************************************************/
  23:.\Generated_Source\PSoC5/Filter.c **** 
  24:.\Generated_Source\PSoC5/Filter.c **** uint8 Filter_initVar = 0x0u;
  25:.\Generated_Source\PSoC5/Filter.c **** 
ARM GAS  C:\Users\SCOTTC~1\AppData\Local\Temp\ccK1cr4f.s 			page 2


  26:.\Generated_Source\PSoC5/Filter.c **** 
  27:.\Generated_Source\PSoC5/Filter.c **** /*******************************************************************************
  28:.\Generated_Source\PSoC5/Filter.c **** * Function Name: Filter_Init
  29:.\Generated_Source\PSoC5/Filter.c **** ********************************************************************************
  30:.\Generated_Source\PSoC5/Filter.c **** *
  31:.\Generated_Source\PSoC5/Filter.c **** * Summary:
  32:.\Generated_Source\PSoC5/Filter.c **** *  Initialize component's parameters to the parameters set by user in the 
  33:.\Generated_Source\PSoC5/Filter.c **** *  customizer of the component placed onto schematic. Usually called in 
  34:.\Generated_Source\PSoC5/Filter.c **** *  Filter_Start().
  35:.\Generated_Source\PSoC5/Filter.c **** *
  36:.\Generated_Source\PSoC5/Filter.c **** * Parameters:  
  37:.\Generated_Source\PSoC5/Filter.c **** *  void
  38:.\Generated_Source\PSoC5/Filter.c **** *
  39:.\Generated_Source\PSoC5/Filter.c **** * Return: 
  40:.\Generated_Source\PSoC5/Filter.c **** *  void
  41:.\Generated_Source\PSoC5/Filter.c **** *
  42:.\Generated_Source\PSoC5/Filter.c **** *******************************************************************************/
  43:.\Generated_Source\PSoC5/Filter.c **** void Filter_Init(void) 
  44:.\Generated_Source\PSoC5/Filter.c **** {
  33              		.loc 1 44 0
  34              		.cfi_startproc
  35              		@ args = 0, pretend = 0, frame = 0
  36              		@ frame_needed = 1, uses_anonymous_args = 0
  37 0000 F8B5     		push	{r3, r4, r5, r6, r7, lr}
  38              		.cfi_def_cfa_offset 24
  39              		.cfi_offset 3, -24
  40              		.cfi_offset 4, -20
  41              		.cfi_offset 5, -16
  42              		.cfi_offset 6, -12
  43              		.cfi_offset 7, -8
  44              		.cfi_offset 14, -4
  45 0002 00AF     		add	r7, sp, #0
  46              		.cfi_def_cfa_register 7
  45:.\Generated_Source\PSoC5/Filter.c ****         /* Power on DFB before initializing the RAMs */
  46:.\Generated_Source\PSoC5/Filter.c ****     Filter_PM_ACT_CFG_REG |= Filter_PM_ACT_MSK;
  47              		.loc 1 46 0
  48 0004 354B     		ldr	r3, .L3
  49 0006 354A     		ldr	r2, .L3
  50 0008 1278     		ldrb	r2, [r2]
  51 000a D2B2     		uxtb	r2, r2
  52 000c 42F01002 		orr	r2, r2, #16
  53 0010 D2B2     		uxtb	r2, r2
  54 0012 1A70     		strb	r2, [r3]
  47:.\Generated_Source\PSoC5/Filter.c **** 
  48:.\Generated_Source\PSoC5/Filter.c ****     /* Turn off Run Bit */
  49:.\Generated_Source\PSoC5/Filter.c ****     Filter_CR_REG &= (uint8)~Filter_RUN_MASK;
  55              		.loc 1 49 0
  56 0014 324B     		ldr	r3, .L3+4
  57 0016 324A     		ldr	r2, .L3+4
  58 0018 1278     		ldrb	r2, [r2]
  59 001a D2B2     		uxtb	r2, r2
  60 001c 22F00102 		bic	r2, r2, #1
  61 0020 D2B2     		uxtb	r2, r2
  62 0022 1A70     		strb	r2, [r3]
  50:.\Generated_Source\PSoC5/Filter.c ****                 
  51:.\Generated_Source\PSoC5/Filter.c ****     /* Enable the DFB RAMS */
  52:.\Generated_Source\PSoC5/Filter.c ****     Filter_RAM_EN_REG = Filter_RAM_DIR_BUS;
ARM GAS  C:\Users\SCOTTC~1\AppData\Local\Temp\ccK1cr4f.s 			page 3


  63              		.loc 1 52 0
  64 0024 2F4B     		ldr	r3, .L3+8
  65 0026 3F22     		movs	r2, #63
  66 0028 1A70     		strb	r2, [r3]
  53:.\Generated_Source\PSoC5/Filter.c ****         
  54:.\Generated_Source\PSoC5/Filter.c ****     /* Put DFB RAM on the bus */
  55:.\Generated_Source\PSoC5/Filter.c ****     Filter_RAM_DIR_REG = Filter_RAM_DIR_BUS;
  67              		.loc 1 55 0
  68 002a 2F4B     		ldr	r3, .L3+12
  69 002c 3F22     		movs	r2, #63
  70 002e 1A70     		strb	r2, [r3]
  56:.\Generated_Source\PSoC5/Filter.c ****         
  57:.\Generated_Source\PSoC5/Filter.c ****     /* Write DFB RAMs */
  58:.\Generated_Source\PSoC5/Filter.c ****     /* Control Store RAMs */
  59:.\Generated_Source\PSoC5/Filter.c ****     (void)memcpy( Filter_CSA_RAM,
  71              		.loc 1 59 0
  72 0030 2E4A     		ldr	r2, .L3+16
  73 0032 2F4B     		ldr	r3, .L3+20
  74 0034 1146     		mov	r1, r2
  75 0036 1A46     		mov	r2, r3
  76 0038 4FF48073 		mov	r3, #256
  77 003c 0846     		mov	r0, r1
  78 003e 1146     		mov	r1, r2
  79 0040 1A46     		mov	r2, r3
  80 0042 FFF7FEFF 		bl	memcpy
  60:.\Generated_Source\PSoC5/Filter.c ****         Filter_control, Filter_CSA_RAM_SIZE); 
  61:.\Generated_Source\PSoC5/Filter.c ****     (void)memcpy(Filter_CSB_RAM,
  81              		.loc 1 61 0
  82 0046 2B4A     		ldr	r2, .L3+24
  83 0048 294B     		ldr	r3, .L3+20
  84 004a 1146     		mov	r1, r2
  85 004c 1A46     		mov	r2, r3
  86 004e 4FF48073 		mov	r3, #256
  87 0052 0846     		mov	r0, r1
  88 0054 1146     		mov	r1, r2
  89 0056 1A46     		mov	r2, r3
  90 0058 FFF7FEFF 		bl	memcpy
  62:.\Generated_Source\PSoC5/Filter.c ****         Filter_control, Filter_CSB_RAM_SIZE); 
  63:.\Generated_Source\PSoC5/Filter.c ****     /* CFSM RAM */
  64:.\Generated_Source\PSoC5/Filter.c ****     (void)memcpy(Filter_CFSM_RAM,
  91              		.loc 1 64 0
  92 005c 264A     		ldr	r2, .L3+28
  93 005e 274B     		ldr	r3, .L3+32
  94 0060 1146     		mov	r1, r2
  95 0062 1A46     		mov	r2, r3
  96 0064 4FF48073 		mov	r3, #256
  97 0068 0846     		mov	r0, r1
  98 006a 1146     		mov	r1, r2
  99 006c 1A46     		mov	r2, r3
 100 006e FFF7FEFF 		bl	memcpy
  65:.\Generated_Source\PSoC5/Filter.c ****         Filter_cfsm, Filter_CFSM_RAM_SIZE); 
  66:.\Generated_Source\PSoC5/Filter.c ****     /* Data RAMs */
  67:.\Generated_Source\PSoC5/Filter.c ****     (void)memcpy(Filter_DA_RAM,
 101              		.loc 1 67 0
 102 0072 234A     		ldr	r2, .L3+36
 103 0074 234B     		ldr	r3, .L3+40
 104 0076 1146     		mov	r1, r2
ARM GAS  C:\Users\SCOTTC~1\AppData\Local\Temp\ccK1cr4f.s 			page 4


 105 0078 1A46     		mov	r2, r3
 106 007a 4FF40073 		mov	r3, #512
 107 007e 0846     		mov	r0, r1
 108 0080 1146     		mov	r1, r2
 109 0082 1A46     		mov	r2, r3
 110 0084 FFF7FEFF 		bl	memcpy
  68:.\Generated_Source\PSoC5/Filter.c ****         Filter_data_a, Filter_DA_RAM_SIZE); 
  69:.\Generated_Source\PSoC5/Filter.c ****     (void)memcpy(Filter_DB_RAM,
 111              		.loc 1 69 0
 112 0088 1F4A     		ldr	r2, .L3+44
 113 008a 204B     		ldr	r3, .L3+48
 114 008c 1146     		mov	r1, r2
 115 008e 1A46     		mov	r2, r3
 116 0090 4FF40073 		mov	r3, #512
 117 0094 0846     		mov	r0, r1
 118 0096 1146     		mov	r1, r2
 119 0098 1A46     		mov	r2, r3
 120 009a FFF7FEFF 		bl	memcpy
  70:.\Generated_Source\PSoC5/Filter.c ****         Filter_data_b, Filter_DB_RAM_SIZE); 
  71:.\Generated_Source\PSoC5/Filter.c ****     /* ACU RAM */
  72:.\Generated_Source\PSoC5/Filter.c ****     (void)memcpy(Filter_ACU_RAM,
 121              		.loc 1 72 0
 122 009e 1C4B     		ldr	r3, .L3+52
 123 00a0 1C4A     		ldr	r2, .L3+56
 124 00a2 1446     		mov	r4, r2
 125 00a4 1E46     		mov	r6, r3
 126 00a6 04F1400E 		add	lr, r4, #64
 127              	.L2:
 128 00aa 3546     		mov	r5, r6
 129 00ac 2346     		mov	r3, r4
 130 00ae 1868     		ldr	r0, [r3]	@ unaligned
 131 00b0 5968     		ldr	r1, [r3, #4]	@ unaligned
 132 00b2 9A68     		ldr	r2, [r3, #8]	@ unaligned
 133 00b4 DB68     		ldr	r3, [r3, #12]	@ unaligned
 134 00b6 0FC5     		stmia	r5!, {r0, r1, r2, r3}
 135 00b8 1034     		adds	r4, r4, #16
 136 00ba 1036     		adds	r6, r6, #16
 137 00bc 7445     		cmp	r4, lr
 138 00be F4D1     		bne	.L2
  73:.\Generated_Source\PSoC5/Filter.c ****         Filter_acu, Filter_ACU_RAM_SIZE); 
  74:.\Generated_Source\PSoC5/Filter.c **** 
  75:.\Generated_Source\PSoC5/Filter.c ****     /* Take DFB RAM off the bus */
  76:.\Generated_Source\PSoC5/Filter.c ****     Filter_RAM_DIR_REG = Filter_RAM_DIR_DFB;
 139              		.loc 1 76 0
 140 00c0 094B     		ldr	r3, .L3+12
 141 00c2 0022     		movs	r2, #0
 142 00c4 1A70     		strb	r2, [r3]
  77:.\Generated_Source\PSoC5/Filter.c **** 
  78:.\Generated_Source\PSoC5/Filter.c ****     /* Set up interrupt and DMA events */
  79:.\Generated_Source\PSoC5/Filter.c ****     Filter_SetInterruptMode(Filter_INIT_INTERRUPT_MODE);
 143              		.loc 1 79 0
 144 00c6 0020     		movs	r0, #0
 145 00c8 FFF7FEFF 		bl	Filter_SetInterruptMode
  80:.\Generated_Source\PSoC5/Filter.c ****     Filter_SetDMAMode(Filter_INIT_DMA_MODE);
 146              		.loc 1 80 0
 147 00cc 0520     		movs	r0, #5
 148 00ce FFF7FEFF 		bl	Filter_SetDMAMode
ARM GAS  C:\Users\SCOTTC~1\AppData\Local\Temp\ccK1cr4f.s 			page 5


  81:.\Generated_Source\PSoC5/Filter.c ****         
  82:.\Generated_Source\PSoC5/Filter.c ****     /* Clear any pending interrupts */
  83:.\Generated_Source\PSoC5/Filter.c ****     /* Bits [2..0] of this register are readonly. */
  84:.\Generated_Source\PSoC5/Filter.c ****     Filter_SR_REG = 0xf8u;   
 149              		.loc 1 84 0
 150 00d2 114B     		ldr	r3, .L3+60
 151 00d4 F822     		movs	r2, #248
 152 00d6 1A70     		strb	r2, [r3]
  85:.\Generated_Source\PSoC5/Filter.c **** }
 153              		.loc 1 85 0
 154 00d8 F8BD     		pop	{r3, r4, r5, r6, r7, pc}
 155              	.L4:
 156 00da 00BF     		.align	2
 157              	.L3:
 158 00dc A6430040 		.word	1073759142
 159 00e0 80C70040 		.word	1073792896
 160 00e4 88C70040 		.word	1073792904
 161 00e8 8CC70040 		.word	1073792908
 162 00ec 00C40040 		.word	1073792000
 163 00f0 00000000 		.word	Filter_control
 164 00f4 00C50040 		.word	1073792256
 165 00f8 00C60040 		.word	1073792512
 166 00fc 00000000 		.word	Filter_cfsm
 167 0100 00C00040 		.word	1073790976
 168 0104 00000000 		.word	Filter_data_a
 169 0108 00C20040 		.word	1073791488
 170 010c 00000000 		.word	Filter_data_b
 171 0110 00C70040 		.word	1073792768
 172 0114 00000000 		.word	Filter_acu
 173 0118 84C70040 		.word	1073792900
 174              		.cfi_endproc
 175              	.LFE0:
 176              		.size	Filter_Init, .-Filter_Init
 177              		.section	.text.Filter_Enable,"ax",%progbits
 178              		.align	2
 179              		.global	Filter_Enable
 180              		.thumb
 181              		.thumb_func
 182              		.type	Filter_Enable, %function
 183              	Filter_Enable:
 184              	.LFB1:
  86:.\Generated_Source\PSoC5/Filter.c **** 
  87:.\Generated_Source\PSoC5/Filter.c **** 
  88:.\Generated_Source\PSoC5/Filter.c **** /*******************************************************************************
  89:.\Generated_Source\PSoC5/Filter.c **** * Function Name: Filter_Enable
  90:.\Generated_Source\PSoC5/Filter.c **** ********************************************************************************
  91:.\Generated_Source\PSoC5/Filter.c **** *  
  92:.\Generated_Source\PSoC5/Filter.c **** * Summary: 
  93:.\Generated_Source\PSoC5/Filter.c **** *  Enables the DFB run bit.
  94:.\Generated_Source\PSoC5/Filter.c **** *
  95:.\Generated_Source\PSoC5/Filter.c **** * Parameters:  
  96:.\Generated_Source\PSoC5/Filter.c **** *  void
  97:.\Generated_Source\PSoC5/Filter.c **** *
  98:.\Generated_Source\PSoC5/Filter.c **** * Return: 
  99:.\Generated_Source\PSoC5/Filter.c **** *  void
 100:.\Generated_Source\PSoC5/Filter.c **** *
 101:.\Generated_Source\PSoC5/Filter.c **** *******************************************************************************/
ARM GAS  C:\Users\SCOTTC~1\AppData\Local\Temp\ccK1cr4f.s 			page 6


 102:.\Generated_Source\PSoC5/Filter.c **** void Filter_Enable(void) 
 103:.\Generated_Source\PSoC5/Filter.c **** {
 185              		.loc 1 103 0
 186              		.cfi_startproc
 187              		@ args = 0, pretend = 0, frame = 0
 188              		@ frame_needed = 1, uses_anonymous_args = 0
 189              		@ link register save eliminated.
 190 0000 80B4     		push	{r7}
 191              		.cfi_def_cfa_offset 4
 192              		.cfi_offset 7, -4
 193 0002 00AF     		add	r7, sp, #0
 194              		.cfi_def_cfa_register 7
 104:.\Generated_Source\PSoC5/Filter.c ****     /* Power on DFB in Active mode */
 105:.\Generated_Source\PSoC5/Filter.c ****     Filter_PM_ACT_CFG_REG |= Filter_PM_ACT_MSK;
 195              		.loc 1 105 0
 196 0004 0D4B     		ldr	r3, .L6
 197 0006 0D4A     		ldr	r2, .L6
 198 0008 1278     		ldrb	r2, [r2]
 199 000a D2B2     		uxtb	r2, r2
 200 000c 42F01002 		orr	r2, r2, #16
 201 0010 D2B2     		uxtb	r2, r2
 202 0012 1A70     		strb	r2, [r3]
 106:.\Generated_Source\PSoC5/Filter.c ****         
 107:.\Generated_Source\PSoC5/Filter.c ****     /* Power on DFB in Alternative Active mode */
 108:.\Generated_Source\PSoC5/Filter.c ****     Filter_PM_STBY_CFG_REG |= Filter_PM_STBY_MSK;
 203              		.loc 1 108 0
 204 0014 0A4B     		ldr	r3, .L6+4
 205 0016 0A4A     		ldr	r2, .L6+4
 206 0018 1278     		ldrb	r2, [r2]
 207 001a D2B2     		uxtb	r2, r2
 208 001c 42F01002 		orr	r2, r2, #16
 209 0020 D2B2     		uxtb	r2, r2
 210 0022 1A70     		strb	r2, [r3]
 109:.\Generated_Source\PSoC5/Filter.c **** 
 110:.\Generated_Source\PSoC5/Filter.c ****     /* Turn on Run Bit */
 111:.\Generated_Source\PSoC5/Filter.c ****     Filter_CR_REG |= Filter_RUN_MASK;
 211              		.loc 1 111 0
 212 0024 074B     		ldr	r3, .L6+8
 213 0026 074A     		ldr	r2, .L6+8
 214 0028 1278     		ldrb	r2, [r2]
 215 002a D2B2     		uxtb	r2, r2
 216 002c 42F00102 		orr	r2, r2, #1
 217 0030 D2B2     		uxtb	r2, r2
 218 0032 1A70     		strb	r2, [r3]
 112:.\Generated_Source\PSoC5/Filter.c **** }
 219              		.loc 1 112 0
 220 0034 BD46     		mov	sp, r7
 221              		@ sp needed
 222 0036 5DF8047B 		ldr	r7, [sp], #4
 223 003a 7047     		bx	lr
 224              	.L7:
 225              		.align	2
 226              	.L6:
 227 003c A6430040 		.word	1073759142
 228 0040 B6430040 		.word	1073759158
 229 0044 80C70040 		.word	1073792896
 230              		.cfi_endproc
ARM GAS  C:\Users\SCOTTC~1\AppData\Local\Temp\ccK1cr4f.s 			page 7


 231              	.LFE1:
 232              		.size	Filter_Enable, .-Filter_Enable
 233              		.section	.text.Filter_Start,"ax",%progbits
 234              		.align	2
 235              		.global	Filter_Start
 236              		.thumb
 237              		.thumb_func
 238              		.type	Filter_Start, %function
 239              	Filter_Start:
 240              	.LFB2:
 113:.\Generated_Source\PSoC5/Filter.c **** 
 114:.\Generated_Source\PSoC5/Filter.c **** 
 115:.\Generated_Source\PSoC5/Filter.c **** /*******************************************************************************
 116:.\Generated_Source\PSoC5/Filter.c **** * Function Name: Filter_Start
 117:.\Generated_Source\PSoC5/Filter.c **** ********************************************************************************
 118:.\Generated_Source\PSoC5/Filter.c **** *
 119:.\Generated_Source\PSoC5/Filter.c **** * Summary:
 120:.\Generated_Source\PSoC5/Filter.c **** *  This method does the prep work necessary to setup DFB.  This includes loading 
 121:.\Generated_Source\PSoC5/Filter.c **** *
 122:.\Generated_Source\PSoC5/Filter.c **** * Parameters:  
 123:.\Generated_Source\PSoC5/Filter.c **** *  void
 124:.\Generated_Source\PSoC5/Filter.c **** * 
 125:.\Generated_Source\PSoC5/Filter.c **** * Return: 
 126:.\Generated_Source\PSoC5/Filter.c **** *  void
 127:.\Generated_Source\PSoC5/Filter.c **** *
 128:.\Generated_Source\PSoC5/Filter.c **** * Global variables:
 129:.\Generated_Source\PSoC5/Filter.c **** *  Filter_initVar:  Used to check the initial configuration,
 130:.\Generated_Source\PSoC5/Filter.c **** *  modified when this function is called for the first time.
 131:.\Generated_Source\PSoC5/Filter.c **** *
 132:.\Generated_Source\PSoC5/Filter.c **** * Note: 
 133:.\Generated_Source\PSoC5/Filter.c **** *  Use Filter_InterruptConfig to control which events trigger 
 134:.\Generated_Source\PSoC5/Filter.c **** *  interrupts in the DFB. 
 135:.\Generated_Source\PSoC5/Filter.c **** *
 136:.\Generated_Source\PSoC5/Filter.c **** *******************************************************************************/
 137:.\Generated_Source\PSoC5/Filter.c **** void Filter_Start(void) 
 138:.\Generated_Source\PSoC5/Filter.c **** {
 241              		.loc 1 138 0
 242              		.cfi_startproc
 243              		@ args = 0, pretend = 0, frame = 0
 244              		@ frame_needed = 1, uses_anonymous_args = 0
 245 0000 80B5     		push	{r7, lr}
 246              		.cfi_def_cfa_offset 8
 247              		.cfi_offset 7, -8
 248              		.cfi_offset 14, -4
 249 0002 00AF     		add	r7, sp, #0
 250              		.cfi_def_cfa_register 7
 139:.\Generated_Source\PSoC5/Filter.c ****      /* If not Initialized then initialize all required hardware and software */
 140:.\Generated_Source\PSoC5/Filter.c ****     if(Filter_initVar == 0u)
 251              		.loc 1 140 0
 252 0004 054B     		ldr	r3, .L10
 253 0006 1B78     		ldrb	r3, [r3]	@ zero_extendqisi2
 254 0008 002B     		cmp	r3, #0
 255 000a 04D1     		bne	.L9
 141:.\Generated_Source\PSoC5/Filter.c ****     {
 142:.\Generated_Source\PSoC5/Filter.c ****         Filter_Init();
 256              		.loc 1 142 0
 257 000c FFF7FEFF 		bl	Filter_Init
ARM GAS  C:\Users\SCOTTC~1\AppData\Local\Temp\ccK1cr4f.s 			page 8


 143:.\Generated_Source\PSoC5/Filter.c ****         Filter_initVar = 1u;
 258              		.loc 1 143 0
 259 0010 024B     		ldr	r3, .L10
 260 0012 0122     		movs	r2, #1
 261 0014 1A70     		strb	r2, [r3]
 262              	.L9:
 144:.\Generated_Source\PSoC5/Filter.c ****     }
 145:.\Generated_Source\PSoC5/Filter.c **** 
 146:.\Generated_Source\PSoC5/Filter.c ****     /* Enable the DFB block */
 147:.\Generated_Source\PSoC5/Filter.c ****     Filter_Enable();
 263              		.loc 1 147 0
 264 0016 FFF7FEFF 		bl	Filter_Enable
 148:.\Generated_Source\PSoC5/Filter.c **** }
 265              		.loc 1 148 0
 266 001a 80BD     		pop	{r7, pc}
 267              	.L11:
 268              		.align	2
 269              	.L10:
 270 001c 00000000 		.word	Filter_initVar
 271              		.cfi_endproc
 272              	.LFE2:
 273              		.size	Filter_Start, .-Filter_Start
 274              		.section	.text.Filter_Stop,"ax",%progbits
 275              		.align	2
 276              		.global	Filter_Stop
 277              		.thumb
 278              		.thumb_func
 279              		.type	Filter_Stop, %function
 280              	Filter_Stop:
 281              	.LFB3:
 149:.\Generated_Source\PSoC5/Filter.c **** 
 150:.\Generated_Source\PSoC5/Filter.c **** 
 151:.\Generated_Source\PSoC5/Filter.c **** /*******************************************************************************
 152:.\Generated_Source\PSoC5/Filter.c **** * Function Name: Filter_Stop
 153:.\Generated_Source\PSoC5/Filter.c **** ********************************************************************************
 154:.\Generated_Source\PSoC5/Filter.c **** *
 155:.\Generated_Source\PSoC5/Filter.c **** * Summary:
 156:.\Generated_Source\PSoC5/Filter.c **** *  Turn off the run bit.  If DMA control is used to feed the channels, allow 
 157:.\Generated_Source\PSoC5/Filter.c **** *  arguments to turn one of the TD channels off. 
 158:.\Generated_Source\PSoC5/Filter.c **** *
 159:.\Generated_Source\PSoC5/Filter.c **** * Parameters:  
 160:.\Generated_Source\PSoC5/Filter.c **** *  void
 161:.\Generated_Source\PSoC5/Filter.c **** *
 162:.\Generated_Source\PSoC5/Filter.c **** * Return: 
 163:.\Generated_Source\PSoC5/Filter.c **** *  void
 164:.\Generated_Source\PSoC5/Filter.c **** *
 165:.\Generated_Source\PSoC5/Filter.c **** *******************************************************************************/
 166:.\Generated_Source\PSoC5/Filter.c **** void Filter_Stop(void) 
 167:.\Generated_Source\PSoC5/Filter.c **** {
 282              		.loc 1 167 0
 283              		.cfi_startproc
 284              		@ args = 0, pretend = 0, frame = 0
 285              		@ frame_needed = 1, uses_anonymous_args = 0
 286              		@ link register save eliminated.
 287 0000 80B4     		push	{r7}
 288              		.cfi_def_cfa_offset 4
 289              		.cfi_offset 7, -4
ARM GAS  C:\Users\SCOTTC~1\AppData\Local\Temp\ccK1cr4f.s 			page 9


 290 0002 00AF     		add	r7, sp, #0
 291              		.cfi_def_cfa_register 7
 168:.\Generated_Source\PSoC5/Filter.c ****     Filter_CR_REG &= (uint8)~(Filter_RUN_MASK);
 292              		.loc 1 168 0
 293 0004 0D4B     		ldr	r3, .L13
 294 0006 0D4A     		ldr	r2, .L13
 295 0008 1278     		ldrb	r2, [r2]
 296 000a D2B2     		uxtb	r2, r2
 297 000c 22F00102 		bic	r2, r2, #1
 298 0010 D2B2     		uxtb	r2, r2
 299 0012 1A70     		strb	r2, [r3]
 169:.\Generated_Source\PSoC5/Filter.c **** 
 170:.\Generated_Source\PSoC5/Filter.c ****     /* Power off DFB in Active mode */
 171:.\Generated_Source\PSoC5/Filter.c ****     Filter_PM_ACT_CFG_REG &= (uint8)~Filter_PM_ACT_MSK;
 300              		.loc 1 171 0
 301 0014 0A4B     		ldr	r3, .L13+4
 302 0016 0A4A     		ldr	r2, .L13+4
 303 0018 1278     		ldrb	r2, [r2]
 304 001a D2B2     		uxtb	r2, r2
 305 001c 22F01002 		bic	r2, r2, #16
 306 0020 D2B2     		uxtb	r2, r2
 307 0022 1A70     		strb	r2, [r3]
 172:.\Generated_Source\PSoC5/Filter.c ****     
 173:.\Generated_Source\PSoC5/Filter.c ****     /* Power off DFB in Alternative Active mode */
 174:.\Generated_Source\PSoC5/Filter.c ****     Filter_PM_STBY_CFG_REG &= (uint8)~Filter_PM_STBY_MSK;
 308              		.loc 1 174 0
 309 0024 074B     		ldr	r3, .L13+8
 310 0026 074A     		ldr	r2, .L13+8
 311 0028 1278     		ldrb	r2, [r2]
 312 002a D2B2     		uxtb	r2, r2
 313 002c 22F01002 		bic	r2, r2, #16
 314 0030 D2B2     		uxtb	r2, r2
 315 0032 1A70     		strb	r2, [r3]
 175:.\Generated_Source\PSoC5/Filter.c **** }
 316              		.loc 1 175 0
 317 0034 BD46     		mov	sp, r7
 318              		@ sp needed
 319 0036 5DF8047B 		ldr	r7, [sp], #4
 320 003a 7047     		bx	lr
 321              	.L14:
 322              		.align	2
 323              	.L13:
 324 003c 80C70040 		.word	1073792896
 325 0040 A6430040 		.word	1073759142
 326 0044 B6430040 		.word	1073759158
 327              		.cfi_endproc
 328              	.LFE3:
 329              		.size	Filter_Stop, .-Filter_Stop
 330              		.section	.text.Filter_Read8,"ax",%progbits
 331              		.align	2
 332              		.global	Filter_Read8
 333              		.thumb
 334              		.thumb_func
 335              		.type	Filter_Read8, %function
 336              	Filter_Read8:
 337              	.LFB4:
 176:.\Generated_Source\PSoC5/Filter.c **** 
ARM GAS  C:\Users\SCOTTC~1\AppData\Local\Temp\ccK1cr4f.s 			page 10


 177:.\Generated_Source\PSoC5/Filter.c **** 
 178:.\Generated_Source\PSoC5/Filter.c **** /*******************************************************************************
 179:.\Generated_Source\PSoC5/Filter.c **** * Function Name: Filter_Read8
 180:.\Generated_Source\PSoC5/Filter.c **** ********************************************************************************
 181:.\Generated_Source\PSoC5/Filter.c **** *
 182:.\Generated_Source\PSoC5/Filter.c **** * Summary:
 183:.\Generated_Source\PSoC5/Filter.c **** *  Get the value in one of the DFB Output Holding Registers 
 184:.\Generated_Source\PSoC5/Filter.c **** *
 185:.\Generated_Source\PSoC5/Filter.c **** * Parameters:  
 186:.\Generated_Source\PSoC5/Filter.c **** *  channel:  Filter_CHANNEL_A or Filter_CHANNEL_B
 187:.\Generated_Source\PSoC5/Filter.c **** *            
 188:.\Generated_Source\PSoC5/Filter.c **** * Return: 
 189:.\Generated_Source\PSoC5/Filter.c **** *  The most significant 8 bits of the current output value sitting in the 
 190:.\Generated_Source\PSoC5/Filter.c **** *  selected channel's holding register or 0x00 for invalid channel numbers.
 191:.\Generated_Source\PSoC5/Filter.c **** *
 192:.\Generated_Source\PSoC5/Filter.c **** *******************************************************************************/
 193:.\Generated_Source\PSoC5/Filter.c **** uint8 Filter_Read8(uint8 channel) 
 194:.\Generated_Source\PSoC5/Filter.c **** {
 338              		.loc 1 194 0
 339              		.cfi_startproc
 340              		@ args = 0, pretend = 0, frame = 16
 341              		@ frame_needed = 1, uses_anonymous_args = 0
 342              		@ link register save eliminated.
 343 0000 80B4     		push	{r7}
 344              		.cfi_def_cfa_offset 4
 345              		.cfi_offset 7, -4
 346 0002 85B0     		sub	sp, sp, #20
 347              		.cfi_def_cfa_offset 24
 348 0004 00AF     		add	r7, sp, #0
 349              		.cfi_def_cfa_register 7
 350 0006 0346     		mov	r3, r0
 351 0008 FB71     		strb	r3, [r7, #7]
 195:.\Generated_Source\PSoC5/Filter.c ****     uint8 value;
 196:.\Generated_Source\PSoC5/Filter.c **** 
 197:.\Generated_Source\PSoC5/Filter.c ****     if (channel == Filter_CHANNEL_A)
 352              		.loc 1 197 0
 353 000a FB79     		ldrb	r3, [r7, #7]	@ zero_extendqisi2
 354 000c 002B     		cmp	r3, #0
 355 000e 03D1     		bne	.L16
 198:.\Generated_Source\PSoC5/Filter.c ****     {
 199:.\Generated_Source\PSoC5/Filter.c ****         value = Filter_HOLDAH_REG;
 356              		.loc 1 199 0
 357 0010 094B     		ldr	r3, .L20
 358 0012 1B78     		ldrb	r3, [r3]
 359 0014 FB73     		strb	r3, [r7, #15]
 360 0016 08E0     		b	.L17
 361              	.L16:
 200:.\Generated_Source\PSoC5/Filter.c ****     }
 201:.\Generated_Source\PSoC5/Filter.c ****     else if (channel == Filter_CHANNEL_B)
 362              		.loc 1 201 0
 363 0018 FB79     		ldrb	r3, [r7, #7]	@ zero_extendqisi2
 364 001a 012B     		cmp	r3, #1
 365 001c 03D1     		bne	.L18
 202:.\Generated_Source\PSoC5/Filter.c ****     {
 203:.\Generated_Source\PSoC5/Filter.c ****         value = Filter_HOLDBH_REG;
 366              		.loc 1 203 0
 367 001e 074B     		ldr	r3, .L20+4
ARM GAS  C:\Users\SCOTTC~1\AppData\Local\Temp\ccK1cr4f.s 			page 11


 368 0020 1B78     		ldrb	r3, [r3]
 369 0022 FB73     		strb	r3, [r7, #15]
 370 0024 01E0     		b	.L17
 371              	.L18:
 204:.\Generated_Source\PSoC5/Filter.c ****     }
 205:.\Generated_Source\PSoC5/Filter.c ****     else
 206:.\Generated_Source\PSoC5/Filter.c ****     {
 207:.\Generated_Source\PSoC5/Filter.c ****         value = 0x0u;
 372              		.loc 1 207 0
 373 0026 0023     		movs	r3, #0
 374 0028 FB73     		strb	r3, [r7, #15]
 375              	.L17:
 208:.\Generated_Source\PSoC5/Filter.c ****     }
 209:.\Generated_Source\PSoC5/Filter.c ****     return value;
 376              		.loc 1 209 0
 377 002a FB7B     		ldrb	r3, [r7, #15]	@ zero_extendqisi2
 210:.\Generated_Source\PSoC5/Filter.c **** }
 378              		.loc 1 210 0
 379 002c 1846     		mov	r0, r3
 380 002e 1437     		adds	r7, r7, #20
 381 0030 BD46     		mov	sp, r7
 382              		@ sp needed
 383 0032 5DF8047B 		ldr	r7, [sp], #4
 384 0036 7047     		bx	lr
 385              	.L21:
 386              		.align	2
 387              	.L20:
 388 0038 AAC70040 		.word	1073792938
 389 003c AEC70040 		.word	1073792942
 390              		.cfi_endproc
 391              	.LFE4:
 392              		.size	Filter_Read8, .-Filter_Read8
 393              		.section	.text.Filter_Read16,"ax",%progbits
 394              		.align	2
 395              		.global	Filter_Read16
 396              		.thumb
 397              		.thumb_func
 398              		.type	Filter_Read16, %function
 399              	Filter_Read16:
 400              	.LFB5:
 211:.\Generated_Source\PSoC5/Filter.c **** 
 212:.\Generated_Source\PSoC5/Filter.c **** 
 213:.\Generated_Source\PSoC5/Filter.c **** /*******************************************************************************
 214:.\Generated_Source\PSoC5/Filter.c **** * Function Name: Filter_Read16
 215:.\Generated_Source\PSoC5/Filter.c **** ********************************************************************************
 216:.\Generated_Source\PSoC5/Filter.c **** *
 217:.\Generated_Source\PSoC5/Filter.c **** * Summary:
 218:.\Generated_Source\PSoC5/Filter.c **** *  Get the value in one of the DFB Output Holding Registers 
 219:.\Generated_Source\PSoC5/Filter.c **** *
 220:.\Generated_Source\PSoC5/Filter.c **** * Parameters:  
 221:.\Generated_Source\PSoC5/Filter.c **** *  channel:  Filter_CHANNEL_A or Filter_CHANNEL_B
 222:.\Generated_Source\PSoC5/Filter.c **** *            
 223:.\Generated_Source\PSoC5/Filter.c **** * Return: 
 224:.\Generated_Source\PSoC5/Filter.c **** *  The most significant 16 bits of the current output value sitting in the 
 225:.\Generated_Source\PSoC5/Filter.c **** *  selected channel's holding register or 0x0000 for invalid channel numbers
 226:.\Generated_Source\PSoC5/Filter.c **** *
 227:.\Generated_Source\PSoC5/Filter.c **** * Note:
ARM GAS  C:\Users\SCOTTC~1\AppData\Local\Temp\ccK1cr4f.s 			page 12


 228:.\Generated_Source\PSoC5/Filter.c **** *  Order of the read is important.  On the read of the high byte, the DFB clears
 229:.\Generated_Source\PSoC5/Filter.c **** *  the data ready bit.
 230:.\Generated_Source\PSoC5/Filter.c **** *
 231:.\Generated_Source\PSoC5/Filter.c **** *******************************************************************************/
 232:.\Generated_Source\PSoC5/Filter.c **** #if defined(__C51__) || defined(__CX51__) 
 233:.\Generated_Source\PSoC5/Filter.c **** 
 234:.\Generated_Source\PSoC5/Filter.c ****     uint16 Filter_Read16(uint8 channel) 
 235:.\Generated_Source\PSoC5/Filter.c ****     {
 236:.\Generated_Source\PSoC5/Filter.c ****         uint16 val;
 237:.\Generated_Source\PSoC5/Filter.c ****     
 238:.\Generated_Source\PSoC5/Filter.c ****         if (channel == Filter_CHANNEL_A)
 239:.\Generated_Source\PSoC5/Filter.c ****         {        
 240:.\Generated_Source\PSoC5/Filter.c ****             val = Filter_HOLDAM_REG;
 241:.\Generated_Source\PSoC5/Filter.c ****             val |= (uint16)(Filter_HOLDAH_REG) << 8u;
 242:.\Generated_Source\PSoC5/Filter.c ****         }
 243:.\Generated_Source\PSoC5/Filter.c ****         else if (channel == Filter_CHANNEL_B)
 244:.\Generated_Source\PSoC5/Filter.c ****         {      
 245:.\Generated_Source\PSoC5/Filter.c ****             val = Filter_HOLDBM_REG;
 246:.\Generated_Source\PSoC5/Filter.c ****             val |= (uint16)Filter_HOLDBH_REG << 8u;
 247:.\Generated_Source\PSoC5/Filter.c ****         }
 248:.\Generated_Source\PSoC5/Filter.c ****         else
 249:.\Generated_Source\PSoC5/Filter.c ****         {
 250:.\Generated_Source\PSoC5/Filter.c ****             val = 0x0u;
 251:.\Generated_Source\PSoC5/Filter.c ****         }
 252:.\Generated_Source\PSoC5/Filter.c ****         return val;
 253:.\Generated_Source\PSoC5/Filter.c ****     }
 254:.\Generated_Source\PSoC5/Filter.c **** 
 255:.\Generated_Source\PSoC5/Filter.c **** #else
 256:.\Generated_Source\PSoC5/Filter.c **** 
 257:.\Generated_Source\PSoC5/Filter.c ****     uint16 Filter_Read16(uint8 channel) 
 258:.\Generated_Source\PSoC5/Filter.c ****     {
 401              		.loc 1 258 0
 402              		.cfi_startproc
 403              		@ args = 0, pretend = 0, frame = 16
 404              		@ frame_needed = 1, uses_anonymous_args = 0
 405              		@ link register save eliminated.
 406 0000 80B4     		push	{r7}
 407              		.cfi_def_cfa_offset 4
 408              		.cfi_offset 7, -4
 409 0002 85B0     		sub	sp, sp, #20
 410              		.cfi_def_cfa_offset 24
 411 0004 00AF     		add	r7, sp, #0
 412              		.cfi_def_cfa_register 7
 413 0006 0346     		mov	r3, r0
 414 0008 FB71     		strb	r3, [r7, #7]
 259:.\Generated_Source\PSoC5/Filter.c ****         uint16 val;
 260:.\Generated_Source\PSoC5/Filter.c **** 
 261:.\Generated_Source\PSoC5/Filter.c ****         if (channel == Filter_CHANNEL_A)
 415              		.loc 1 261 0
 416 000a FB79     		ldrb	r3, [r7, #7]	@ zero_extendqisi2
 417 000c 002B     		cmp	r3, #0
 418 000e 03D1     		bne	.L23
 262:.\Generated_Source\PSoC5/Filter.c ****         {        
 263:.\Generated_Source\PSoC5/Filter.c ****             val = Filter_HOLDA16_REG;
 419              		.loc 1 263 0
 420 0010 094B     		ldr	r3, .L27
 421 0012 1B88     		ldrh	r3, [r3]	@ movhi
ARM GAS  C:\Users\SCOTTC~1\AppData\Local\Temp\ccK1cr4f.s 			page 13


 422 0014 FB81     		strh	r3, [r7, #14]	@ movhi
 423 0016 08E0     		b	.L24
 424              	.L23:
 264:.\Generated_Source\PSoC5/Filter.c ****         }
 265:.\Generated_Source\PSoC5/Filter.c ****         else if (channel == Filter_CHANNEL_B)
 425              		.loc 1 265 0
 426 0018 FB79     		ldrb	r3, [r7, #7]	@ zero_extendqisi2
 427 001a 012B     		cmp	r3, #1
 428 001c 03D1     		bne	.L25
 266:.\Generated_Source\PSoC5/Filter.c ****         {      
 267:.\Generated_Source\PSoC5/Filter.c ****             val = Filter_HOLDB16_REG;
 429              		.loc 1 267 0
 430 001e 074B     		ldr	r3, .L27+4
 431 0020 1B88     		ldrh	r3, [r3]	@ movhi
 432 0022 FB81     		strh	r3, [r7, #14]	@ movhi
 433 0024 01E0     		b	.L24
 434              	.L25:
 268:.\Generated_Source\PSoC5/Filter.c ****         }
 269:.\Generated_Source\PSoC5/Filter.c ****         else
 270:.\Generated_Source\PSoC5/Filter.c ****         {
 271:.\Generated_Source\PSoC5/Filter.c ****             val = 0x0u;
 435              		.loc 1 271 0
 436 0026 0023     		movs	r3, #0
 437 0028 FB81     		strh	r3, [r7, #14]	@ movhi
 438              	.L24:
 272:.\Generated_Source\PSoC5/Filter.c ****         }
 273:.\Generated_Source\PSoC5/Filter.c ****         return val;
 439              		.loc 1 273 0
 440 002a FB89     		ldrh	r3, [r7, #14]
 274:.\Generated_Source\PSoC5/Filter.c ****     }
 441              		.loc 1 274 0
 442 002c 1846     		mov	r0, r3
 443 002e 1437     		adds	r7, r7, #20
 444 0030 BD46     		mov	sp, r7
 445              		@ sp needed
 446 0032 5DF8047B 		ldr	r7, [sp], #4
 447 0036 7047     		bx	lr
 448              	.L28:
 449              		.align	2
 450              	.L27:
 451 0038 A9C70040 		.word	1073792937
 452 003c ADC70040 		.word	1073792941
 453              		.cfi_endproc
 454              	.LFE5:
 455              		.size	Filter_Read16, .-Filter_Read16
 456              		.section	.text.Filter_Read24,"ax",%progbits
 457              		.align	2
 458              		.global	Filter_Read24
 459              		.thumb
 460              		.thumb_func
 461              		.type	Filter_Read24, %function
 462              	Filter_Read24:
 463              	.LFB6:
 275:.\Generated_Source\PSoC5/Filter.c **** 
 276:.\Generated_Source\PSoC5/Filter.c **** #endif /* defined(__C51__) || defined(__CX51__) */
 277:.\Generated_Source\PSoC5/Filter.c **** 
 278:.\Generated_Source\PSoC5/Filter.c **** 
ARM GAS  C:\Users\SCOTTC~1\AppData\Local\Temp\ccK1cr4f.s 			page 14


 279:.\Generated_Source\PSoC5/Filter.c **** /*******************************************************************************
 280:.\Generated_Source\PSoC5/Filter.c **** * Function Name: Filter_Read24
 281:.\Generated_Source\PSoC5/Filter.c **** ********************************************************************************
 282:.\Generated_Source\PSoC5/Filter.c **** *
 283:.\Generated_Source\PSoC5/Filter.c **** * Summary:
 284:.\Generated_Source\PSoC5/Filter.c **** *  Get the value in one of the DFB Output Holding Registers 
 285:.\Generated_Source\PSoC5/Filter.c **** *
 286:.\Generated_Source\PSoC5/Filter.c **** * Parameters:  
 287:.\Generated_Source\PSoC5/Filter.c **** *  channel:  Filter_CHANNEL_A or Filter_CHANNEL_B
 288:.\Generated_Source\PSoC5/Filter.c **** *            
 289:.\Generated_Source\PSoC5/Filter.c **** * Return: 
 290:.\Generated_Source\PSoC5/Filter.c **** *  The current 24-bit output value sitting in the selected channel's
 291:.\Generated_Source\PSoC5/Filter.c **** *  holding register or 0x00000000 for invalid channel numbers
 292:.\Generated_Source\PSoC5/Filter.c **** *
 293:.\Generated_Source\PSoC5/Filter.c **** * Note:
 294:.\Generated_Source\PSoC5/Filter.c **** *  Order of the read is important.  On the read of the high byte, the DFB clears
 295:.\Generated_Source\PSoC5/Filter.c **** *  the data ready bit.
 296:.\Generated_Source\PSoC5/Filter.c **** *
 297:.\Generated_Source\PSoC5/Filter.c **** *******************************************************************************/
 298:.\Generated_Source\PSoC5/Filter.c **** #if defined(__C51__) || defined(__CX51__)
 299:.\Generated_Source\PSoC5/Filter.c **** 
 300:.\Generated_Source\PSoC5/Filter.c ****     uint32 Filter_Read24(uint8 channel) 
 301:.\Generated_Source\PSoC5/Filter.c ****     {
 302:.\Generated_Source\PSoC5/Filter.c ****         uint32 val;
 303:.\Generated_Source\PSoC5/Filter.c ****     
 304:.\Generated_Source\PSoC5/Filter.c ****         if (channel == Filter_CHANNEL_A)
 305:.\Generated_Source\PSoC5/Filter.c ****         {        
 306:.\Generated_Source\PSoC5/Filter.c ****             val = Filter_HOLDA_REG;
 307:.\Generated_Source\PSoC5/Filter.c ****             val |= (uint32)(Filter_HOLDAM_REG) << 8u;
 308:.\Generated_Source\PSoC5/Filter.c ****             val |= (uint32)(Filter_HOLDAH_REG) << 16u;
 309:.\Generated_Source\PSoC5/Filter.c ****             
 310:.\Generated_Source\PSoC5/Filter.c ****             /* SignExtend */
 311:.\Generated_Source\PSoC5/Filter.c ****             if((val & Filter_SIGN_BIT) == Filter_SIGN_BIT)
 312:.\Generated_Source\PSoC5/Filter.c ****             {    
 313:.\Generated_Source\PSoC5/Filter.c **** 				val |= Filter_SIGN_BYTE;
 314:.\Generated_Source\PSoC5/Filter.c **** 			}
 315:.\Generated_Source\PSoC5/Filter.c ****         }
 316:.\Generated_Source\PSoC5/Filter.c ****         else if (channel == Filter_CHANNEL_B)
 317:.\Generated_Source\PSoC5/Filter.c ****         {      
 318:.\Generated_Source\PSoC5/Filter.c ****             val = Filter_HOLDB_REG;
 319:.\Generated_Source\PSoC5/Filter.c ****             val |= (uint32)Filter_HOLDBM_REG << 8u;
 320:.\Generated_Source\PSoC5/Filter.c ****             val |= (uint32)Filter_HOLDBH_REG << 16u;
 321:.\Generated_Source\PSoC5/Filter.c ****             
 322:.\Generated_Source\PSoC5/Filter.c ****             /* SignExtend */
 323:.\Generated_Source\PSoC5/Filter.c ****             if((val & Filter_SIGN_BIT) == Filter_SIGN_BIT)
 324:.\Generated_Source\PSoC5/Filter.c ****             {
 325:.\Generated_Source\PSoC5/Filter.c **** 				val |= Filter_SIGN_BYTE;
 326:.\Generated_Source\PSoC5/Filter.c **** 			}
 327:.\Generated_Source\PSoC5/Filter.c ****         }
 328:.\Generated_Source\PSoC5/Filter.c ****         else
 329:.\Generated_Source\PSoC5/Filter.c ****         {
 330:.\Generated_Source\PSoC5/Filter.c ****             val = 0x0u;
 331:.\Generated_Source\PSoC5/Filter.c ****         }
 332:.\Generated_Source\PSoC5/Filter.c ****         return val;
 333:.\Generated_Source\PSoC5/Filter.c ****     }
 334:.\Generated_Source\PSoC5/Filter.c **** 
 335:.\Generated_Source\PSoC5/Filter.c **** #else
ARM GAS  C:\Users\SCOTTC~1\AppData\Local\Temp\ccK1cr4f.s 			page 15


 336:.\Generated_Source\PSoC5/Filter.c **** 
 337:.\Generated_Source\PSoC5/Filter.c ****     uint32 Filter_Read24(uint8 channel) 
 338:.\Generated_Source\PSoC5/Filter.c ****     {
 464              		.loc 1 338 0
 465              		.cfi_startproc
 466              		@ args = 0, pretend = 0, frame = 16
 467              		@ frame_needed = 1, uses_anonymous_args = 0
 468              		@ link register save eliminated.
 469 0000 80B4     		push	{r7}
 470              		.cfi_def_cfa_offset 4
 471              		.cfi_offset 7, -4
 472 0002 85B0     		sub	sp, sp, #20
 473              		.cfi_def_cfa_offset 24
 474 0004 00AF     		add	r7, sp, #0
 475              		.cfi_def_cfa_register 7
 476 0006 0346     		mov	r3, r0
 477 0008 FB71     		strb	r3, [r7, #7]
 339:.\Generated_Source\PSoC5/Filter.c ****         uint32 val;
 340:.\Generated_Source\PSoC5/Filter.c ****          
 341:.\Generated_Source\PSoC5/Filter.c ****         if (channel == Filter_CHANNEL_A)
 478              		.loc 1 341 0
 479 000a FB79     		ldrb	r3, [r7, #7]	@ zero_extendqisi2
 480 000c 002B     		cmp	r3, #0
 481 000e 03D1     		bne	.L30
 342:.\Generated_Source\PSoC5/Filter.c ****         {        
 343:.\Generated_Source\PSoC5/Filter.c ****             val = Filter_HOLDA24_REG;
 482              		.loc 1 343 0
 483 0010 094B     		ldr	r3, .L34
 484 0012 1B68     		ldr	r3, [r3]
 485 0014 FB60     		str	r3, [r7, #12]
 486 0016 08E0     		b	.L31
 487              	.L30:
 344:.\Generated_Source\PSoC5/Filter.c ****         }
 345:.\Generated_Source\PSoC5/Filter.c ****         else if (channel == Filter_CHANNEL_B)
 488              		.loc 1 345 0
 489 0018 FB79     		ldrb	r3, [r7, #7]	@ zero_extendqisi2
 490 001a 012B     		cmp	r3, #1
 491 001c 03D1     		bne	.L32
 346:.\Generated_Source\PSoC5/Filter.c ****         {      
 347:.\Generated_Source\PSoC5/Filter.c ****             val = Filter_HOLDB24_REG;
 492              		.loc 1 347 0
 493 001e 074B     		ldr	r3, .L34+4
 494 0020 1B68     		ldr	r3, [r3]
 495 0022 FB60     		str	r3, [r7, #12]
 496 0024 01E0     		b	.L31
 497              	.L32:
 348:.\Generated_Source\PSoC5/Filter.c ****         }
 349:.\Generated_Source\PSoC5/Filter.c ****         else
 350:.\Generated_Source\PSoC5/Filter.c ****         {
 351:.\Generated_Source\PSoC5/Filter.c ****             val = 0x0u;
 498              		.loc 1 351 0
 499 0026 0023     		movs	r3, #0
 500 0028 FB60     		str	r3, [r7, #12]
 501              	.L31:
 352:.\Generated_Source\PSoC5/Filter.c ****         }
 353:.\Generated_Source\PSoC5/Filter.c ****         return val;
 502              		.loc 1 353 0
ARM GAS  C:\Users\SCOTTC~1\AppData\Local\Temp\ccK1cr4f.s 			page 16


 503 002a FB68     		ldr	r3, [r7, #12]
 354:.\Generated_Source\PSoC5/Filter.c ****     }
 504              		.loc 1 354 0
 505 002c 1846     		mov	r0, r3
 506 002e 1437     		adds	r7, r7, #20
 507 0030 BD46     		mov	sp, r7
 508              		@ sp needed
 509 0032 5DF8047B 		ldr	r7, [sp], #4
 510 0036 7047     		bx	lr
 511              	.L35:
 512              		.align	2
 513              	.L34:
 514 0038 A8C70040 		.word	1073792936
 515 003c ACC70040 		.word	1073792940
 516              		.cfi_endproc
 517              	.LFE6:
 518              		.size	Filter_Read24, .-Filter_Read24
 519              		.section	.text.Filter_Write8,"ax",%progbits
 520              		.align	2
 521              		.global	Filter_Write8
 522              		.thumb
 523              		.thumb_func
 524              		.type	Filter_Write8, %function
 525              	Filter_Write8:
 526              	.LFB7:
 355:.\Generated_Source\PSoC5/Filter.c **** 
 356:.\Generated_Source\PSoC5/Filter.c **** #endif /* defined(__C51__) || defined(__CX51__) */
 357:.\Generated_Source\PSoC5/Filter.c **** 
 358:.\Generated_Source\PSoC5/Filter.c **** 
 359:.\Generated_Source\PSoC5/Filter.c **** /*******************************************************************************
 360:.\Generated_Source\PSoC5/Filter.c **** * Function Name: Filter_Write8
 361:.\Generated_Source\PSoC5/Filter.c **** ********************************************************************************
 362:.\Generated_Source\PSoC5/Filter.c **** *
 363:.\Generated_Source\PSoC5/Filter.c **** * Summary:
 364:.\Generated_Source\PSoC5/Filter.c **** *  Set the value in one of the DFB Input Staging Registers 
 365:.\Generated_Source\PSoC5/Filter.c **** *
 366:.\Generated_Source\PSoC5/Filter.c **** * Parameters:  
 367:.\Generated_Source\PSoC5/Filter.c **** *  channel:  Use either Filter_CHANNEL_A or 
 368:.\Generated_Source\PSoC5/Filter.c **** *            Filter_CHANNEL_B as arguments to the function.  
 369:.\Generated_Source\PSoC5/Filter.c **** *  sample:   The 8-bit, right justified input sample. 
 370:.\Generated_Source\PSoC5/Filter.c **** *
 371:.\Generated_Source\PSoC5/Filter.c **** * Return: 
 372:.\Generated_Source\PSoC5/Filter.c **** *  void
 373:.\Generated_Source\PSoC5/Filter.c **** *
 374:.\Generated_Source\PSoC5/Filter.c **** * Note:
 375:.\Generated_Source\PSoC5/Filter.c **** *  Order of the write is important.  On the load of the high byte, the DFB sets
 376:.\Generated_Source\PSoC5/Filter.c **** *  the input ready bit.
 377:.\Generated_Source\PSoC5/Filter.c **** *
 378:.\Generated_Source\PSoC5/Filter.c **** *******************************************************************************/
 379:.\Generated_Source\PSoC5/Filter.c **** void Filter_Write8(uint8 channel, uint8 sample) 
 380:.\Generated_Source\PSoC5/Filter.c **** {
 527              		.loc 1 380 0
 528              		.cfi_startproc
 529              		@ args = 0, pretend = 0, frame = 8
 530              		@ frame_needed = 1, uses_anonymous_args = 0
 531              		@ link register save eliminated.
 532 0000 80B4     		push	{r7}
ARM GAS  C:\Users\SCOTTC~1\AppData\Local\Temp\ccK1cr4f.s 			page 17


 533              		.cfi_def_cfa_offset 4
 534              		.cfi_offset 7, -4
 535 0002 83B0     		sub	sp, sp, #12
 536              		.cfi_def_cfa_offset 16
 537 0004 00AF     		add	r7, sp, #0
 538              		.cfi_def_cfa_register 7
 539 0006 0246     		mov	r2, r0
 540 0008 0B46     		mov	r3, r1
 541 000a FA71     		strb	r2, [r7, #7]
 542 000c BB71     		strb	r3, [r7, #6]
 381:.\Generated_Source\PSoC5/Filter.c ****     if (channel == Filter_CHANNEL_A)
 543              		.loc 1 381 0
 544 000e FB79     		ldrb	r3, [r7, #7]	@ zero_extendqisi2
 545 0010 002B     		cmp	r3, #0
 546 0012 03D1     		bne	.L37
 382:.\Generated_Source\PSoC5/Filter.c ****     {
 383:.\Generated_Source\PSoC5/Filter.c ****         Filter_STAGEAH_REG = sample;
 547              		.loc 1 383 0
 548 0014 074B     		ldr	r3, .L39
 549 0016 BA79     		ldrb	r2, [r7, #6]
 550 0018 1A70     		strb	r2, [r3]
 551 001a 05E0     		b	.L36
 552              	.L37:
 384:.\Generated_Source\PSoC5/Filter.c ****     }
 385:.\Generated_Source\PSoC5/Filter.c ****     else if (channel == Filter_CHANNEL_B)
 553              		.loc 1 385 0
 554 001c FB79     		ldrb	r3, [r7, #7]	@ zero_extendqisi2
 555 001e 012B     		cmp	r3, #1
 556 0020 02D1     		bne	.L36
 386:.\Generated_Source\PSoC5/Filter.c ****     {
 387:.\Generated_Source\PSoC5/Filter.c ****         Filter_STAGEBH_REG = sample;
 557              		.loc 1 387 0
 558 0022 054B     		ldr	r3, .L39+4
 559 0024 BA79     		ldrb	r2, [r7, #6]
 560 0026 1A70     		strb	r2, [r3]
 561              	.L36:
 388:.\Generated_Source\PSoC5/Filter.c ****     }
 389:.\Generated_Source\PSoC5/Filter.c **** 	else
 390:.\Generated_Source\PSoC5/Filter.c **** 	{
 391:.\Generated_Source\PSoC5/Filter.c **** 		/* No value is loaded on bad channel input */
 392:.\Generated_Source\PSoC5/Filter.c **** 	}
 393:.\Generated_Source\PSoC5/Filter.c **** }
 562              		.loc 1 393 0
 563 0028 0C37     		adds	r7, r7, #12
 564 002a BD46     		mov	sp, r7
 565              		@ sp needed
 566 002c 5DF8047B 		ldr	r7, [sp], #4
 567 0030 7047     		bx	lr
 568              	.L40:
 569 0032 00BF     		.align	2
 570              	.L39:
 571 0034 A2C70040 		.word	1073792930
 572 0038 A6C70040 		.word	1073792934
 573              		.cfi_endproc
 574              	.LFE7:
 575              		.size	Filter_Write8, .-Filter_Write8
 576              		.section	.text.Filter_Write16,"ax",%progbits
ARM GAS  C:\Users\SCOTTC~1\AppData\Local\Temp\ccK1cr4f.s 			page 18


 577              		.align	2
 578              		.global	Filter_Write16
 579              		.thumb
 580              		.thumb_func
 581              		.type	Filter_Write16, %function
 582              	Filter_Write16:
 583              	.LFB8:
 394:.\Generated_Source\PSoC5/Filter.c **** 
 395:.\Generated_Source\PSoC5/Filter.c **** 
 396:.\Generated_Source\PSoC5/Filter.c **** /*******************************************************************************
 397:.\Generated_Source\PSoC5/Filter.c **** * Function Name: Filter_Write16
 398:.\Generated_Source\PSoC5/Filter.c **** ********************************************************************************
 399:.\Generated_Source\PSoC5/Filter.c **** *
 400:.\Generated_Source\PSoC5/Filter.c **** * Summary:
 401:.\Generated_Source\PSoC5/Filter.c **** *  Set the value in one of the DFB Input Staging Registers 
 402:.\Generated_Source\PSoC5/Filter.c **** *
 403:.\Generated_Source\PSoC5/Filter.c **** * Parameters:  
 404:.\Generated_Source\PSoC5/Filter.c **** *  channel:  Use either Filter_CHANNEL_A or 
 405:.\Generated_Source\PSoC5/Filter.c **** *            Filter_CHANNEL_B as arguments to the function.  
 406:.\Generated_Source\PSoC5/Filter.c **** *  sample:   The 16-bit, right justified input sample. 
 407:.\Generated_Source\PSoC5/Filter.c **** *
 408:.\Generated_Source\PSoC5/Filter.c **** * Return: 
 409:.\Generated_Source\PSoC5/Filter.c **** *  void
 410:.\Generated_Source\PSoC5/Filter.c **** *
 411:.\Generated_Source\PSoC5/Filter.c **** * Note:
 412:.\Generated_Source\PSoC5/Filter.c **** *  Order of the write is important.  On the load of the high byte, the DFB sets
 413:.\Generated_Source\PSoC5/Filter.c **** *  the input ready bit.
 414:.\Generated_Source\PSoC5/Filter.c **** *
 415:.\Generated_Source\PSoC5/Filter.c **** *******************************************************************************/
 416:.\Generated_Source\PSoC5/Filter.c **** #if defined(__C51__) || defined(__CX51__)
 417:.\Generated_Source\PSoC5/Filter.c **** 
 418:.\Generated_Source\PSoC5/Filter.c ****     void Filter_Write16(uint8 channel, uint16 sample) 
 419:.\Generated_Source\PSoC5/Filter.c ****     {
 420:.\Generated_Source\PSoC5/Filter.c ****         /* Write the STAGE MSB reg last as it signals a complete wrote to the 
 421:.\Generated_Source\PSoC5/Filter.c ****            DFB.*/
 422:.\Generated_Source\PSoC5/Filter.c ****         if (channel == Filter_CHANNEL_A)
 423:.\Generated_Source\PSoC5/Filter.c ****         {
 424:.\Generated_Source\PSoC5/Filter.c ****             Filter_STAGEAM_REG = (uint8)(sample);
 425:.\Generated_Source\PSoC5/Filter.c ****             Filter_STAGEAH_REG = (uint8)(sample >> 8u);
 426:.\Generated_Source\PSoC5/Filter.c ****         }
 427:.\Generated_Source\PSoC5/Filter.c ****         else if (channel == Filter_CHANNEL_B)
 428:.\Generated_Source\PSoC5/Filter.c ****         {
 429:.\Generated_Source\PSoC5/Filter.c ****             Filter_STAGEBM_REG = (uint8)(sample);
 430:.\Generated_Source\PSoC5/Filter.c ****             Filter_STAGEBH_REG = (uint8)(sample >> 8u);
 431:.\Generated_Source\PSoC5/Filter.c ****         }
 432:.\Generated_Source\PSoC5/Filter.c ****         else
 433:.\Generated_Source\PSoC5/Filter.c **** 		{
 434:.\Generated_Source\PSoC5/Filter.c **** 			/* No value is loaded on bad channel input */
 435:.\Generated_Source\PSoC5/Filter.c **** 		}
 436:.\Generated_Source\PSoC5/Filter.c ****     }
 437:.\Generated_Source\PSoC5/Filter.c **** 
 438:.\Generated_Source\PSoC5/Filter.c **** #else
 439:.\Generated_Source\PSoC5/Filter.c **** 
 440:.\Generated_Source\PSoC5/Filter.c ****     void Filter_Write16(uint8 channel, uint16 sample) 
 441:.\Generated_Source\PSoC5/Filter.c ****     {
 584              		.loc 1 441 0
 585              		.cfi_startproc
ARM GAS  C:\Users\SCOTTC~1\AppData\Local\Temp\ccK1cr4f.s 			page 19


 586              		@ args = 0, pretend = 0, frame = 8
 587              		@ frame_needed = 1, uses_anonymous_args = 0
 588              		@ link register save eliminated.
 589 0000 80B4     		push	{r7}
 590              		.cfi_def_cfa_offset 4
 591              		.cfi_offset 7, -4
 592 0002 83B0     		sub	sp, sp, #12
 593              		.cfi_def_cfa_offset 16
 594 0004 00AF     		add	r7, sp, #0
 595              		.cfi_def_cfa_register 7
 596 0006 0246     		mov	r2, r0
 597 0008 0B46     		mov	r3, r1
 598 000a FA71     		strb	r2, [r7, #7]
 599 000c BB80     		strh	r3, [r7, #4]	@ movhi
 442:.\Generated_Source\PSoC5/Filter.c ****         if (channel == Filter_CHANNEL_A)
 600              		.loc 1 442 0
 601 000e FB79     		ldrb	r3, [r7, #7]	@ zero_extendqisi2
 602 0010 002B     		cmp	r3, #0
 603 0012 03D1     		bne	.L42
 443:.\Generated_Source\PSoC5/Filter.c ****         {
 444:.\Generated_Source\PSoC5/Filter.c ****             Filter_STAGEA16_REG = sample;
 604              		.loc 1 444 0
 605 0014 074B     		ldr	r3, .L44
 606 0016 BA88     		ldrh	r2, [r7, #4]	@ movhi
 607 0018 1A80     		strh	r2, [r3]	@ movhi
 608 001a 05E0     		b	.L41
 609              	.L42:
 445:.\Generated_Source\PSoC5/Filter.c ****         }
 446:.\Generated_Source\PSoC5/Filter.c ****         else if (channel == Filter_CHANNEL_B)
 610              		.loc 1 446 0
 611 001c FB79     		ldrb	r3, [r7, #7]	@ zero_extendqisi2
 612 001e 012B     		cmp	r3, #1
 613 0020 02D1     		bne	.L41
 447:.\Generated_Source\PSoC5/Filter.c ****         {
 448:.\Generated_Source\PSoC5/Filter.c ****             Filter_STAGEB16_REG = sample;
 614              		.loc 1 448 0
 615 0022 054B     		ldr	r3, .L44+4
 616 0024 BA88     		ldrh	r2, [r7, #4]	@ movhi
 617 0026 1A80     		strh	r2, [r3]	@ movhi
 618              	.L41:
 449:.\Generated_Source\PSoC5/Filter.c ****         }
 450:.\Generated_Source\PSoC5/Filter.c ****         else
 451:.\Generated_Source\PSoC5/Filter.c **** 		{
 452:.\Generated_Source\PSoC5/Filter.c **** 			/* No value is loaded on bad channel input */
 453:.\Generated_Source\PSoC5/Filter.c **** 		}
 454:.\Generated_Source\PSoC5/Filter.c ****     }
 619              		.loc 1 454 0
 620 0028 0C37     		adds	r7, r7, #12
 621 002a BD46     		mov	sp, r7
 622              		@ sp needed
 623 002c 5DF8047B 		ldr	r7, [sp], #4
 624 0030 7047     		bx	lr
 625              	.L45:
 626 0032 00BF     		.align	2
 627              	.L44:
 628 0034 A1C70040 		.word	1073792929
 629 0038 A5C70040 		.word	1073792933
ARM GAS  C:\Users\SCOTTC~1\AppData\Local\Temp\ccK1cr4f.s 			page 20


 630              		.cfi_endproc
 631              	.LFE8:
 632              		.size	Filter_Write16, .-Filter_Write16
 633              		.section	.text.Filter_Write24,"ax",%progbits
 634              		.align	2
 635              		.global	Filter_Write24
 636              		.thumb
 637              		.thumb_func
 638              		.type	Filter_Write24, %function
 639              	Filter_Write24:
 640              	.LFB9:
 455:.\Generated_Source\PSoC5/Filter.c **** 
 456:.\Generated_Source\PSoC5/Filter.c **** #endif /* defined(__C51__) || defined(__CX51__) */
 457:.\Generated_Source\PSoC5/Filter.c **** 
 458:.\Generated_Source\PSoC5/Filter.c **** 
 459:.\Generated_Source\PSoC5/Filter.c **** /*******************************************************************************
 460:.\Generated_Source\PSoC5/Filter.c **** * Function Name: Filter_Write24
 461:.\Generated_Source\PSoC5/Filter.c **** ********************************************************************************
 462:.\Generated_Source\PSoC5/Filter.c **** *
 463:.\Generated_Source\PSoC5/Filter.c **** * Summary:
 464:.\Generated_Source\PSoC5/Filter.c **** *  Set the value in one of the DFB Input Staging Registers 
 465:.\Generated_Source\PSoC5/Filter.c **** *
 466:.\Generated_Source\PSoC5/Filter.c **** * Parameters:  
 467:.\Generated_Source\PSoC5/Filter.c **** *  channel:  Use either Filter_CHANNEL_A or 
 468:.\Generated_Source\PSoC5/Filter.c **** *            Filter_CHANNEL_B as arguments to the function.  
 469:.\Generated_Source\PSoC5/Filter.c **** *  sample:   The 24-bit, right justified input sample inside of a uint32. 
 470:.\Generated_Source\PSoC5/Filter.c **** *
 471:.\Generated_Source\PSoC5/Filter.c **** * Return: 
 472:.\Generated_Source\PSoC5/Filter.c **** *  void
 473:.\Generated_Source\PSoC5/Filter.c **** *
 474:.\Generated_Source\PSoC5/Filter.c **** * Note:
 475:.\Generated_Source\PSoC5/Filter.c **** *  Order of the write is important.  On the load of the high byte, the DFB sets
 476:.\Generated_Source\PSoC5/Filter.c **** *  the input ready bit.
 477:.\Generated_Source\PSoC5/Filter.c **** *
 478:.\Generated_Source\PSoC5/Filter.c **** *******************************************************************************/
 479:.\Generated_Source\PSoC5/Filter.c **** #if defined(__C51__) || defined(__CX51__)
 480:.\Generated_Source\PSoC5/Filter.c **** 
 481:.\Generated_Source\PSoC5/Filter.c ****     void Filter_Write24(uint8 channel, uint32 sample) 
 482:.\Generated_Source\PSoC5/Filter.c ****     {
 483:.\Generated_Source\PSoC5/Filter.c ****         /* Write the STAGE LSB reg last as it signals a complete wrote to 
 484:.\Generated_Source\PSoC5/Filter.c ****            the DFB.*/
 485:.\Generated_Source\PSoC5/Filter.c ****         if (channel == Filter_CHANNEL_A)
 486:.\Generated_Source\PSoC5/Filter.c ****         {
 487:.\Generated_Source\PSoC5/Filter.c ****             Filter_STAGEA_REG  = (uint8)(sample);
 488:.\Generated_Source\PSoC5/Filter.c ****             Filter_STAGEAM_REG = (uint8)(sample >> 8u);
 489:.\Generated_Source\PSoC5/Filter.c ****             Filter_STAGEAH_REG = (uint8)(sample >> 16u);
 490:.\Generated_Source\PSoC5/Filter.c ****         }
 491:.\Generated_Source\PSoC5/Filter.c ****         else if (channel == Filter_CHANNEL_B)
 492:.\Generated_Source\PSoC5/Filter.c ****         {
 493:.\Generated_Source\PSoC5/Filter.c ****             Filter_STAGEB_REG = (uint8)(sample);
 494:.\Generated_Source\PSoC5/Filter.c ****             Filter_STAGEBM_REG = (uint8)(sample >> 8u);
 495:.\Generated_Source\PSoC5/Filter.c ****             Filter_STAGEBH_REG = (uint8)(sample >> 16u);
 496:.\Generated_Source\PSoC5/Filter.c ****         }
 497:.\Generated_Source\PSoC5/Filter.c ****         else
 498:.\Generated_Source\PSoC5/Filter.c **** 		{
 499:.\Generated_Source\PSoC5/Filter.c **** 			/* No value is loaded on bad channel input */
 500:.\Generated_Source\PSoC5/Filter.c **** 		}
ARM GAS  C:\Users\SCOTTC~1\AppData\Local\Temp\ccK1cr4f.s 			page 21


 501:.\Generated_Source\PSoC5/Filter.c ****     }
 502:.\Generated_Source\PSoC5/Filter.c **** 
 503:.\Generated_Source\PSoC5/Filter.c **** #else
 504:.\Generated_Source\PSoC5/Filter.c **** 
 505:.\Generated_Source\PSoC5/Filter.c ****     void Filter_Write24(uint8 channel, uint32 sample) 
 506:.\Generated_Source\PSoC5/Filter.c ****     {
 641              		.loc 1 506 0
 642              		.cfi_startproc
 643              		@ args = 0, pretend = 0, frame = 8
 644              		@ frame_needed = 1, uses_anonymous_args = 0
 645              		@ link register save eliminated.
 646 0000 80B4     		push	{r7}
 647              		.cfi_def_cfa_offset 4
 648              		.cfi_offset 7, -4
 649 0002 83B0     		sub	sp, sp, #12
 650              		.cfi_def_cfa_offset 16
 651 0004 00AF     		add	r7, sp, #0
 652              		.cfi_def_cfa_register 7
 653 0006 0346     		mov	r3, r0
 654 0008 3960     		str	r1, [r7]
 655 000a FB71     		strb	r3, [r7, #7]
 507:.\Generated_Source\PSoC5/Filter.c ****         if (channel == Filter_CHANNEL_A)
 656              		.loc 1 507 0
 657 000c FB79     		ldrb	r3, [r7, #7]	@ zero_extendqisi2
 658 000e 002B     		cmp	r3, #0
 659 0010 03D1     		bne	.L47
 508:.\Generated_Source\PSoC5/Filter.c ****         {
 509:.\Generated_Source\PSoC5/Filter.c ****             Filter_STAGEA24_REG = sample;
 660              		.loc 1 509 0
 661 0012 074B     		ldr	r3, .L49
 662 0014 3A68     		ldr	r2, [r7]
 663 0016 1A60     		str	r2, [r3]
 664 0018 05E0     		b	.L46
 665              	.L47:
 510:.\Generated_Source\PSoC5/Filter.c ****         }
 511:.\Generated_Source\PSoC5/Filter.c ****         else if (channel == Filter_CHANNEL_B)
 666              		.loc 1 511 0
 667 001a FB79     		ldrb	r3, [r7, #7]	@ zero_extendqisi2
 668 001c 012B     		cmp	r3, #1
 669 001e 02D1     		bne	.L46
 512:.\Generated_Source\PSoC5/Filter.c ****         {
 513:.\Generated_Source\PSoC5/Filter.c ****             Filter_STAGEB24_REG = sample;
 670              		.loc 1 513 0
 671 0020 044B     		ldr	r3, .L49+4
 672 0022 3A68     		ldr	r2, [r7]
 673 0024 1A60     		str	r2, [r3]
 674              	.L46:
 514:.\Generated_Source\PSoC5/Filter.c ****         }
 515:.\Generated_Source\PSoC5/Filter.c ****         else
 516:.\Generated_Source\PSoC5/Filter.c **** 		{
 517:.\Generated_Source\PSoC5/Filter.c **** 			/* No value is loaded on bad channel input */
 518:.\Generated_Source\PSoC5/Filter.c **** 		}
 519:.\Generated_Source\PSoC5/Filter.c ****     }
 675              		.loc 1 519 0
 676 0026 0C37     		adds	r7, r7, #12
 677 0028 BD46     		mov	sp, r7
 678              		@ sp needed
ARM GAS  C:\Users\SCOTTC~1\AppData\Local\Temp\ccK1cr4f.s 			page 22


 679 002a 5DF8047B 		ldr	r7, [sp], #4
 680 002e 7047     		bx	lr
 681              	.L50:
 682              		.align	2
 683              	.L49:
 684 0030 A0C70040 		.word	1073792928
 685 0034 A4C70040 		.word	1073792932
 686              		.cfi_endproc
 687              	.LFE9:
 688              		.size	Filter_Write24, .-Filter_Write24
 689              		.section	.text.Filter_SetCoherency,"ax",%progbits
 690              		.align	2
 691              		.global	Filter_SetCoherency
 692              		.thumb
 693              		.thumb_func
 694              		.type	Filter_SetCoherency, %function
 695              	Filter_SetCoherency:
 696              	.LFB10:
 520:.\Generated_Source\PSoC5/Filter.c **** 
 521:.\Generated_Source\PSoC5/Filter.c **** #endif /* defined(__C51__) || defined(__CX51__) */
 522:.\Generated_Source\PSoC5/Filter.c **** 
 523:.\Generated_Source\PSoC5/Filter.c **** 
 524:.\Generated_Source\PSoC5/Filter.c **** /*******************************************************************************
 525:.\Generated_Source\PSoC5/Filter.c **** * Function Name: Filter_SetCoherency
 526:.\Generated_Source\PSoC5/Filter.c **** ********************************************************************************
 527:.\Generated_Source\PSoC5/Filter.c **** *
 528:.\Generated_Source\PSoC5/Filter.c **** * Summary:
 529:.\Generated_Source\PSoC5/Filter.c **** *  Sets the DFB coherency register with the user provided input 
 530:.\Generated_Source\PSoC5/Filter.c **** *
 531:.\Generated_Source\PSoC5/Filter.c **** * Parameters:  
 532:.\Generated_Source\PSoC5/Filter.c **** *  channel:  Filter_CHANNEL_A or Filter_CHANNEL_B
 533:.\Generated_Source\PSoC5/Filter.c **** *  byteSelect:  High byte, Middle byte or Low byte as the key coherency byte.
 534:.\Generated_Source\PSoC5/Filter.c **** *            
 535:.\Generated_Source\PSoC5/Filter.c **** * Return: 
 536:.\Generated_Source\PSoC5/Filter.c **** *  None.
 537:.\Generated_Source\PSoC5/Filter.c **** *
 538:.\Generated_Source\PSoC5/Filter.c **** *******************************************************************************/
 539:.\Generated_Source\PSoC5/Filter.c **** void Filter_SetCoherency(uint8 channel, uint8 byteSelect) 
 540:.\Generated_Source\PSoC5/Filter.c **** {
 697              		.loc 1 540 0
 698              		.cfi_startproc
 699              		@ args = 0, pretend = 0, frame = 8
 700              		@ frame_needed = 1, uses_anonymous_args = 0
 701              		@ link register save eliminated.
 702 0000 80B4     		push	{r7}
 703              		.cfi_def_cfa_offset 4
 704              		.cfi_offset 7, -4
 705 0002 83B0     		sub	sp, sp, #12
 706              		.cfi_def_cfa_offset 16
 707 0004 00AF     		add	r7, sp, #0
 708              		.cfi_def_cfa_register 7
 709 0006 0246     		mov	r2, r0
 710 0008 0B46     		mov	r3, r1
 711 000a FA71     		strb	r2, [r7, #7]
 712 000c BB71     		strb	r3, [r7, #6]
 541:.\Generated_Source\PSoC5/Filter.c ****     if (channel == Filter_CHANNEL_A)
 713              		.loc 1 541 0
ARM GAS  C:\Users\SCOTTC~1\AppData\Local\Temp\ccK1cr4f.s 			page 23


 714 000e FB79     		ldrb	r3, [r7, #7]	@ zero_extendqisi2
 715 0010 002B     		cmp	r3, #0
 716 0012 1AD1     		bne	.L52
 542:.\Generated_Source\PSoC5/Filter.c ****     {
 543:.\Generated_Source\PSoC5/Filter.c ****         Filter_COHER_REG &= 
 717              		.loc 1 543 0
 718 0014 1F4B     		ldr	r3, .L54
 719 0016 1F4A     		ldr	r2, .L54
 720 0018 1278     		ldrb	r2, [r2]
 721 001a D2B2     		uxtb	r2, r2
 722 001c 22F03302 		bic	r2, r2, #51
 723 0020 D2B2     		uxtb	r2, r2
 724 0022 1A70     		strb	r2, [r3]
 544:.\Generated_Source\PSoC5/Filter.c ****                 (uint8)(~(uint8)(Filter_STAGEA_COHER_MASK | Filter_HOLDA_COHER_MASK));
 545:.\Generated_Source\PSoC5/Filter.c ****         Filter_COHER_REG |= byteSelect;
 725              		.loc 1 545 0
 726 0024 1B4B     		ldr	r3, .L54
 727 0026 1B4A     		ldr	r2, .L54
 728 0028 1278     		ldrb	r2, [r2]
 729 002a D1B2     		uxtb	r1, r2
 730 002c BA79     		ldrb	r2, [r7, #6]
 731 002e 0A43     		orrs	r2, r2, r1
 732 0030 D2B2     		uxtb	r2, r2
 733 0032 1A70     		strb	r2, [r3]
 546:.\Generated_Source\PSoC5/Filter.c ****         Filter_COHER_REG |= (uint8)((uint8)byteSelect << 4u);
 734              		.loc 1 546 0
 735 0034 174B     		ldr	r3, .L54
 736 0036 174A     		ldr	r2, .L54
 737 0038 1278     		ldrb	r2, [r2]
 738 003a D1B2     		uxtb	r1, r2
 739 003c BA79     		ldrb	r2, [r7, #6]
 740 003e 1201     		lsls	r2, r2, #4
 741 0040 D2B2     		uxtb	r2, r2
 742 0042 0A43     		orrs	r2, r2, r1
 743 0044 D2B2     		uxtb	r2, r2
 744 0046 1A70     		strb	r2, [r3]
 745 0048 1EE0     		b	.L51
 746              	.L52:
 547:.\Generated_Source\PSoC5/Filter.c ****     }
 548:.\Generated_Source\PSoC5/Filter.c ****     else if (channel == Filter_CHANNEL_B)
 747              		.loc 1 548 0
 748 004a FB79     		ldrb	r3, [r7, #7]	@ zero_extendqisi2
 749 004c 012B     		cmp	r3, #1
 750 004e 1BD1     		bne	.L51
 549:.\Generated_Source\PSoC5/Filter.c ****     {
 550:.\Generated_Source\PSoC5/Filter.c ****         Filter_COHER_REG &= 
 751              		.loc 1 550 0
 752 0050 104B     		ldr	r3, .L54
 753 0052 104A     		ldr	r2, .L54
 754 0054 1278     		ldrb	r2, [r2]
 755 0056 D2B2     		uxtb	r2, r2
 756 0058 02F03302 		and	r2, r2, #51
 757 005c D2B2     		uxtb	r2, r2
 758 005e 1A70     		strb	r2, [r3]
 551:.\Generated_Source\PSoC5/Filter.c ****                 (uint8)(~(uint8)(Filter_STAGEB_COHER_MASK | Filter_HOLDB_COHER_MASK));
 552:.\Generated_Source\PSoC5/Filter.c ****         Filter_COHER_REG |= (uint8)((uint8)byteSelect << 2u);
 759              		.loc 1 552 0
ARM GAS  C:\Users\SCOTTC~1\AppData\Local\Temp\ccK1cr4f.s 			page 24


 760 0060 0C4B     		ldr	r3, .L54
 761 0062 0C4A     		ldr	r2, .L54
 762 0064 1278     		ldrb	r2, [r2]
 763 0066 D1B2     		uxtb	r1, r2
 764 0068 BA79     		ldrb	r2, [r7, #6]
 765 006a 9200     		lsls	r2, r2, #2
 766 006c D2B2     		uxtb	r2, r2
 767 006e 0A43     		orrs	r2, r2, r1
 768 0070 D2B2     		uxtb	r2, r2
 769 0072 1A70     		strb	r2, [r3]
 553:.\Generated_Source\PSoC5/Filter.c ****         Filter_COHER_REG |= (uint8)((uint8)byteSelect << 6u);
 770              		.loc 1 553 0
 771 0074 074B     		ldr	r3, .L54
 772 0076 074A     		ldr	r2, .L54
 773 0078 1278     		ldrb	r2, [r2]
 774 007a D1B2     		uxtb	r1, r2
 775 007c BA79     		ldrb	r2, [r7, #6]
 776 007e 9201     		lsls	r2, r2, #6
 777 0080 D2B2     		uxtb	r2, r2
 778 0082 0A43     		orrs	r2, r2, r1
 779 0084 D2B2     		uxtb	r2, r2
 780 0086 1A70     		strb	r2, [r3]
 781              	.L51:
 554:.\Generated_Source\PSoC5/Filter.c ****     }
 555:.\Generated_Source\PSoC5/Filter.c ****     else
 556:.\Generated_Source\PSoC5/Filter.c ****     {
 557:.\Generated_Source\PSoC5/Filter.c ****         /* Invalid channel value */
 558:.\Generated_Source\PSoC5/Filter.c ****     }
 559:.\Generated_Source\PSoC5/Filter.c **** }
 782              		.loc 1 559 0
 783 0088 0C37     		adds	r7, r7, #12
 784 008a BD46     		mov	sp, r7
 785              		@ sp needed
 786 008c 5DF8047B 		ldr	r7, [sp], #4
 787 0090 7047     		bx	lr
 788              	.L55:
 789 0092 00BF     		.align	2
 790              	.L54:
 791 0094 B0C70040 		.word	1073792944
 792              		.cfi_endproc
 793              	.LFE10:
 794              		.size	Filter_SetCoherency, .-Filter_SetCoherency
 795              		.section	.text.Filter_SetCoherencyEx,"ax",%progbits
 796              		.align	2
 797              		.global	Filter_SetCoherencyEx
 798              		.thumb
 799              		.thumb_func
 800              		.type	Filter_SetCoherencyEx, %function
 801              	Filter_SetCoherencyEx:
 802              	.LFB11:
 560:.\Generated_Source\PSoC5/Filter.c **** 
 561:.\Generated_Source\PSoC5/Filter.c **** 
 562:.\Generated_Source\PSoC5/Filter.c **** /*******************************************************************************
 563:.\Generated_Source\PSoC5/Filter.c **** * Function Name: Filter_SetCoherencyEx
 564:.\Generated_Source\PSoC5/Filter.c **** ********************************************************************************
 565:.\Generated_Source\PSoC5/Filter.c **** * 
 566:.\Generated_Source\PSoC5/Filter.c **** * Summary:
ARM GAS  C:\Users\SCOTTC~1\AppData\Local\Temp\ccK1cr4f.s 			page 25


 567:.\Generated_Source\PSoC5/Filter.c **** *  Configures the DFB coherency register for each of the staging and holding 
 568:.\Generated_Source\PSoC5/Filter.c **** *  registers. Allows multiple registers with the same configuration to be set 
 569:.\Generated_Source\PSoC5/Filter.c **** *  at the same time. This API should be used when the coherency of the staging 
 570:.\Generated_Source\PSoC5/Filter.c **** *  and holding register of a channel is different. 
 571:.\Generated_Source\PSoC5/Filter.c **** *
 572:.\Generated_Source\PSoC5/Filter.c **** * Parameters:  
 573:.\Generated_Source\PSoC5/Filter.c **** *  regSelect: This parameter is used to specify the registers that will undergo
 574:.\Generated_Source\PSoC5/Filter.c **** *             the change in coherency. These are maskable and multiple registers
 575:.\Generated_Source\PSoC5/Filter.c **** *             with the same configuration can passed by performing an OR 
 576:.\Generated_Source\PSoC5/Filter.c **** *             operation on the following definitions. 
 577:.\Generated_Source\PSoC5/Filter.c **** *            Filter_STAGEA_COHER, 
 578:.\Generated_Source\PSoC5/Filter.c **** *            Filter_STAGEB_COHER,
 579:.\Generated_Source\PSoC5/Filter.c **** *            Filter_HOLDA_COHER,
 580:.\Generated_Source\PSoC5/Filter.c **** *            Filter_HOLDB_COHER.
 581:.\Generated_Source\PSoC5/Filter.c **** *  key: The key coherency byte that will be chosen for the register(s).
 582:.\Generated_Source\PSoC5/Filter.c **** *       Filter_KEY_LOW, 
 583:.\Generated_Source\PSoC5/Filter.c **** *       Filter_KEY_MID,
 584:.\Generated_Source\PSoC5/Filter.c **** *       Filter_KEY_HIGH.
 585:.\Generated_Source\PSoC5/Filter.c **** *            
 586:.\Generated_Source\PSoC5/Filter.c **** * Return: 
 587:.\Generated_Source\PSoC5/Filter.c **** *  None.
 588:.\Generated_Source\PSoC5/Filter.c **** *
 589:.\Generated_Source\PSoC5/Filter.c **** *******************************************************************************/
 590:.\Generated_Source\PSoC5/Filter.c **** void Filter_SetCoherencyEx(uint8 regSelect, uint8 key) 
 591:.\Generated_Source\PSoC5/Filter.c **** {
 803              		.loc 1 591 0
 804              		.cfi_startproc
 805              		@ args = 0, pretend = 0, frame = 16
 806              		@ frame_needed = 1, uses_anonymous_args = 0
 807              		@ link register save eliminated.
 808 0000 80B4     		push	{r7}
 809              		.cfi_def_cfa_offset 4
 810              		.cfi_offset 7, -4
 811 0002 85B0     		sub	sp, sp, #20
 812              		.cfi_def_cfa_offset 24
 813 0004 00AF     		add	r7, sp, #0
 814              		.cfi_def_cfa_register 7
 815 0006 0246     		mov	r2, r0
 816 0008 0B46     		mov	r3, r1
 817 000a FA71     		strb	r2, [r7, #7]
 818 000c BB71     		strb	r3, [r7, #6]
 592:.\Generated_Source\PSoC5/Filter.c ****     uint8 keyReg;
 593:.\Generated_Source\PSoC5/Filter.c ****     
 594:.\Generated_Source\PSoC5/Filter.c ****     keyReg = (uint8)(key << 2u) | key;
 819              		.loc 1 594 0
 820 000e BB79     		ldrb	r3, [r7, #6]
 821 0010 9B00     		lsls	r3, r3, #2
 822 0012 DAB2     		uxtb	r2, r3
 823 0014 BB79     		ldrb	r3, [r7, #6]
 824 0016 1343     		orrs	r3, r3, r2
 825 0018 FB73     		strb	r3, [r7, #15]
 595:.\Generated_Source\PSoC5/Filter.c ****     keyReg |= (uint8)(keyReg << 4u);
 826              		.loc 1 595 0
 827 001a FB7B     		ldrb	r3, [r7, #15]
 828 001c 1B01     		lsls	r3, r3, #4
 829 001e DAB2     		uxtb	r2, r3
 830 0020 FB7B     		ldrb	r3, [r7, #15]
ARM GAS  C:\Users\SCOTTC~1\AppData\Local\Temp\ccK1cr4f.s 			page 26


 831 0022 1343     		orrs	r3, r3, r2
 832 0024 FB73     		strb	r3, [r7, #15]
 596:.\Generated_Source\PSoC5/Filter.c ****     
 597:.\Generated_Source\PSoC5/Filter.c ****     Filter_COHER_REG &= (uint8)~regSelect;
 833              		.loc 1 597 0
 834 0026 0D4B     		ldr	r3, .L57
 835 0028 0C4A     		ldr	r2, .L57
 836 002a 1278     		ldrb	r2, [r2]
 837 002c D1B2     		uxtb	r1, r2
 838 002e FA79     		ldrb	r2, [r7, #7]
 839 0030 D243     		mvns	r2, r2
 840 0032 D2B2     		uxtb	r2, r2
 841 0034 0A40     		ands	r2, r2, r1
 842 0036 D2B2     		uxtb	r2, r2
 843 0038 1A70     		strb	r2, [r3]
 598:.\Generated_Source\PSoC5/Filter.c ****     Filter_COHER_REG |= keyReg & regSelect;
 844              		.loc 1 598 0
 845 003a 084B     		ldr	r3, .L57
 846 003c 074A     		ldr	r2, .L57
 847 003e 1278     		ldrb	r2, [r2]
 848 0040 D1B2     		uxtb	r1, r2
 849 0042 F87B     		ldrb	r0, [r7, #15]
 850 0044 FA79     		ldrb	r2, [r7, #7]
 851 0046 0240     		ands	r2, r2, r0
 852 0048 D2B2     		uxtb	r2, r2
 853 004a 0A43     		orrs	r2, r2, r1
 854 004c D2B2     		uxtb	r2, r2
 855 004e 1A70     		strb	r2, [r3]
 599:.\Generated_Source\PSoC5/Filter.c **** }
 856              		.loc 1 599 0
 857 0050 1437     		adds	r7, r7, #20
 858 0052 BD46     		mov	sp, r7
 859              		@ sp needed
 860 0054 5DF8047B 		ldr	r7, [sp], #4
 861 0058 7047     		bx	lr
 862              	.L58:
 863 005a 00BF     		.align	2
 864              	.L57:
 865 005c B0C70040 		.word	1073792944
 866              		.cfi_endproc
 867              	.LFE11:
 868              		.size	Filter_SetCoherencyEx, .-Filter_SetCoherencyEx
 869              		.section	.text.Filter_SetDalign,"ax",%progbits
 870              		.align	2
 871              		.global	Filter_SetDalign
 872              		.thumb
 873              		.thumb_func
 874              		.type	Filter_SetDalign, %function
 875              	Filter_SetDalign:
 876              	.LFB12:
 600:.\Generated_Source\PSoC5/Filter.c **** 
 601:.\Generated_Source\PSoC5/Filter.c **** 
 602:.\Generated_Source\PSoC5/Filter.c **** /*******************************************************************************
 603:.\Generated_Source\PSoC5/Filter.c **** * Function Name: Filter_SetDalign
 604:.\Generated_Source\PSoC5/Filter.c **** ********************************************************************************
 605:.\Generated_Source\PSoC5/Filter.c **** * 
 606:.\Generated_Source\PSoC5/Filter.c **** * Summary:
ARM GAS  C:\Users\SCOTTC~1\AppData\Local\Temp\ccK1cr4f.s 			page 27


 607:.\Generated_Source\PSoC5/Filter.c **** *  Configures the DFB dalign register for each of the staging and holding 
 608:.\Generated_Source\PSoC5/Filter.c **** *  registers. Allows multiple registers with the same configuration to be set
 609:.\Generated_Source\PSoC5/Filter.c **** *  at the same time. 
 610:.\Generated_Source\PSoC5/Filter.c **** *
 611:.\Generated_Source\PSoC5/Filter.c **** * Parameters:  
 612:.\Generated_Source\PSoC5/Filter.c **** *  regSelect: This parameter is used to specify the registers that will undergo
 613:.\Generated_Source\PSoC5/Filter.c **** *             the change in data alignment. These are maskable and multiple 
 614:.\Generated_Source\PSoC5/Filter.c **** *             registers with the same configuration can passed by performing 
 615:.\Generated_Source\PSoC5/Filter.c **** *             an OR operation on the following definitions.
 616:.\Generated_Source\PSoC5/Filter.c **** *             Filter_STAGEA_DALIGN, 
 617:.\Generated_Source\PSoC5/Filter.c **** *             Filter_STAGEB_DALIGN,
 618:.\Generated_Source\PSoC5/Filter.c **** *             Filter_HOLDA_DALIGN,
 619:.\Generated_Source\PSoC5/Filter.c **** *             Filter_HOLDB_DALIGN.
 620:.\Generated_Source\PSoC5/Filter.c **** *  state: The state is use to either enable the data alignment bits for the 
 621:.\Generated_Source\PSoC5/Filter.c **** *         corresponding registers or to disable them.
 622:.\Generated_Source\PSoC5/Filter.c **** *         Filter_ENABLED,
 623:.\Generated_Source\PSoC5/Filter.c **** *         Filter_DISABLED
 624:.\Generated_Source\PSoC5/Filter.c **** *            
 625:.\Generated_Source\PSoC5/Filter.c **** * Return: 
 626:.\Generated_Source\PSoC5/Filter.c **** *  None.
 627:.\Generated_Source\PSoC5/Filter.c **** *
 628:.\Generated_Source\PSoC5/Filter.c **** *******************************************************************************/
 629:.\Generated_Source\PSoC5/Filter.c **** void Filter_SetDalign(uint8 regSelect, uint8 state) 
 630:.\Generated_Source\PSoC5/Filter.c **** {    
 877              		.loc 1 630 0
 878              		.cfi_startproc
 879              		@ args = 0, pretend = 0, frame = 8
 880              		@ frame_needed = 1, uses_anonymous_args = 0
 881              		@ link register save eliminated.
 882 0000 80B4     		push	{r7}
 883              		.cfi_def_cfa_offset 4
 884              		.cfi_offset 7, -4
 885 0002 83B0     		sub	sp, sp, #12
 886              		.cfi_def_cfa_offset 16
 887 0004 00AF     		add	r7, sp, #0
 888              		.cfi_def_cfa_register 7
 889 0006 0246     		mov	r2, r0
 890 0008 0B46     		mov	r3, r1
 891 000a FA71     		strb	r2, [r7, #7]
 892 000c BB71     		strb	r3, [r7, #6]
 631:.\Generated_Source\PSoC5/Filter.c ****     if (state == Filter_ENABLED)
 893              		.loc 1 631 0
 894 000e BB79     		ldrb	r3, [r7, #6]	@ zero_extendqisi2
 895 0010 012B     		cmp	r3, #1
 896 0012 08D1     		bne	.L60
 632:.\Generated_Source\PSoC5/Filter.c ****     {
 633:.\Generated_Source\PSoC5/Filter.c ****         Filter_DALIGN_REG |= regSelect;
 897              		.loc 1 633 0
 898 0014 0D4B     		ldr	r3, .L62
 899 0016 0D4A     		ldr	r2, .L62
 900 0018 1278     		ldrb	r2, [r2]
 901 001a D1B2     		uxtb	r1, r2
 902 001c FA79     		ldrb	r2, [r7, #7]
 903 001e 0A43     		orrs	r2, r2, r1
 904 0020 D2B2     		uxtb	r2, r2
 905 0022 1A70     		strb	r2, [r3]
 906 0024 0CE0     		b	.L59
ARM GAS  C:\Users\SCOTTC~1\AppData\Local\Temp\ccK1cr4f.s 			page 28


 907              	.L60:
 634:.\Generated_Source\PSoC5/Filter.c ****     }
 635:.\Generated_Source\PSoC5/Filter.c ****     else if (state == Filter_DISABLED)
 908              		.loc 1 635 0
 909 0026 BB79     		ldrb	r3, [r7, #6]	@ zero_extendqisi2
 910 0028 002B     		cmp	r3, #0
 911 002a 09D1     		bne	.L59
 636:.\Generated_Source\PSoC5/Filter.c ****     {
 637:.\Generated_Source\PSoC5/Filter.c ****         Filter_DALIGN_REG &= (uint8)(~regSelect);
 912              		.loc 1 637 0
 913 002c 074B     		ldr	r3, .L62
 914 002e 074A     		ldr	r2, .L62
 915 0030 1278     		ldrb	r2, [r2]
 916 0032 D1B2     		uxtb	r1, r2
 917 0034 FA79     		ldrb	r2, [r7, #7]
 918 0036 D243     		mvns	r2, r2
 919 0038 D2B2     		uxtb	r2, r2
 920 003a 0A40     		ands	r2, r2, r1
 921 003c D2B2     		uxtb	r2, r2
 922 003e 1A70     		strb	r2, [r3]
 923              	.L59:
 638:.\Generated_Source\PSoC5/Filter.c ****     }
 639:.\Generated_Source\PSoC5/Filter.c ****     else
 640:.\Generated_Source\PSoC5/Filter.c ****     {
 641:.\Generated_Source\PSoC5/Filter.c ****         /* Invalid state */
 642:.\Generated_Source\PSoC5/Filter.c ****     }
 643:.\Generated_Source\PSoC5/Filter.c **** }
 924              		.loc 1 643 0
 925 0040 0C37     		adds	r7, r7, #12
 926 0042 BD46     		mov	sp, r7
 927              		@ sp needed
 928 0044 5DF8047B 		ldr	r7, [sp], #4
 929 0048 7047     		bx	lr
 930              	.L63:
 931 004a 00BF     		.align	2
 932              	.L62:
 933 004c B4C70040 		.word	1073792948
 934              		.cfi_endproc
 935              	.LFE12:
 936              		.size	Filter_SetDalign, .-Filter_SetDalign
 937              		.text
 938              	.Letext0:
 939              		.file 2 ".\\Generated_Source\\PSoC5\\cytypes.h"
 940              		.file 3 ".\\Generated_Source\\PSoC5\\Filter_PVT.h"
 941              		.section	.debug_info,"",%progbits
 942              	.Ldebug_info0:
 943 0000 A3030000 		.4byte	0x3a3
 944 0004 0400     		.2byte	0x4
 945 0006 00000000 		.4byte	.Ldebug_abbrev0
 946 000a 04       		.byte	0x4
 947 000b 01       		.uleb128 0x1
 948 000c A7010000 		.4byte	.LASF45
 949 0010 01       		.byte	0x1
 950 0011 78020000 		.4byte	.LASF46
 951 0015 04010000 		.4byte	.LASF47
 952 0019 00000000 		.4byte	.Ldebug_ranges0+0
 953 001d 00000000 		.4byte	0
ARM GAS  C:\Users\SCOTTC~1\AppData\Local\Temp\ccK1cr4f.s 			page 29


 954 0021 00000000 		.4byte	.Ldebug_line0
 955 0025 02       		.uleb128 0x2
 956 0026 04       		.byte	0x4
 957 0027 05       		.byte	0x5
 958 0028 696E7400 		.ascii	"int\000"
 959 002c 03       		.uleb128 0x3
 960 002d 04       		.byte	0x4
 961 002e 07       		.byte	0x7
 962 002f 68010000 		.4byte	.LASF0
 963 0033 03       		.uleb128 0x3
 964 0034 01       		.byte	0x1
 965 0035 06       		.byte	0x6
 966 0036 D3020000 		.4byte	.LASF1
 967 003a 03       		.uleb128 0x3
 968 003b 01       		.byte	0x1
 969 003c 08       		.byte	0x8
 970 003d 72000000 		.4byte	.LASF2
 971 0041 03       		.uleb128 0x3
 972 0042 02       		.byte	0x2
 973 0043 05       		.byte	0x5
 974 0044 6E020000 		.4byte	.LASF3
 975 0048 03       		.uleb128 0x3
 976 0049 02       		.byte	0x2
 977 004a 07       		.byte	0x7
 978 004b DF020000 		.4byte	.LASF4
 979 004f 03       		.uleb128 0x3
 980 0050 04       		.byte	0x4
 981 0051 05       		.byte	0x5
 982 0052 38000000 		.4byte	.LASF5
 983 0056 03       		.uleb128 0x3
 984 0057 04       		.byte	0x4
 985 0058 07       		.byte	0x7
 986 0059 9E000000 		.4byte	.LASF6
 987 005d 03       		.uleb128 0x3
 988 005e 08       		.byte	0x8
 989 005f 05       		.byte	0x5
 990 0060 46020000 		.4byte	.LASF7
 991 0064 03       		.uleb128 0x3
 992 0065 08       		.byte	0x8
 993 0066 07       		.byte	0x7
 994 0067 75010000 		.4byte	.LASF8
 995 006b 03       		.uleb128 0x3
 996 006c 04       		.byte	0x4
 997 006d 07       		.byte	0x7
 998 006e 3D020000 		.4byte	.LASF9
 999 0072 03       		.uleb128 0x3
 1000 0073 01       		.byte	0x1
 1001 0074 08       		.byte	0x8
 1002 0075 54020000 		.4byte	.LASF10
 1003 0079 04       		.uleb128 0x4
 1004 007a BA000000 		.4byte	.LASF11
 1005 007e 02       		.byte	0x2
 1006 007f A1       		.byte	0xa1
 1007 0080 3A000000 		.4byte	0x3a
 1008 0084 04       		.uleb128 0x4
 1009 0085 FD000000 		.4byte	.LASF12
 1010 0089 02       		.byte	0x2
ARM GAS  C:\Users\SCOTTC~1\AppData\Local\Temp\ccK1cr4f.s 			page 30


 1011 008a A2       		.byte	0xa2
 1012 008b 48000000 		.4byte	0x48
 1013 008f 04       		.uleb128 0x4
 1014 0090 61010000 		.4byte	.LASF13
 1015 0094 02       		.byte	0x2
 1016 0095 A3       		.byte	0xa3
 1017 0096 56000000 		.4byte	0x56
 1018 009a 03       		.uleb128 0x3
 1019 009b 04       		.byte	0x4
 1020 009c 04       		.byte	0x4
 1021 009d 6C000000 		.4byte	.LASF14
 1022 00a1 03       		.uleb128 0x3
 1023 00a2 08       		.byte	0x8
 1024 00a3 04       		.byte	0x4
 1025 00a4 E8000000 		.4byte	.LASF15
 1026 00a8 05       		.uleb128 0x5
 1027 00a9 8C000000 		.4byte	.LASF16
 1028 00ad 02       		.byte	0x2
 1029 00ae 4B01     		.2byte	0x14b
 1030 00b0 B4000000 		.4byte	0xb4
 1031 00b4 06       		.uleb128 0x6
 1032 00b5 79000000 		.4byte	0x79
 1033 00b9 05       		.uleb128 0x5
 1034 00ba 00000000 		.4byte	.LASF17
 1035 00be 02       		.byte	0x2
 1036 00bf 4C01     		.2byte	0x14c
 1037 00c1 C5000000 		.4byte	0xc5
 1038 00c5 06       		.uleb128 0x6
 1039 00c6 84000000 		.4byte	0x84
 1040 00ca 05       		.uleb128 0x5
 1041 00cb 06000000 		.4byte	.LASF18
 1042 00cf 02       		.byte	0x2
 1043 00d0 4D01     		.2byte	0x14d
 1044 00d2 D6000000 		.4byte	0xd6
 1045 00d6 06       		.uleb128 0x6
 1046 00d7 8F000000 		.4byte	0x8f
 1047 00db 07       		.uleb128 0x7
 1048 00dc 79000000 		.4byte	0x79
 1049 00e0 EB000000 		.4byte	0xeb
 1050 00e4 08       		.uleb128 0x8
 1051 00e5 6B000000 		.4byte	0x6b
 1052 00e9 3F       		.byte	0x3f
 1053 00ea 00       		.byte	0
 1054 00eb 09       		.uleb128 0x9
 1055 00ec FE020000 		.4byte	.LASF19
 1056 00f0 01       		.byte	0x1
 1057 00f1 2B       		.byte	0x2b
 1058 00f2 00000000 		.4byte	.LFB0
 1059 00f6 1C010000 		.4byte	.LFE0-.LFB0
 1060 00fa 01       		.uleb128 0x1
 1061 00fb 9C       		.byte	0x9c
 1062 00fc 0A       		.uleb128 0xa
 1063 00fd 41000000 		.4byte	.LASF20
 1064 0101 01       		.byte	0x1
 1065 0102 66       		.byte	0x66
 1066 0103 00000000 		.4byte	.LFB1
 1067 0107 48000000 		.4byte	.LFE1-.LFB1
ARM GAS  C:\Users\SCOTTC~1\AppData\Local\Temp\ccK1cr4f.s 			page 31


 1068 010b 01       		.uleb128 0x1
 1069 010c 9C       		.byte	0x9c
 1070 010d 09       		.uleb128 0x9
 1071 010e 91000000 		.4byte	.LASF21
 1072 0112 01       		.byte	0x1
 1073 0113 89       		.byte	0x89
 1074 0114 00000000 		.4byte	.LFB2
 1075 0118 20000000 		.4byte	.LFE2-.LFB2
 1076 011c 01       		.uleb128 0x1
 1077 011d 9C       		.byte	0x9c
 1078 011e 0A       		.uleb128 0xa
 1079 011f 80000000 		.4byte	.LASF22
 1080 0123 01       		.byte	0x1
 1081 0124 A6       		.byte	0xa6
 1082 0125 00000000 		.4byte	.LFB3
 1083 0129 48000000 		.4byte	.LFE3-.LFB3
 1084 012d 01       		.uleb128 0x1
 1085 012e 9C       		.byte	0x9c
 1086 012f 0B       		.uleb128 0xb
 1087 0130 8C010000 		.4byte	.LASF23
 1088 0134 01       		.byte	0x1
 1089 0135 C1       		.byte	0xc1
 1090 0136 79000000 		.4byte	0x79
 1091 013a 00000000 		.4byte	.LFB4
 1092 013e 40000000 		.4byte	.LFE4-.LFB4
 1093 0142 01       		.uleb128 0x1
 1094 0143 9C       		.byte	0x9c
 1095 0144 65010000 		.4byte	0x165
 1096 0148 0C       		.uleb128 0xc
 1097 0149 0C000000 		.4byte	.LASF25
 1098 014d 01       		.byte	0x1
 1099 014e C1       		.byte	0xc1
 1100 014f 79000000 		.4byte	0x79
 1101 0153 02       		.uleb128 0x2
 1102 0154 91       		.byte	0x91
 1103 0155 6F       		.sleb128 -17
 1104 0156 0D       		.uleb128 0xd
 1105 0157 E2000000 		.4byte	.LASF26
 1106 015b 01       		.byte	0x1
 1107 015c C3       		.byte	0xc3
 1108 015d 79000000 		.4byte	0x79
 1109 0161 02       		.uleb128 0x2
 1110 0162 91       		.byte	0x91
 1111 0163 77       		.sleb128 -9
 1112 0164 00       		.byte	0
 1113 0165 0E       		.uleb128 0xe
 1114 0166 5E000000 		.4byte	.LASF24
 1115 016a 01       		.byte	0x1
 1116 016b 0101     		.2byte	0x101
 1117 016d 84000000 		.4byte	0x84
 1118 0171 00000000 		.4byte	.LFB5
 1119 0175 40000000 		.4byte	.LFE5-.LFB5
 1120 0179 01       		.uleb128 0x1
 1121 017a 9C       		.byte	0x9c
 1122 017b 9E010000 		.4byte	0x19e
 1123 017f 0F       		.uleb128 0xf
 1124 0180 0C000000 		.4byte	.LASF25
ARM GAS  C:\Users\SCOTTC~1\AppData\Local\Temp\ccK1cr4f.s 			page 32


 1125 0184 01       		.byte	0x1
 1126 0185 0101     		.2byte	0x101
 1127 0187 79000000 		.4byte	0x79
 1128 018b 02       		.uleb128 0x2
 1129 018c 91       		.byte	0x91
 1130 018d 6F       		.sleb128 -17
 1131 018e 10       		.uleb128 0x10
 1132 018f 76616C00 		.ascii	"val\000"
 1133 0193 01       		.byte	0x1
 1134 0194 0301     		.2byte	0x103
 1135 0196 84000000 		.4byte	0x84
 1136 019a 02       		.uleb128 0x2
 1137 019b 91       		.byte	0x91
 1138 019c 76       		.sleb128 -10
 1139 019d 00       		.byte	0
 1140 019e 0E       		.uleb128 0xe
 1141 019f 60020000 		.4byte	.LASF27
 1142 01a3 01       		.byte	0x1
 1143 01a4 5101     		.2byte	0x151
 1144 01a6 8F000000 		.4byte	0x8f
 1145 01aa 00000000 		.4byte	.LFB6
 1146 01ae 40000000 		.4byte	.LFE6-.LFB6
 1147 01b2 01       		.uleb128 0x1
 1148 01b3 9C       		.byte	0x9c
 1149 01b4 D7010000 		.4byte	0x1d7
 1150 01b8 0F       		.uleb128 0xf
 1151 01b9 0C000000 		.4byte	.LASF25
 1152 01bd 01       		.byte	0x1
 1153 01be 5101     		.2byte	0x151
 1154 01c0 79000000 		.4byte	0x79
 1155 01c4 02       		.uleb128 0x2
 1156 01c5 91       		.byte	0x91
 1157 01c6 6F       		.sleb128 -17
 1158 01c7 10       		.uleb128 0x10
 1159 01c8 76616C00 		.ascii	"val\000"
 1160 01cc 01       		.byte	0x1
 1161 01cd 5301     		.2byte	0x153
 1162 01cf 8F000000 		.4byte	0x8f
 1163 01d3 02       		.uleb128 0x2
 1164 01d4 91       		.byte	0x91
 1165 01d5 74       		.sleb128 -12
 1166 01d6 00       		.byte	0
 1167 01d7 11       		.uleb128 0x11
 1168 01d8 99010000 		.4byte	.LASF29
 1169 01dc 01       		.byte	0x1
 1170 01dd 7B01     		.2byte	0x17b
 1171 01df 00000000 		.4byte	.LFB7
 1172 01e3 3C000000 		.4byte	.LFE7-.LFB7
 1173 01e7 01       		.uleb128 0x1
 1174 01e8 9C       		.byte	0x9c
 1175 01e9 0C020000 		.4byte	0x20c
 1176 01ed 0F       		.uleb128 0xf
 1177 01ee 0C000000 		.4byte	.LASF25
 1178 01f2 01       		.byte	0x1
 1179 01f3 7B01     		.2byte	0x17b
 1180 01f5 79000000 		.4byte	0x79
 1181 01f9 02       		.uleb128 0x2
ARM GAS  C:\Users\SCOTTC~1\AppData\Local\Temp\ccK1cr4f.s 			page 33


 1182 01fa 91       		.byte	0x91
 1183 01fb 77       		.sleb128 -9
 1184 01fc 0F       		.uleb128 0xf
 1185 01fd B0020000 		.4byte	.LASF28
 1186 0201 01       		.byte	0x1
 1187 0202 7B01     		.2byte	0x17b
 1188 0204 79000000 		.4byte	0x79
 1189 0208 02       		.uleb128 0x2
 1190 0209 91       		.byte	0x91
 1191 020a 76       		.sleb128 -10
 1192 020b 00       		.byte	0
 1193 020c 11       		.uleb128 0x11
 1194 020d 4F000000 		.4byte	.LASF30
 1195 0211 01       		.byte	0x1
 1196 0212 B801     		.2byte	0x1b8
 1197 0214 00000000 		.4byte	.LFB8
 1198 0218 3C000000 		.4byte	.LFE8-.LFB8
 1199 021c 01       		.uleb128 0x1
 1200 021d 9C       		.byte	0x9c
 1201 021e 41020000 		.4byte	0x241
 1202 0222 0F       		.uleb128 0xf
 1203 0223 0C000000 		.4byte	.LASF25
 1204 0227 01       		.byte	0x1
 1205 0228 B801     		.2byte	0x1b8
 1206 022a 79000000 		.4byte	0x79
 1207 022e 02       		.uleb128 0x2
 1208 022f 91       		.byte	0x91
 1209 0230 77       		.sleb128 -9
 1210 0231 0F       		.uleb128 0xf
 1211 0232 B0020000 		.4byte	.LASF28
 1212 0236 01       		.byte	0x1
 1213 0237 B801     		.2byte	0x1b8
 1214 0239 84000000 		.4byte	0x84
 1215 023d 02       		.uleb128 0x2
 1216 023e 91       		.byte	0x91
 1217 023f 74       		.sleb128 -12
 1218 0240 00       		.byte	0
 1219 0241 11       		.uleb128 0x11
 1220 0242 2E020000 		.4byte	.LASF31
 1221 0246 01       		.byte	0x1
 1222 0247 F901     		.2byte	0x1f9
 1223 0249 00000000 		.4byte	.LFB9
 1224 024d 38000000 		.4byte	.LFE9-.LFB9
 1225 0251 01       		.uleb128 0x1
 1226 0252 9C       		.byte	0x9c
 1227 0253 76020000 		.4byte	0x276
 1228 0257 0F       		.uleb128 0xf
 1229 0258 0C000000 		.4byte	.LASF25
 1230 025c 01       		.byte	0x1
 1231 025d F901     		.2byte	0x1f9
 1232 025f 79000000 		.4byte	0x79
 1233 0263 02       		.uleb128 0x2
 1234 0264 91       		.byte	0x91
 1235 0265 77       		.sleb128 -9
 1236 0266 0F       		.uleb128 0xf
 1237 0267 B0020000 		.4byte	.LASF28
 1238 026b 01       		.byte	0x1
ARM GAS  C:\Users\SCOTTC~1\AppData\Local\Temp\ccK1cr4f.s 			page 34


 1239 026c F901     		.2byte	0x1f9
 1240 026e 8F000000 		.4byte	0x8f
 1241 0272 02       		.uleb128 0x2
 1242 0273 91       		.byte	0x91
 1243 0274 70       		.sleb128 -16
 1244 0275 00       		.byte	0
 1245 0276 11       		.uleb128 0x11
 1246 0277 CE000000 		.4byte	.LASF32
 1247 027b 01       		.byte	0x1
 1248 027c 1B02     		.2byte	0x21b
 1249 027e 00000000 		.4byte	.LFB10
 1250 0282 98000000 		.4byte	.LFE10-.LFB10
 1251 0286 01       		.uleb128 0x1
 1252 0287 9C       		.byte	0x9c
 1253 0288 AB020000 		.4byte	0x2ab
 1254 028c 0F       		.uleb128 0xf
 1255 028d 0C000000 		.4byte	.LASF25
 1256 0291 01       		.byte	0x1
 1257 0292 1B02     		.2byte	0x21b
 1258 0294 79000000 		.4byte	0x79
 1259 0298 02       		.uleb128 0x2
 1260 0299 91       		.byte	0x91
 1261 029a 77       		.sleb128 -9
 1262 029b 0F       		.uleb128 0xf
 1263 029c 23020000 		.4byte	.LASF33
 1264 02a0 01       		.byte	0x1
 1265 02a1 1B02     		.2byte	0x21b
 1266 02a3 79000000 		.4byte	0x79
 1267 02a7 02       		.uleb128 0x2
 1268 02a8 91       		.byte	0x91
 1269 02a9 76       		.sleb128 -10
 1270 02aa 00       		.byte	0
 1271 02ab 11       		.uleb128 0x11
 1272 02ac 9A020000 		.4byte	.LASF34
 1273 02b0 01       		.byte	0x1
 1274 02b1 4E02     		.2byte	0x24e
 1275 02b3 00000000 		.4byte	.LFB11
 1276 02b7 60000000 		.4byte	.LFE11-.LFB11
 1277 02bb 01       		.uleb128 0x1
 1278 02bc 9C       		.byte	0x9c
 1279 02bd EF020000 		.4byte	0x2ef
 1280 02c1 0F       		.uleb128 0xf
 1281 02c2 B0000000 		.4byte	.LASF35
 1282 02c6 01       		.byte	0x1
 1283 02c7 4E02     		.2byte	0x24e
 1284 02c9 79000000 		.4byte	0x79
 1285 02cd 02       		.uleb128 0x2
 1286 02ce 91       		.byte	0x91
 1287 02cf 6F       		.sleb128 -17
 1288 02d0 12       		.uleb128 0x12
 1289 02d1 6B657900 		.ascii	"key\000"
 1290 02d5 01       		.byte	0x1
 1291 02d6 4E02     		.2byte	0x24e
 1292 02d8 79000000 		.4byte	0x79
 1293 02dc 02       		.uleb128 0x2
 1294 02dd 91       		.byte	0x91
 1295 02de 6E       		.sleb128 -18
ARM GAS  C:\Users\SCOTTC~1\AppData\Local\Temp\ccK1cr4f.s 			page 35


 1296 02df 13       		.uleb128 0x13
 1297 02e0 59020000 		.4byte	.LASF36
 1298 02e4 01       		.byte	0x1
 1299 02e5 5002     		.2byte	0x250
 1300 02e7 79000000 		.4byte	0x79
 1301 02eb 02       		.uleb128 0x2
 1302 02ec 91       		.byte	0x91
 1303 02ed 77       		.sleb128 -9
 1304 02ee 00       		.byte	0
 1305 02ef 11       		.uleb128 0x11
 1306 02f0 C2020000 		.4byte	.LASF37
 1307 02f4 01       		.byte	0x1
 1308 02f5 7502     		.2byte	0x275
 1309 02f7 00000000 		.4byte	.LFB12
 1310 02fb 50000000 		.4byte	.LFE12-.LFB12
 1311 02ff 01       		.uleb128 0x1
 1312 0300 9C       		.byte	0x9c
 1313 0301 24030000 		.4byte	0x324
 1314 0305 0F       		.uleb128 0xf
 1315 0306 B0000000 		.4byte	.LASF35
 1316 030a 01       		.byte	0x1
 1317 030b 7502     		.2byte	0x275
 1318 030d 79000000 		.4byte	0x79
 1319 0311 02       		.uleb128 0x2
 1320 0312 91       		.byte	0x91
 1321 0313 77       		.sleb128 -9
 1322 0314 0F       		.uleb128 0xf
 1323 0315 23000000 		.4byte	.LASF38
 1324 0319 01       		.byte	0x1
 1325 031a 7502     		.2byte	0x275
 1326 031c 79000000 		.4byte	0x79
 1327 0320 02       		.uleb128 0x2
 1328 0321 91       		.byte	0x91
 1329 0322 76       		.sleb128 -10
 1330 0323 00       		.byte	0
 1331 0324 14       		.uleb128 0x14
 1332 0325 14000000 		.4byte	.LASF39
 1333 0329 01       		.byte	0x1
 1334 032a 18       		.byte	0x18
 1335 032b 79000000 		.4byte	0x79
 1336 032f 05       		.uleb128 0x5
 1337 0330 03       		.byte	0x3
 1338 0331 00000000 		.4byte	Filter_initVar
 1339 0335 07       		.uleb128 0x7
 1340 0336 79000000 		.4byte	0x79
 1341 033a 45030000 		.4byte	0x345
 1342 033e 08       		.uleb128 0x8
 1343 033f 6B000000 		.4byte	0x6b
 1344 0343 FF       		.byte	0xff
 1345 0344 00       		.byte	0
 1346 0345 15       		.uleb128 0x15
 1347 0346 29000000 		.4byte	.LASF40
 1348 034a 03       		.byte	0x3
 1349 034b 24       		.byte	0x24
 1350 034c 50030000 		.4byte	0x350
 1351 0350 16       		.uleb128 0x16
 1352 0351 35030000 		.4byte	0x335
ARM GAS  C:\Users\SCOTTC~1\AppData\Local\Temp\ccK1cr4f.s 			page 36


 1353 0355 07       		.uleb128 0x7
 1354 0356 79000000 		.4byte	0x79
 1355 035a 66030000 		.4byte	0x366
 1356 035e 17       		.uleb128 0x17
 1357 035f 6B000000 		.4byte	0x6b
 1358 0363 FF01     		.2byte	0x1ff
 1359 0365 00       		.byte	0
 1360 0366 15       		.uleb128 0x15
 1361 0367 EF000000 		.4byte	.LASF41
 1362 036b 03       		.byte	0x3
 1363 036c 25       		.byte	0x25
 1364 036d 71030000 		.4byte	0x371
 1365 0371 16       		.uleb128 0x16
 1366 0372 55030000 		.4byte	0x355
 1367 0376 15       		.uleb128 0x15
 1368 0377 C0000000 		.4byte	.LASF42
 1369 037b 03       		.byte	0x3
 1370 037c 26       		.byte	0x26
 1371 037d 81030000 		.4byte	0x381
 1372 0381 16       		.uleb128 0x16
 1373 0382 55030000 		.4byte	0x355
 1374 0386 15       		.uleb128 0x15
 1375 0387 F2020000 		.4byte	.LASF43
 1376 038b 03       		.byte	0x3
 1377 038c 27       		.byte	0x27
 1378 038d 91030000 		.4byte	0x391
 1379 0391 16       		.uleb128 0x16
 1380 0392 35030000 		.4byte	0x335
 1381 0396 15       		.uleb128 0x15
 1382 0397 B7020000 		.4byte	.LASF44
 1383 039b 03       		.byte	0x3
 1384 039c 28       		.byte	0x28
 1385 039d A1030000 		.4byte	0x3a1
 1386 03a1 16       		.uleb128 0x16
 1387 03a2 DB000000 		.4byte	0xdb
 1388 03a6 00       		.byte	0
 1389              		.section	.debug_abbrev,"",%progbits
 1390              	.Ldebug_abbrev0:
 1391 0000 01       		.uleb128 0x1
 1392 0001 11       		.uleb128 0x11
 1393 0002 01       		.byte	0x1
 1394 0003 25       		.uleb128 0x25
 1395 0004 0E       		.uleb128 0xe
 1396 0005 13       		.uleb128 0x13
 1397 0006 0B       		.uleb128 0xb
 1398 0007 03       		.uleb128 0x3
 1399 0008 0E       		.uleb128 0xe
 1400 0009 1B       		.uleb128 0x1b
 1401 000a 0E       		.uleb128 0xe
 1402 000b 55       		.uleb128 0x55
 1403 000c 17       		.uleb128 0x17
 1404 000d 11       		.uleb128 0x11
 1405 000e 01       		.uleb128 0x1
 1406 000f 10       		.uleb128 0x10
 1407 0010 17       		.uleb128 0x17
 1408 0011 00       		.byte	0
 1409 0012 00       		.byte	0
ARM GAS  C:\Users\SCOTTC~1\AppData\Local\Temp\ccK1cr4f.s 			page 37


 1410 0013 02       		.uleb128 0x2
 1411 0014 24       		.uleb128 0x24
 1412 0015 00       		.byte	0
 1413 0016 0B       		.uleb128 0xb
 1414 0017 0B       		.uleb128 0xb
 1415 0018 3E       		.uleb128 0x3e
 1416 0019 0B       		.uleb128 0xb
 1417 001a 03       		.uleb128 0x3
 1418 001b 08       		.uleb128 0x8
 1419 001c 00       		.byte	0
 1420 001d 00       		.byte	0
 1421 001e 03       		.uleb128 0x3
 1422 001f 24       		.uleb128 0x24
 1423 0020 00       		.byte	0
 1424 0021 0B       		.uleb128 0xb
 1425 0022 0B       		.uleb128 0xb
 1426 0023 3E       		.uleb128 0x3e
 1427 0024 0B       		.uleb128 0xb
 1428 0025 03       		.uleb128 0x3
 1429 0026 0E       		.uleb128 0xe
 1430 0027 00       		.byte	0
 1431 0028 00       		.byte	0
 1432 0029 04       		.uleb128 0x4
 1433 002a 16       		.uleb128 0x16
 1434 002b 00       		.byte	0
 1435 002c 03       		.uleb128 0x3
 1436 002d 0E       		.uleb128 0xe
 1437 002e 3A       		.uleb128 0x3a
 1438 002f 0B       		.uleb128 0xb
 1439 0030 3B       		.uleb128 0x3b
 1440 0031 0B       		.uleb128 0xb
 1441 0032 49       		.uleb128 0x49
 1442 0033 13       		.uleb128 0x13
 1443 0034 00       		.byte	0
 1444 0035 00       		.byte	0
 1445 0036 05       		.uleb128 0x5
 1446 0037 16       		.uleb128 0x16
 1447 0038 00       		.byte	0
 1448 0039 03       		.uleb128 0x3
 1449 003a 0E       		.uleb128 0xe
 1450 003b 3A       		.uleb128 0x3a
 1451 003c 0B       		.uleb128 0xb
 1452 003d 3B       		.uleb128 0x3b
 1453 003e 05       		.uleb128 0x5
 1454 003f 49       		.uleb128 0x49
 1455 0040 13       		.uleb128 0x13
 1456 0041 00       		.byte	0
 1457 0042 00       		.byte	0
 1458 0043 06       		.uleb128 0x6
 1459 0044 35       		.uleb128 0x35
 1460 0045 00       		.byte	0
 1461 0046 49       		.uleb128 0x49
 1462 0047 13       		.uleb128 0x13
 1463 0048 00       		.byte	0
 1464 0049 00       		.byte	0
 1465 004a 07       		.uleb128 0x7
 1466 004b 01       		.uleb128 0x1
ARM GAS  C:\Users\SCOTTC~1\AppData\Local\Temp\ccK1cr4f.s 			page 38


 1467 004c 01       		.byte	0x1
 1468 004d 49       		.uleb128 0x49
 1469 004e 13       		.uleb128 0x13
 1470 004f 01       		.uleb128 0x1
 1471 0050 13       		.uleb128 0x13
 1472 0051 00       		.byte	0
 1473 0052 00       		.byte	0
 1474 0053 08       		.uleb128 0x8
 1475 0054 21       		.uleb128 0x21
 1476 0055 00       		.byte	0
 1477 0056 49       		.uleb128 0x49
 1478 0057 13       		.uleb128 0x13
 1479 0058 2F       		.uleb128 0x2f
 1480 0059 0B       		.uleb128 0xb
 1481 005a 00       		.byte	0
 1482 005b 00       		.byte	0
 1483 005c 09       		.uleb128 0x9
 1484 005d 2E       		.uleb128 0x2e
 1485 005e 00       		.byte	0
 1486 005f 3F       		.uleb128 0x3f
 1487 0060 19       		.uleb128 0x19
 1488 0061 03       		.uleb128 0x3
 1489 0062 0E       		.uleb128 0xe
 1490 0063 3A       		.uleb128 0x3a
 1491 0064 0B       		.uleb128 0xb
 1492 0065 3B       		.uleb128 0x3b
 1493 0066 0B       		.uleb128 0xb
 1494 0067 27       		.uleb128 0x27
 1495 0068 19       		.uleb128 0x19
 1496 0069 11       		.uleb128 0x11
 1497 006a 01       		.uleb128 0x1
 1498 006b 12       		.uleb128 0x12
 1499 006c 06       		.uleb128 0x6
 1500 006d 40       		.uleb128 0x40
 1501 006e 18       		.uleb128 0x18
 1502 006f 9642     		.uleb128 0x2116
 1503 0071 19       		.uleb128 0x19
 1504 0072 00       		.byte	0
 1505 0073 00       		.byte	0
 1506 0074 0A       		.uleb128 0xa
 1507 0075 2E       		.uleb128 0x2e
 1508 0076 00       		.byte	0
 1509 0077 3F       		.uleb128 0x3f
 1510 0078 19       		.uleb128 0x19
 1511 0079 03       		.uleb128 0x3
 1512 007a 0E       		.uleb128 0xe
 1513 007b 3A       		.uleb128 0x3a
 1514 007c 0B       		.uleb128 0xb
 1515 007d 3B       		.uleb128 0x3b
 1516 007e 0B       		.uleb128 0xb
 1517 007f 27       		.uleb128 0x27
 1518 0080 19       		.uleb128 0x19
 1519 0081 11       		.uleb128 0x11
 1520 0082 01       		.uleb128 0x1
 1521 0083 12       		.uleb128 0x12
 1522 0084 06       		.uleb128 0x6
 1523 0085 40       		.uleb128 0x40
ARM GAS  C:\Users\SCOTTC~1\AppData\Local\Temp\ccK1cr4f.s 			page 39


 1524 0086 18       		.uleb128 0x18
 1525 0087 9742     		.uleb128 0x2117
 1526 0089 19       		.uleb128 0x19
 1527 008a 00       		.byte	0
 1528 008b 00       		.byte	0
 1529 008c 0B       		.uleb128 0xb
 1530 008d 2E       		.uleb128 0x2e
 1531 008e 01       		.byte	0x1
 1532 008f 3F       		.uleb128 0x3f
 1533 0090 19       		.uleb128 0x19
 1534 0091 03       		.uleb128 0x3
 1535 0092 0E       		.uleb128 0xe
 1536 0093 3A       		.uleb128 0x3a
 1537 0094 0B       		.uleb128 0xb
 1538 0095 3B       		.uleb128 0x3b
 1539 0096 0B       		.uleb128 0xb
 1540 0097 27       		.uleb128 0x27
 1541 0098 19       		.uleb128 0x19
 1542 0099 49       		.uleb128 0x49
 1543 009a 13       		.uleb128 0x13
 1544 009b 11       		.uleb128 0x11
 1545 009c 01       		.uleb128 0x1
 1546 009d 12       		.uleb128 0x12
 1547 009e 06       		.uleb128 0x6
 1548 009f 40       		.uleb128 0x40
 1549 00a0 18       		.uleb128 0x18
 1550 00a1 9742     		.uleb128 0x2117
 1551 00a3 19       		.uleb128 0x19
 1552 00a4 01       		.uleb128 0x1
 1553 00a5 13       		.uleb128 0x13
 1554 00a6 00       		.byte	0
 1555 00a7 00       		.byte	0
 1556 00a8 0C       		.uleb128 0xc
 1557 00a9 05       		.uleb128 0x5
 1558 00aa 00       		.byte	0
 1559 00ab 03       		.uleb128 0x3
 1560 00ac 0E       		.uleb128 0xe
 1561 00ad 3A       		.uleb128 0x3a
 1562 00ae 0B       		.uleb128 0xb
 1563 00af 3B       		.uleb128 0x3b
 1564 00b0 0B       		.uleb128 0xb
 1565 00b1 49       		.uleb128 0x49
 1566 00b2 13       		.uleb128 0x13
 1567 00b3 02       		.uleb128 0x2
 1568 00b4 18       		.uleb128 0x18
 1569 00b5 00       		.byte	0
 1570 00b6 00       		.byte	0
 1571 00b7 0D       		.uleb128 0xd
 1572 00b8 34       		.uleb128 0x34
 1573 00b9 00       		.byte	0
 1574 00ba 03       		.uleb128 0x3
 1575 00bb 0E       		.uleb128 0xe
 1576 00bc 3A       		.uleb128 0x3a
 1577 00bd 0B       		.uleb128 0xb
 1578 00be 3B       		.uleb128 0x3b
 1579 00bf 0B       		.uleb128 0xb
 1580 00c0 49       		.uleb128 0x49
ARM GAS  C:\Users\SCOTTC~1\AppData\Local\Temp\ccK1cr4f.s 			page 40


 1581 00c1 13       		.uleb128 0x13
 1582 00c2 02       		.uleb128 0x2
 1583 00c3 18       		.uleb128 0x18
 1584 00c4 00       		.byte	0
 1585 00c5 00       		.byte	0
 1586 00c6 0E       		.uleb128 0xe
 1587 00c7 2E       		.uleb128 0x2e
 1588 00c8 01       		.byte	0x1
 1589 00c9 3F       		.uleb128 0x3f
 1590 00ca 19       		.uleb128 0x19
 1591 00cb 03       		.uleb128 0x3
 1592 00cc 0E       		.uleb128 0xe
 1593 00cd 3A       		.uleb128 0x3a
 1594 00ce 0B       		.uleb128 0xb
 1595 00cf 3B       		.uleb128 0x3b
 1596 00d0 05       		.uleb128 0x5
 1597 00d1 27       		.uleb128 0x27
 1598 00d2 19       		.uleb128 0x19
 1599 00d3 49       		.uleb128 0x49
 1600 00d4 13       		.uleb128 0x13
 1601 00d5 11       		.uleb128 0x11
 1602 00d6 01       		.uleb128 0x1
 1603 00d7 12       		.uleb128 0x12
 1604 00d8 06       		.uleb128 0x6
 1605 00d9 40       		.uleb128 0x40
 1606 00da 18       		.uleb128 0x18
 1607 00db 9742     		.uleb128 0x2117
 1608 00dd 19       		.uleb128 0x19
 1609 00de 01       		.uleb128 0x1
 1610 00df 13       		.uleb128 0x13
 1611 00e0 00       		.byte	0
 1612 00e1 00       		.byte	0
 1613 00e2 0F       		.uleb128 0xf
 1614 00e3 05       		.uleb128 0x5
 1615 00e4 00       		.byte	0
 1616 00e5 03       		.uleb128 0x3
 1617 00e6 0E       		.uleb128 0xe
 1618 00e7 3A       		.uleb128 0x3a
 1619 00e8 0B       		.uleb128 0xb
 1620 00e9 3B       		.uleb128 0x3b
 1621 00ea 05       		.uleb128 0x5
 1622 00eb 49       		.uleb128 0x49
 1623 00ec 13       		.uleb128 0x13
 1624 00ed 02       		.uleb128 0x2
 1625 00ee 18       		.uleb128 0x18
 1626 00ef 00       		.byte	0
 1627 00f0 00       		.byte	0
 1628 00f1 10       		.uleb128 0x10
 1629 00f2 34       		.uleb128 0x34
 1630 00f3 00       		.byte	0
 1631 00f4 03       		.uleb128 0x3
 1632 00f5 08       		.uleb128 0x8
 1633 00f6 3A       		.uleb128 0x3a
 1634 00f7 0B       		.uleb128 0xb
 1635 00f8 3B       		.uleb128 0x3b
 1636 00f9 05       		.uleb128 0x5
 1637 00fa 49       		.uleb128 0x49
ARM GAS  C:\Users\SCOTTC~1\AppData\Local\Temp\ccK1cr4f.s 			page 41


 1638 00fb 13       		.uleb128 0x13
 1639 00fc 02       		.uleb128 0x2
 1640 00fd 18       		.uleb128 0x18
 1641 00fe 00       		.byte	0
 1642 00ff 00       		.byte	0
 1643 0100 11       		.uleb128 0x11
 1644 0101 2E       		.uleb128 0x2e
 1645 0102 01       		.byte	0x1
 1646 0103 3F       		.uleb128 0x3f
 1647 0104 19       		.uleb128 0x19
 1648 0105 03       		.uleb128 0x3
 1649 0106 0E       		.uleb128 0xe
 1650 0107 3A       		.uleb128 0x3a
 1651 0108 0B       		.uleb128 0xb
 1652 0109 3B       		.uleb128 0x3b
 1653 010a 05       		.uleb128 0x5
 1654 010b 27       		.uleb128 0x27
 1655 010c 19       		.uleb128 0x19
 1656 010d 11       		.uleb128 0x11
 1657 010e 01       		.uleb128 0x1
 1658 010f 12       		.uleb128 0x12
 1659 0110 06       		.uleb128 0x6
 1660 0111 40       		.uleb128 0x40
 1661 0112 18       		.uleb128 0x18
 1662 0113 9742     		.uleb128 0x2117
 1663 0115 19       		.uleb128 0x19
 1664 0116 01       		.uleb128 0x1
 1665 0117 13       		.uleb128 0x13
 1666 0118 00       		.byte	0
 1667 0119 00       		.byte	0
 1668 011a 12       		.uleb128 0x12
 1669 011b 05       		.uleb128 0x5
 1670 011c 00       		.byte	0
 1671 011d 03       		.uleb128 0x3
 1672 011e 08       		.uleb128 0x8
 1673 011f 3A       		.uleb128 0x3a
 1674 0120 0B       		.uleb128 0xb
 1675 0121 3B       		.uleb128 0x3b
 1676 0122 05       		.uleb128 0x5
 1677 0123 49       		.uleb128 0x49
 1678 0124 13       		.uleb128 0x13
 1679 0125 02       		.uleb128 0x2
 1680 0126 18       		.uleb128 0x18
 1681 0127 00       		.byte	0
 1682 0128 00       		.byte	0
 1683 0129 13       		.uleb128 0x13
 1684 012a 34       		.uleb128 0x34
 1685 012b 00       		.byte	0
 1686 012c 03       		.uleb128 0x3
 1687 012d 0E       		.uleb128 0xe
 1688 012e 3A       		.uleb128 0x3a
 1689 012f 0B       		.uleb128 0xb
 1690 0130 3B       		.uleb128 0x3b
 1691 0131 05       		.uleb128 0x5
 1692 0132 49       		.uleb128 0x49
 1693 0133 13       		.uleb128 0x13
 1694 0134 02       		.uleb128 0x2
ARM GAS  C:\Users\SCOTTC~1\AppData\Local\Temp\ccK1cr4f.s 			page 42


 1695 0135 18       		.uleb128 0x18
 1696 0136 00       		.byte	0
 1697 0137 00       		.byte	0
 1698 0138 14       		.uleb128 0x14
 1699 0139 34       		.uleb128 0x34
 1700 013a 00       		.byte	0
 1701 013b 03       		.uleb128 0x3
 1702 013c 0E       		.uleb128 0xe
 1703 013d 3A       		.uleb128 0x3a
 1704 013e 0B       		.uleb128 0xb
 1705 013f 3B       		.uleb128 0x3b
 1706 0140 0B       		.uleb128 0xb
 1707 0141 49       		.uleb128 0x49
 1708 0142 13       		.uleb128 0x13
 1709 0143 3F       		.uleb128 0x3f
 1710 0144 19       		.uleb128 0x19
 1711 0145 02       		.uleb128 0x2
 1712 0146 18       		.uleb128 0x18
 1713 0147 00       		.byte	0
 1714 0148 00       		.byte	0
 1715 0149 15       		.uleb128 0x15
 1716 014a 34       		.uleb128 0x34
 1717 014b 00       		.byte	0
 1718 014c 03       		.uleb128 0x3
 1719 014d 0E       		.uleb128 0xe
 1720 014e 3A       		.uleb128 0x3a
 1721 014f 0B       		.uleb128 0xb
 1722 0150 3B       		.uleb128 0x3b
 1723 0151 0B       		.uleb128 0xb
 1724 0152 49       		.uleb128 0x49
 1725 0153 13       		.uleb128 0x13
 1726 0154 3F       		.uleb128 0x3f
 1727 0155 19       		.uleb128 0x19
 1728 0156 3C       		.uleb128 0x3c
 1729 0157 19       		.uleb128 0x19
 1730 0158 00       		.byte	0
 1731 0159 00       		.byte	0
 1732 015a 16       		.uleb128 0x16
 1733 015b 26       		.uleb128 0x26
 1734 015c 00       		.byte	0
 1735 015d 49       		.uleb128 0x49
 1736 015e 13       		.uleb128 0x13
 1737 015f 00       		.byte	0
 1738 0160 00       		.byte	0
 1739 0161 17       		.uleb128 0x17
 1740 0162 21       		.uleb128 0x21
 1741 0163 00       		.byte	0
 1742 0164 49       		.uleb128 0x49
 1743 0165 13       		.uleb128 0x13
 1744 0166 2F       		.uleb128 0x2f
 1745 0167 05       		.uleb128 0x5
 1746 0168 00       		.byte	0
 1747 0169 00       		.byte	0
 1748 016a 00       		.byte	0
 1749              		.section	.debug_aranges,"",%progbits
 1750 0000 7C000000 		.4byte	0x7c
 1751 0004 0200     		.2byte	0x2
ARM GAS  C:\Users\SCOTTC~1\AppData\Local\Temp\ccK1cr4f.s 			page 43


 1752 0006 00000000 		.4byte	.Ldebug_info0
 1753 000a 04       		.byte	0x4
 1754 000b 00       		.byte	0
 1755 000c 0000     		.2byte	0
 1756 000e 0000     		.2byte	0
 1757 0010 00000000 		.4byte	.LFB0
 1758 0014 1C010000 		.4byte	.LFE0-.LFB0
 1759 0018 00000000 		.4byte	.LFB1
 1760 001c 48000000 		.4byte	.LFE1-.LFB1
 1761 0020 00000000 		.4byte	.LFB2
 1762 0024 20000000 		.4byte	.LFE2-.LFB2
 1763 0028 00000000 		.4byte	.LFB3
 1764 002c 48000000 		.4byte	.LFE3-.LFB3
 1765 0030 00000000 		.4byte	.LFB4
 1766 0034 40000000 		.4byte	.LFE4-.LFB4
 1767 0038 00000000 		.4byte	.LFB5
 1768 003c 40000000 		.4byte	.LFE5-.LFB5
 1769 0040 00000000 		.4byte	.LFB6
 1770 0044 40000000 		.4byte	.LFE6-.LFB6
 1771 0048 00000000 		.4byte	.LFB7
 1772 004c 3C000000 		.4byte	.LFE7-.LFB7
 1773 0050 00000000 		.4byte	.LFB8
 1774 0054 3C000000 		.4byte	.LFE8-.LFB8
 1775 0058 00000000 		.4byte	.LFB9
 1776 005c 38000000 		.4byte	.LFE9-.LFB9
 1777 0060 00000000 		.4byte	.LFB10
 1778 0064 98000000 		.4byte	.LFE10-.LFB10
 1779 0068 00000000 		.4byte	.LFB11
 1780 006c 60000000 		.4byte	.LFE11-.LFB11
 1781 0070 00000000 		.4byte	.LFB12
 1782 0074 50000000 		.4byte	.LFE12-.LFB12
 1783 0078 00000000 		.4byte	0
 1784 007c 00000000 		.4byte	0
 1785              		.section	.debug_ranges,"",%progbits
 1786              	.Ldebug_ranges0:
 1787 0000 00000000 		.4byte	.LFB0
 1788 0004 1C010000 		.4byte	.LFE0
 1789 0008 00000000 		.4byte	.LFB1
 1790 000c 48000000 		.4byte	.LFE1
 1791 0010 00000000 		.4byte	.LFB2
 1792 0014 20000000 		.4byte	.LFE2
 1793 0018 00000000 		.4byte	.LFB3
 1794 001c 48000000 		.4byte	.LFE3
 1795 0020 00000000 		.4byte	.LFB4
 1796 0024 40000000 		.4byte	.LFE4
 1797 0028 00000000 		.4byte	.LFB5
 1798 002c 40000000 		.4byte	.LFE5
 1799 0030 00000000 		.4byte	.LFB6
 1800 0034 40000000 		.4byte	.LFE6
 1801 0038 00000000 		.4byte	.LFB7
 1802 003c 3C000000 		.4byte	.LFE7
 1803 0040 00000000 		.4byte	.LFB8
 1804 0044 3C000000 		.4byte	.LFE8
 1805 0048 00000000 		.4byte	.LFB9
 1806 004c 38000000 		.4byte	.LFE9
 1807 0050 00000000 		.4byte	.LFB10
 1808 0054 98000000 		.4byte	.LFE10
ARM GAS  C:\Users\SCOTTC~1\AppData\Local\Temp\ccK1cr4f.s 			page 44


 1809 0058 00000000 		.4byte	.LFB11
 1810 005c 60000000 		.4byte	.LFE11
 1811 0060 00000000 		.4byte	.LFB12
 1812 0064 50000000 		.4byte	.LFE12
 1813 0068 00000000 		.4byte	0
 1814 006c 00000000 		.4byte	0
 1815              		.section	.debug_line,"",%progbits
 1816              	.Ldebug_line0:
 1817 0000 7E010000 		.section	.debug_str,"MS",%progbits,1
 1817      02005500 
 1817      00000201 
 1817      FB0E0D00 
 1817      01010101 
 1818              	.LASF17:
 1819 0000 72656731 		.ascii	"reg16\000"
 1819      3600
 1820              	.LASF18:
 1821 0006 72656733 		.ascii	"reg32\000"
 1821      3200
 1822              	.LASF25:
 1823 000c 6368616E 		.ascii	"channel\000"
 1823      6E656C00 
 1824              	.LASF39:
 1825 0014 46696C74 		.ascii	"Filter_initVar\000"
 1825      65725F69 
 1825      6E697456 
 1825      617200
 1826              	.LASF38:
 1827 0023 73746174 		.ascii	"state\000"
 1827      6500
 1828              	.LASF40:
 1829 0029 46696C74 		.ascii	"Filter_control\000"
 1829      65725F63 
 1829      6F6E7472 
 1829      6F6C00
 1830              	.LASF5:
 1831 0038 6C6F6E67 		.ascii	"long int\000"
 1831      20696E74 
 1831      00
 1832              	.LASF20:
 1833 0041 46696C74 		.ascii	"Filter_Enable\000"
 1833      65725F45 
 1833      6E61626C 
 1833      6500
 1834              	.LASF30:
 1835 004f 46696C74 		.ascii	"Filter_Write16\000"
 1835      65725F57 
 1835      72697465 
 1835      313600
 1836              	.LASF24:
 1837 005e 46696C74 		.ascii	"Filter_Read16\000"
 1837      65725F52 
 1837      65616431 
 1837      3600
 1838              	.LASF14:
 1839 006c 666C6F61 		.ascii	"float\000"
 1839      7400
ARM GAS  C:\Users\SCOTTC~1\AppData\Local\Temp\ccK1cr4f.s 			page 45


 1840              	.LASF2:
 1841 0072 756E7369 		.ascii	"unsigned char\000"
 1841      676E6564 
 1841      20636861 
 1841      7200
 1842              	.LASF22:
 1843 0080 46696C74 		.ascii	"Filter_Stop\000"
 1843      65725F53 
 1843      746F7000 
 1844              	.LASF16:
 1845 008c 72656738 		.ascii	"reg8\000"
 1845      00
 1846              	.LASF21:
 1847 0091 46696C74 		.ascii	"Filter_Start\000"
 1847      65725F53 
 1847      74617274 
 1847      00
 1848              	.LASF6:
 1849 009e 6C6F6E67 		.ascii	"long unsigned int\000"
 1849      20756E73 
 1849      69676E65 
 1849      6420696E 
 1849      7400
 1850              	.LASF35:
 1851 00b0 72656753 		.ascii	"regSelect\000"
 1851      656C6563 
 1851      7400
 1852              	.LASF11:
 1853 00ba 75696E74 		.ascii	"uint8\000"
 1853      3800
 1854              	.LASF42:
 1855 00c0 46696C74 		.ascii	"Filter_data_b\000"
 1855      65725F64 
 1855      6174615F 
 1855      6200
 1856              	.LASF32:
 1857 00ce 46696C74 		.ascii	"Filter_SetCoherency\000"
 1857      65725F53 
 1857      6574436F 
 1857      68657265 
 1857      6E637900 
 1858              	.LASF26:
 1859 00e2 76616C75 		.ascii	"value\000"
 1859      6500
 1860              	.LASF15:
 1861 00e8 646F7562 		.ascii	"double\000"
 1861      6C6500
 1862              	.LASF41:
 1863 00ef 46696C74 		.ascii	"Filter_data_a\000"
 1863      65725F64 
 1863      6174615F 
 1863      6100
 1864              	.LASF12:
 1865 00fd 75696E74 		.ascii	"uint16\000"
 1865      313600
 1866              	.LASF47:
 1867 0104 5C5C766D 		.ascii	"\\\\vmware-host\\Shared Folders\\scottcarlson On My"
ARM GAS  C:\Users\SCOTTC~1\AppData\Local\Temp\ccK1cr4f.s 			page 46


 1867      77617265 
 1867      2D686F73 
 1867      745C5368 
 1867      61726564 
 1868 0133 204D6163 		.ascii	" Mac\\Code\\repos\\LED_controller\\Design01.cydsn\000"
 1868      5C436F64 
 1868      655C7265 
 1868      706F735C 
 1868      4C45445F 
 1869              	.LASF13:
 1870 0161 75696E74 		.ascii	"uint32\000"
 1870      333200
 1871              	.LASF0:
 1872 0168 756E7369 		.ascii	"unsigned int\000"
 1872      676E6564 
 1872      20696E74 
 1872      00
 1873              	.LASF8:
 1874 0175 6C6F6E67 		.ascii	"long long unsigned int\000"
 1874      206C6F6E 
 1874      6720756E 
 1874      7369676E 
 1874      65642069 
 1875              	.LASF23:
 1876 018c 46696C74 		.ascii	"Filter_Read8\000"
 1876      65725F52 
 1876      65616438 
 1876      00
 1877              	.LASF29:
 1878 0199 46696C74 		.ascii	"Filter_Write8\000"
 1878      65725F57 
 1878      72697465 
 1878      3800
 1879              	.LASF45:
 1880 01a7 474E5520 		.ascii	"GNU C 4.8.4 20140526 (release) [ARM/embedded-4_8-br"
 1880      4320342E 
 1880      382E3420 
 1880      32303134 
 1880      30353236 
 1881 01da 616E6368 		.ascii	"anch revision 211358] -mcpu=cortex-m3 -mthumb -g -O"
 1881      20726576 
 1881      6973696F 
 1881      6E203231 
 1881      31333538 
 1882 020d 30202D66 		.ascii	"0 -ffunction-sections\000"
 1882      66756E63 
 1882      74696F6E 
 1882      2D736563 
 1882      74696F6E 
 1883              	.LASF33:
 1884 0223 62797465 		.ascii	"byteSelect\000"
 1884      53656C65 
 1884      637400
 1885              	.LASF31:
 1886 022e 46696C74 		.ascii	"Filter_Write24\000"
 1886      65725F57 
 1886      72697465 
ARM GAS  C:\Users\SCOTTC~1\AppData\Local\Temp\ccK1cr4f.s 			page 47


 1886      323400
 1887              	.LASF9:
 1888 023d 73697A65 		.ascii	"sizetype\000"
 1888      74797065 
 1888      00
 1889              	.LASF7:
 1890 0246 6C6F6E67 		.ascii	"long long int\000"
 1890      206C6F6E 
 1890      6720696E 
 1890      7400
 1891              	.LASF10:
 1892 0254 63686172 		.ascii	"char\000"
 1892      00
 1893              	.LASF36:
 1894 0259 6B657952 		.ascii	"keyReg\000"
 1894      656700
 1895              	.LASF27:
 1896 0260 46696C74 		.ascii	"Filter_Read24\000"
 1896      65725F52 
 1896      65616432 
 1896      3400
 1897              	.LASF3:
 1898 026e 73686F72 		.ascii	"short int\000"
 1898      7420696E 
 1898      7400
 1899              	.LASF46:
 1900 0278 2E5C4765 		.ascii	".\\Generated_Source\\PSoC5\\Filter.c\000"
 1900      6E657261 
 1900      7465645F 
 1900      536F7572 
 1900      63655C50 
 1901              	.LASF34:
 1902 029a 46696C74 		.ascii	"Filter_SetCoherencyEx\000"
 1902      65725F53 
 1902      6574436F 
 1902      68657265 
 1902      6E637945 
 1903              	.LASF28:
 1904 02b0 73616D70 		.ascii	"sample\000"
 1904      6C6500
 1905              	.LASF44:
 1906 02b7 46696C74 		.ascii	"Filter_acu\000"
 1906      65725F61 
 1906      637500
 1907              	.LASF37:
 1908 02c2 46696C74 		.ascii	"Filter_SetDalign\000"
 1908      65725F53 
 1908      65744461 
 1908      6C69676E 
 1908      00
 1909              	.LASF1:
 1910 02d3 7369676E 		.ascii	"signed char\000"
 1910      65642063 
 1910      68617200 
 1911              	.LASF4:
 1912 02df 73686F72 		.ascii	"short unsigned int\000"
 1912      7420756E 
ARM GAS  C:\Users\SCOTTC~1\AppData\Local\Temp\ccK1cr4f.s 			page 48


 1912      7369676E 
 1912      65642069 
 1912      6E7400
 1913              	.LASF43:
 1914 02f2 46696C74 		.ascii	"Filter_cfsm\000"
 1914      65725F63 
 1914      66736D00 
 1915              	.LASF19:
 1916 02fe 46696C74 		.ascii	"Filter_Init\000"
 1916      65725F49 
 1916      6E697400 
 1917              		.ident	"GCC: (GNU Tools for ARM Embedded Processors) 4.8.4 20140526 (release) [ARM/embedded-4_8-br
