ARM GAS  C:\Users\SCOTTC~1\AppData\Local\Temp\ccGNVx2L.s 			page 1


   1              		.syntax unified
   2              		.cpu cortex-m3
   3              		.fpu softvfp
   4              		.eabi_attribute 20, 1
   5              		.eabi_attribute 21, 1
   6              		.eabi_attribute 23, 3
   7              		.eabi_attribute 24, 1
   8              		.eabi_attribute 25, 1
   9              		.eabi_attribute 26, 1
  10              		.eabi_attribute 30, 6
  11              		.eabi_attribute 34, 1
  12              		.eabi_attribute 18, 4
  13              		.thumb
  14              		.file	"Filter_PM.c"
  15              		.text
  16              	.Ltext0:
  17              		.cfi_sections	.debug_frame
  18              		.data
  19              		.align	2
  20              		.type	Filter_backup, %object
  21              		.size	Filter_backup, 68
  22              	Filter_backup:
  23 0000 00       		.byte	0
  24 0001 01       		.byte	1
  25 0002 00000000 		.space	66
  25      00000000 
  25      00000000 
  25      00000000 
  25      00000000 
  26              		.section	.text.Filter_SaveConfig,"ax",%progbits
  27              		.align	2
  28              		.global	Filter_SaveConfig
  29              		.thumb
  30              		.thumb_func
  31              		.type	Filter_SaveConfig, %function
  32              	Filter_SaveConfig:
  33              	.LFB0:
  34              		.file 1 ".\\Generated_Source\\PSoC5\\Filter_PM.c"
   1:.\Generated_Source\PSoC5/Filter_PM.c **** /*******************************************************************************
   2:.\Generated_Source\PSoC5/Filter_PM.c **** * File Name: Filter_PM.c
   3:.\Generated_Source\PSoC5/Filter_PM.c **** * Version 2.30
   4:.\Generated_Source\PSoC5/Filter_PM.c **** *
   5:.\Generated_Source\PSoC5/Filter_PM.c **** * Description:
   6:.\Generated_Source\PSoC5/Filter_PM.c **** *  This file provides the power managaer API source code for the FILT component.
   7:.\Generated_Source\PSoC5/Filter_PM.c **** *
   8:.\Generated_Source\PSoC5/Filter_PM.c **** * Note:
   9:.\Generated_Source\PSoC5/Filter_PM.c **** *  
  10:.\Generated_Source\PSoC5/Filter_PM.c **** *******************************************************************************
  11:.\Generated_Source\PSoC5/Filter_PM.c **** * Copyright 2008-2013, Cypress Semiconductor Corporation.  All rights reserved.
  12:.\Generated_Source\PSoC5/Filter_PM.c **** * You may use this file only in accordance with the license, terms, conditions, 
  13:.\Generated_Source\PSoC5/Filter_PM.c **** * disclaimers, and limitations in the end user license agreement accompanying 
  14:.\Generated_Source\PSoC5/Filter_PM.c **** * the software package with which this file was provided.
  15:.\Generated_Source\PSoC5/Filter_PM.c **** ********************************************************************************/
  16:.\Generated_Source\PSoC5/Filter_PM.c **** 
  17:.\Generated_Source\PSoC5/Filter_PM.c **** #include "Filter_PVT.h"
  18:.\Generated_Source\PSoC5/Filter_PM.c **** 
  19:.\Generated_Source\PSoC5/Filter_PM.c **** static Filter_backupStruct  Filter_backup = 
ARM GAS  C:\Users\SCOTTC~1\AppData\Local\Temp\ccGNVx2L.s 			page 2


  20:.\Generated_Source\PSoC5/Filter_PM.c **** {
  21:.\Generated_Source\PSoC5/Filter_PM.c ****     Filter_DISABLED,
  22:.\Generated_Source\PSoC5/Filter_PM.c ****     Filter_RUN_MASK,
  23:.\Generated_Source\PSoC5/Filter_PM.c ****     
  24:.\Generated_Source\PSoC5/Filter_PM.c **** };
  25:.\Generated_Source\PSoC5/Filter_PM.c **** 
  26:.\Generated_Source\PSoC5/Filter_PM.c **** 
  27:.\Generated_Source\PSoC5/Filter_PM.c **** /*******************************************************************************
  28:.\Generated_Source\PSoC5/Filter_PM.c **** * Function Name: Filter_SaveConfig
  29:.\Generated_Source\PSoC5/Filter_PM.c **** ********************************************************************************
  30:.\Generated_Source\PSoC5/Filter_PM.c **** *
  31:.\Generated_Source\PSoC5/Filter_PM.c **** * Summary:
  32:.\Generated_Source\PSoC5/Filter_PM.c **** *  Saves the current user configuration.
  33:.\Generated_Source\PSoC5/Filter_PM.c **** *  
  34:.\Generated_Source\PSoC5/Filter_PM.c **** * Parameters:  
  35:.\Generated_Source\PSoC5/Filter_PM.c **** *  void
  36:.\Generated_Source\PSoC5/Filter_PM.c **** *
  37:.\Generated_Source\PSoC5/Filter_PM.c **** * Return: 
  38:.\Generated_Source\PSoC5/Filter_PM.c **** *  void
  39:.\Generated_Source\PSoC5/Filter_PM.c **** *
  40:.\Generated_Source\PSoC5/Filter_PM.c **** * Global variables:
  41:.\Generated_Source\PSoC5/Filter_PM.c **** *  Filter_backup:  This global structure variable is used to store 
  42:.\Generated_Source\PSoC5/Filter_PM.c **** *  configuration registers which are non retention whenever user wants to go 
  43:.\Generated_Source\PSoC5/Filter_PM.c **** *  sleep mode by calling Sleep() API.
  44:.\Generated_Source\PSoC5/Filter_PM.c **** *
  45:.\Generated_Source\PSoC5/Filter_PM.c **** *******************************************************************************/
  46:.\Generated_Source\PSoC5/Filter_PM.c **** void Filter_SaveConfig(void) 
  47:.\Generated_Source\PSoC5/Filter_PM.c **** {
  35              		.loc 1 47 0
  36              		.cfi_startproc
  37              		@ args = 0, pretend = 0, frame = 0
  38              		@ frame_needed = 1, uses_anonymous_args = 0
  39              		@ link register save eliminated.
  40 0000 B0B4     		push	{r4, r5, r7}
  41              		.cfi_def_cfa_offset 12
  42              		.cfi_offset 4, -12
  43              		.cfi_offset 5, -8
  44              		.cfi_offset 7, -4
  45 0002 00AF     		add	r7, sp, #0
  46              		.cfi_def_cfa_register 7
  48:.\Generated_Source\PSoC5/Filter_PM.c ****     Filter_backup.sr = Filter_SR_REG;
  47              		.loc 1 48 0
  48 0004 104B     		ldr	r3, .L2
  49 0006 1B78     		ldrb	r3, [r3]
  50 0008 DAB2     		uxtb	r2, r3
  51 000a 104B     		ldr	r3, .L2+4
  52 000c 9A70     		strb	r2, [r3, #2]
  49:.\Generated_Source\PSoC5/Filter_PM.c ****     Filter_backup.sema = Filter_SEMA_REG;
  53              		.loc 1 49 0
  54 000e 104B     		ldr	r3, .L2+8
  55 0010 1B78     		ldrb	r3, [r3]
  56 0012 DAB2     		uxtb	r2, r3
  57 0014 0D4B     		ldr	r3, .L2+4
  58 0016 DA70     		strb	r2, [r3, #3]
  50:.\Generated_Source\PSoC5/Filter_PM.c **** 
  51:.\Generated_Source\PSoC5/Filter_PM.c ****     /* Put DFB RAM on the bus */
  52:.\Generated_Source\PSoC5/Filter_PM.c ****     Filter_RAM_DIR_REG = Filter_RAM_DIR_BUS;
ARM GAS  C:\Users\SCOTTC~1\AppData\Local\Temp\ccGNVx2L.s 			page 3


  59              		.loc 1 52 0
  60 0018 0E4B     		ldr	r3, .L2+12
  61 001a 3F22     		movs	r2, #63
  62 001c 1A70     		strb	r2, [r3]
  53:.\Generated_Source\PSoC5/Filter_PM.c **** 
  54:.\Generated_Source\PSoC5/Filter_PM.c ****     /* Save the ACU RAM as this is not retension */
  55:.\Generated_Source\PSoC5/Filter_PM.c ****     (void)memcpy(Filter_backup.saveAcu,
  63              		.loc 1 55 0
  64 001e 0B4A     		ldr	r2, .L2+4
  65 0020 0D4B     		ldr	r3, .L2+16
  66 0022 141D     		adds	r4, r2, #4
  67 0024 1D46     		mov	r5, r3
  68 0026 0FCD     		ldmia	r5!, {r0, r1, r2, r3}
  69 0028 0FC4     		stmia	r4!, {r0, r1, r2, r3}
  70 002a 0FCD     		ldmia	r5!, {r0, r1, r2, r3}
  71 002c 0FC4     		stmia	r4!, {r0, r1, r2, r3}
  72 002e 0FCD     		ldmia	r5!, {r0, r1, r2, r3}
  73 0030 0FC4     		stmia	r4!, {r0, r1, r2, r3}
  74 0032 95E80F00 		ldmia	r5, {r0, r1, r2, r3}
  75 0036 84E80F00 		stmia	r4, {r0, r1, r2, r3}
  56:.\Generated_Source\PSoC5/Filter_PM.c ****         Filter_ACU_RAM, Filter_ACU_RAM_SIZE); 
  57:.\Generated_Source\PSoC5/Filter_PM.c **** 
  58:.\Generated_Source\PSoC5/Filter_PM.c ****     /* Take DFB RAM off the bus */
  59:.\Generated_Source\PSoC5/Filter_PM.c ****     Filter_RAM_DIR_REG = Filter_RAM_DIR_DFB;
  76              		.loc 1 59 0
  77 003a 064B     		ldr	r3, .L2+12
  78 003c 0022     		movs	r2, #0
  79 003e 1A70     		strb	r2, [r3]
  60:.\Generated_Source\PSoC5/Filter_PM.c **** }
  80              		.loc 1 60 0
  81 0040 BD46     		mov	sp, r7
  82              		@ sp needed
  83 0042 B0BC     		pop	{r4, r5, r7}
  84 0044 7047     		bx	lr
  85              	.L3:
  86 0046 00BF     		.align	2
  87              	.L2:
  88 0048 84C70040 		.word	1073792900
  89 004c 00000000 		.word	Filter_backup
  90 0050 90C70040 		.word	1073792912
  91 0054 8CC70040 		.word	1073792908
  92 0058 00C70040 		.word	1073792768
  93              		.cfi_endproc
  94              	.LFE0:
  95              		.size	Filter_SaveConfig, .-Filter_SaveConfig
  96              		.section	.text.Filter_RestoreConfig,"ax",%progbits
  97              		.align	2
  98              		.global	Filter_RestoreConfig
  99              		.thumb
 100              		.thumb_func
 101              		.type	Filter_RestoreConfig, %function
 102              	Filter_RestoreConfig:
 103              	.LFB1:
  61:.\Generated_Source\PSoC5/Filter_PM.c **** 
  62:.\Generated_Source\PSoC5/Filter_PM.c **** 
  63:.\Generated_Source\PSoC5/Filter_PM.c **** /*******************************************************************************
  64:.\Generated_Source\PSoC5/Filter_PM.c **** * Function Name: Filter_RestoreConfig
ARM GAS  C:\Users\SCOTTC~1\AppData\Local\Temp\ccGNVx2L.s 			page 4


  65:.\Generated_Source\PSoC5/Filter_PM.c **** ********************************************************************************
  66:.\Generated_Source\PSoC5/Filter_PM.c **** *
  67:.\Generated_Source\PSoC5/Filter_PM.c **** * Summary:
  68:.\Generated_Source\PSoC5/Filter_PM.c **** *  Restores the current user configuration.
  69:.\Generated_Source\PSoC5/Filter_PM.c **** *
  70:.\Generated_Source\PSoC5/Filter_PM.c **** * Parameters:  
  71:.\Generated_Source\PSoC5/Filter_PM.c **** *  void
  72:.\Generated_Source\PSoC5/Filter_PM.c **** *
  73:.\Generated_Source\PSoC5/Filter_PM.c **** * Return: 
  74:.\Generated_Source\PSoC5/Filter_PM.c **** *  void
  75:.\Generated_Source\PSoC5/Filter_PM.c **** *
  76:.\Generated_Source\PSoC5/Filter_PM.c **** * Global variables:
  77:.\Generated_Source\PSoC5/Filter_PM.c **** *  Filter_backup:  This global structure variable is used to restore 
  78:.\Generated_Source\PSoC5/Filter_PM.c **** *  configuration registers which are non retention whenever user wants to switch 
  79:.\Generated_Source\PSoC5/Filter_PM.c **** *  to active power mode by calling Wakeup() API.
  80:.\Generated_Source\PSoC5/Filter_PM.c **** *
  81:.\Generated_Source\PSoC5/Filter_PM.c **** *******************************************************************************/
  82:.\Generated_Source\PSoC5/Filter_PM.c **** void Filter_RestoreConfig(void) 
  83:.\Generated_Source\PSoC5/Filter_PM.c **** {
 104              		.loc 1 83 0
 105              		.cfi_startproc
 106              		@ args = 0, pretend = 0, frame = 0
 107              		@ frame_needed = 1, uses_anonymous_args = 0
 108              		@ link register save eliminated.
 109 0000 B0B4     		push	{r4, r5, r7}
 110              		.cfi_def_cfa_offset 12
 111              		.cfi_offset 4, -12
 112              		.cfi_offset 5, -8
 113              		.cfi_offset 7, -4
 114 0002 00AF     		add	r7, sp, #0
 115              		.cfi_def_cfa_register 7
  84:.\Generated_Source\PSoC5/Filter_PM.c ****     Filter_SR_REG = Filter_backup.sr;
 116              		.loc 1 84 0
 117 0004 134B     		ldr	r3, .L5
 118 0006 144A     		ldr	r2, .L5+4
 119 0008 9278     		ldrb	r2, [r2, #2]	@ zero_extendqisi2
 120 000a 1A70     		strb	r2, [r3]
  85:.\Generated_Source\PSoC5/Filter_PM.c ****     Filter_SEMA_REG = Filter_backup.sema;
 121              		.loc 1 85 0
 122 000c 134B     		ldr	r3, .L5+8
 123 000e 124A     		ldr	r2, .L5+4
 124 0010 D278     		ldrb	r2, [r2, #3]	@ zero_extendqisi2
 125 0012 1A70     		strb	r2, [r3]
  86:.\Generated_Source\PSoC5/Filter_PM.c ****     
  87:.\Generated_Source\PSoC5/Filter_PM.c ****     /* Power on DFB before initializing the RAMs */
  88:.\Generated_Source\PSoC5/Filter_PM.c ****     Filter_PM_ACT_CFG_REG |= Filter_PM_ACT_MSK;
 126              		.loc 1 88 0
 127 0014 124B     		ldr	r3, .L5+12
 128 0016 124A     		ldr	r2, .L5+12
 129 0018 1278     		ldrb	r2, [r2]
 130 001a D2B2     		uxtb	r2, r2
 131 001c 42F01002 		orr	r2, r2, #16
 132 0020 D2B2     		uxtb	r2, r2
 133 0022 1A70     		strb	r2, [r3]
  89:.\Generated_Source\PSoC5/Filter_PM.c **** 
  90:.\Generated_Source\PSoC5/Filter_PM.c ****     /* Put DFB RAM on the bus */
  91:.\Generated_Source\PSoC5/Filter_PM.c ****     Filter_RAM_DIR_REG = Filter_RAM_DIR_BUS;
ARM GAS  C:\Users\SCOTTC~1\AppData\Local\Temp\ccGNVx2L.s 			page 5


 134              		.loc 1 91 0
 135 0024 0F4B     		ldr	r3, .L5+16
 136 0026 3F22     		movs	r2, #63
 137 0028 1A70     		strb	r2, [r3]
  92:.\Generated_Source\PSoC5/Filter_PM.c **** 
  93:.\Generated_Source\PSoC5/Filter_PM.c ****     /* Restore ACU RAM as this is not retension */
  94:.\Generated_Source\PSoC5/Filter_PM.c ****     (void)memcpy(Filter_ACU_RAM,
 138              		.loc 1 94 0
 139 002a 0F4A     		ldr	r2, .L5+20
 140 002c 0A4B     		ldr	r3, .L5+4
 141 002e 1446     		mov	r4, r2
 142 0030 1D1D     		adds	r5, r3, #4
 143 0032 0FCD     		ldmia	r5!, {r0, r1, r2, r3}
 144 0034 0FC4     		stmia	r4!, {r0, r1, r2, r3}
 145 0036 0FCD     		ldmia	r5!, {r0, r1, r2, r3}
 146 0038 0FC4     		stmia	r4!, {r0, r1, r2, r3}
 147 003a 0FCD     		ldmia	r5!, {r0, r1, r2, r3}
 148 003c 0FC4     		stmia	r4!, {r0, r1, r2, r3}
 149 003e 95E80F00 		ldmia	r5, {r0, r1, r2, r3}
 150 0042 84E80F00 		stmia	r4, {r0, r1, r2, r3}
  95:.\Generated_Source\PSoC5/Filter_PM.c ****         Filter_backup.saveAcu, Filter_ACU_RAM_SIZE); 
  96:.\Generated_Source\PSoC5/Filter_PM.c **** 
  97:.\Generated_Source\PSoC5/Filter_PM.c ****     /* Take DFB RAM off the bus */
  98:.\Generated_Source\PSoC5/Filter_PM.c ****     Filter_RAM_DIR_REG = Filter_RAM_DIR_DFB;
 151              		.loc 1 98 0
 152 0046 074B     		ldr	r3, .L5+16
 153 0048 0022     		movs	r2, #0
 154 004a 1A70     		strb	r2, [r3]
  99:.\Generated_Source\PSoC5/Filter_PM.c **** }
 155              		.loc 1 99 0
 156 004c BD46     		mov	sp, r7
 157              		@ sp needed
 158 004e B0BC     		pop	{r4, r5, r7}
 159 0050 7047     		bx	lr
 160              	.L6:
 161 0052 00BF     		.align	2
 162              	.L5:
 163 0054 84C70040 		.word	1073792900
 164 0058 00000000 		.word	Filter_backup
 165 005c 90C70040 		.word	1073792912
 166 0060 A6430040 		.word	1073759142
 167 0064 8CC70040 		.word	1073792908
 168 0068 00C70040 		.word	1073792768
 169              		.cfi_endproc
 170              	.LFE1:
 171              		.size	Filter_RestoreConfig, .-Filter_RestoreConfig
 172              		.section	.text.Filter_Sleep,"ax",%progbits
 173              		.align	2
 174              		.global	Filter_Sleep
 175              		.thumb
 176              		.thumb_func
 177              		.type	Filter_Sleep, %function
 178              	Filter_Sleep:
 179              	.LFB2:
 100:.\Generated_Source\PSoC5/Filter_PM.c **** 
 101:.\Generated_Source\PSoC5/Filter_PM.c **** 
 102:.\Generated_Source\PSoC5/Filter_PM.c **** /*******************************************************************************
ARM GAS  C:\Users\SCOTTC~1\AppData\Local\Temp\ccGNVx2L.s 			page 6


 103:.\Generated_Source\PSoC5/Filter_PM.c **** * Function Name: Filter_Sleep
 104:.\Generated_Source\PSoC5/Filter_PM.c **** ********************************************************************************
 105:.\Generated_Source\PSoC5/Filter_PM.c **** *
 106:.\Generated_Source\PSoC5/Filter_PM.c **** * Summary:
 107:.\Generated_Source\PSoC5/Filter_PM.c **** *  Disables block's operation and saves its configuration. Should be called 
 108:.\Generated_Source\PSoC5/Filter_PM.c **** *  just prior to entering sleep.
 109:.\Generated_Source\PSoC5/Filter_PM.c **** *  
 110:.\Generated_Source\PSoC5/Filter_PM.c **** * Parameters:  
 111:.\Generated_Source\PSoC5/Filter_PM.c **** *  void
 112:.\Generated_Source\PSoC5/Filter_PM.c **** *
 113:.\Generated_Source\PSoC5/Filter_PM.c **** * Return: 
 114:.\Generated_Source\PSoC5/Filter_PM.c **** *  void
 115:.\Generated_Source\PSoC5/Filter_PM.c **** *
 116:.\Generated_Source\PSoC5/Filter_PM.c **** * Global variables:
 117:.\Generated_Source\PSoC5/Filter_PM.c **** *  Filter_backup:  The structure field 'enableState' is modified 
 118:.\Generated_Source\PSoC5/Filter_PM.c **** *  depending on the enable state of the block before entering to sleep mode.
 119:.\Generated_Source\PSoC5/Filter_PM.c **** *
 120:.\Generated_Source\PSoC5/Filter_PM.c **** *******************************************************************************/
 121:.\Generated_Source\PSoC5/Filter_PM.c **** void Filter_Sleep(void) 
 122:.\Generated_Source\PSoC5/Filter_PM.c **** {
 180              		.loc 1 122 0
 181              		.cfi_startproc
 182              		@ args = 0, pretend = 0, frame = 0
 183              		@ frame_needed = 1, uses_anonymous_args = 0
 184 0000 80B5     		push	{r7, lr}
 185              		.cfi_def_cfa_offset 8
 186              		.cfi_offset 7, -8
 187              		.cfi_offset 14, -4
 188 0002 00AF     		add	r7, sp, #0
 189              		.cfi_def_cfa_register 7
 123:.\Generated_Source\PSoC5/Filter_PM.c ****     /* Save Filter enable state */
 124:.\Generated_Source\PSoC5/Filter_PM.c ****     if(Filter_PM_ACT_MSK == (Filter_PM_ACT_CFG_REG & Filter_PM_ACT_MSK))
 190              		.loc 1 124 0
 191 0004 094B     		ldr	r3, .L10
 192 0006 1B78     		ldrb	r3, [r3]
 193 0008 DBB2     		uxtb	r3, r3
 194 000a 03F01003 		and	r3, r3, #16
 195 000e 002B     		cmp	r3, #0
 196 0010 03D0     		beq	.L8
 125:.\Generated_Source\PSoC5/Filter_PM.c ****     {
 126:.\Generated_Source\PSoC5/Filter_PM.c ****         /* Component is enabled */
 127:.\Generated_Source\PSoC5/Filter_PM.c ****         Filter_backup.enableState = Filter_ENABLED;
 197              		.loc 1 127 0
 198 0012 074B     		ldr	r3, .L10+4
 199 0014 0122     		movs	r2, #1
 200 0016 1A70     		strb	r2, [r3]
 201 0018 02E0     		b	.L9
 202              	.L8:
 128:.\Generated_Source\PSoC5/Filter_PM.c ****     }
 129:.\Generated_Source\PSoC5/Filter_PM.c ****     else
 130:.\Generated_Source\PSoC5/Filter_PM.c ****     {
 131:.\Generated_Source\PSoC5/Filter_PM.c ****         /* Component is disabled */
 132:.\Generated_Source\PSoC5/Filter_PM.c ****         Filter_backup.enableState = Filter_DISABLED;
 203              		.loc 1 132 0
 204 001a 054B     		ldr	r3, .L10+4
 205 001c 0022     		movs	r2, #0
 206 001e 1A70     		strb	r2, [r3]
ARM GAS  C:\Users\SCOTTC~1\AppData\Local\Temp\ccGNVx2L.s 			page 7


 207              	.L9:
 133:.\Generated_Source\PSoC5/Filter_PM.c ****     }
 134:.\Generated_Source\PSoC5/Filter_PM.c **** 
 135:.\Generated_Source\PSoC5/Filter_PM.c ****     /* Save the configuration */
 136:.\Generated_Source\PSoC5/Filter_PM.c ****     Filter_SaveConfig();
 208              		.loc 1 136 0
 209 0020 FFF7FEFF 		bl	Filter_SaveConfig
 137:.\Generated_Source\PSoC5/Filter_PM.c ****     
 138:.\Generated_Source\PSoC5/Filter_PM.c ****     /* Stop the component */
 139:.\Generated_Source\PSoC5/Filter_PM.c ****     Filter_Stop();
 210              		.loc 1 139 0
 211 0024 FFF7FEFF 		bl	Filter_Stop
 140:.\Generated_Source\PSoC5/Filter_PM.c **** }
 212              		.loc 1 140 0
 213 0028 80BD     		pop	{r7, pc}
 214              	.L11:
 215 002a 00BF     		.align	2
 216              	.L10:
 217 002c A6430040 		.word	1073759142
 218 0030 00000000 		.word	Filter_backup
 219              		.cfi_endproc
 220              	.LFE2:
 221              		.size	Filter_Sleep, .-Filter_Sleep
 222              		.section	.text.Filter_Wakeup,"ax",%progbits
 223              		.align	2
 224              		.global	Filter_Wakeup
 225              		.thumb
 226              		.thumb_func
 227              		.type	Filter_Wakeup, %function
 228              	Filter_Wakeup:
 229              	.LFB3:
 141:.\Generated_Source\PSoC5/Filter_PM.c **** 
 142:.\Generated_Source\PSoC5/Filter_PM.c **** 
 143:.\Generated_Source\PSoC5/Filter_PM.c **** /*******************************************************************************
 144:.\Generated_Source\PSoC5/Filter_PM.c **** * Function Name: Filter_Wakeup
 145:.\Generated_Source\PSoC5/Filter_PM.c **** ********************************************************************************
 146:.\Generated_Source\PSoC5/Filter_PM.c **** *
 147:.\Generated_Source\PSoC5/Filter_PM.c **** * Summary:
 148:.\Generated_Source\PSoC5/Filter_PM.c **** *  Enables block's operation and restores its configuration. Should be called
 149:.\Generated_Source\PSoC5/Filter_PM.c **** *  just after awaking from sleep.
 150:.\Generated_Source\PSoC5/Filter_PM.c **** *  
 151:.\Generated_Source\PSoC5/Filter_PM.c **** * Parameters:  
 152:.\Generated_Source\PSoC5/Filter_PM.c **** *  void
 153:.\Generated_Source\PSoC5/Filter_PM.c **** *
 154:.\Generated_Source\PSoC5/Filter_PM.c **** * Return: 
 155:.\Generated_Source\PSoC5/Filter_PM.c **** *  void
 156:.\Generated_Source\PSoC5/Filter_PM.c **** *
 157:.\Generated_Source\PSoC5/Filter_PM.c **** * Global variables:
 158:.\Generated_Source\PSoC5/Filter_PM.c **** *  Filter_backup:  The structure field 'enableState' is used to 
 159:.\Generated_Source\PSoC5/Filter_PM.c **** *  restore the enable state of block after wakeup from sleep mode.
 160:.\Generated_Source\PSoC5/Filter_PM.c **** *
 161:.\Generated_Source\PSoC5/Filter_PM.c **** *******************************************************************************/
 162:.\Generated_Source\PSoC5/Filter_PM.c **** void Filter_Wakeup(void) 
 163:.\Generated_Source\PSoC5/Filter_PM.c **** {
 230              		.loc 1 163 0
 231              		.cfi_startproc
 232              		@ args = 0, pretend = 0, frame = 0
ARM GAS  C:\Users\SCOTTC~1\AppData\Local\Temp\ccGNVx2L.s 			page 8


 233              		@ frame_needed = 1, uses_anonymous_args = 0
 234 0000 80B5     		push	{r7, lr}
 235              		.cfi_def_cfa_offset 8
 236              		.cfi_offset 7, -8
 237              		.cfi_offset 14, -4
 238 0002 00AF     		add	r7, sp, #0
 239              		.cfi_def_cfa_register 7
 164:.\Generated_Source\PSoC5/Filter_PM.c ****     /* Restore the configuration */
 165:.\Generated_Source\PSoC5/Filter_PM.c ****     Filter_RestoreConfig();
 240              		.loc 1 165 0
 241 0004 FFF7FEFF 		bl	Filter_RestoreConfig
 166:.\Generated_Source\PSoC5/Filter_PM.c ****     
 167:.\Generated_Source\PSoC5/Filter_PM.c ****     /* Enable's the component operation */
 168:.\Generated_Source\PSoC5/Filter_PM.c ****     if(Filter_backup.enableState == Filter_ENABLED)
 242              		.loc 1 168 0
 243 0008 034B     		ldr	r3, .L14
 244 000a 1B78     		ldrb	r3, [r3]	@ zero_extendqisi2
 245 000c 012B     		cmp	r3, #1
 246 000e 01D1     		bne	.L12
 169:.\Generated_Source\PSoC5/Filter_PM.c ****     {
 170:.\Generated_Source\PSoC5/Filter_PM.c ****         Filter_Enable();
 247              		.loc 1 170 0
 248 0010 FFF7FEFF 		bl	Filter_Enable
 249              	.L12:
 171:.\Generated_Source\PSoC5/Filter_PM.c ****     } /* Do nothing if component was disable before */
 172:.\Generated_Source\PSoC5/Filter_PM.c **** }
 250              		.loc 1 172 0
 251 0014 80BD     		pop	{r7, pc}
 252              	.L15:
 253 0016 00BF     		.align	2
 254              	.L14:
 255 0018 00000000 		.word	Filter_backup
 256              		.cfi_endproc
 257              	.LFE3:
 258              		.size	Filter_Wakeup, .-Filter_Wakeup
 259              		.text
 260              	.Letext0:
 261              		.file 2 ".\\Generated_Source\\PSoC5\\cytypes.h"
 262              		.file 3 ".\\Generated_Source\\PSoC5\\Filter.H"