ARM GAS  C:\Users\SCOTTC~1\AppData\Local\Temp\ccomRHBi.s 			page 1


   1              		.syntax unified
   2              		.cpu cortex-m3
   3              		.fpu softvfp
   4              		.eabi_attribute 20, 1
   5              		.eabi_attribute 21, 1
   6              		.eabi_attribute 23, 3
   7              		.eabi_attribute 24, 1
   8              		.eabi_attribute 25, 1
   9              		.eabi_attribute 26, 1
  10              		.eabi_attribute 30, 6
  11              		.eabi_attribute 34, 1
  12              		.eabi_attribute 18, 4
  13              		.thumb
  14              		.file	"main.c"
  15              		.text
  16              	.Ltext0:
  17              		.cfi_sections	.debug_frame
  18              		.comm	DMA_1_Chan,1,1
  19              		.comm	DMA_1_TD,1,4
  20              		.comm	DMA_2_Chan,1,1
  21              		.comm	DMA_2_TD,1,4
  22              		.comm	ADC2Filter_DMA_Chan,1,1
  23              		.comm	ADC2Filter_DMA_TD,2,4
  24              		.comm	DMA_3_Chan,1,1
  25              		.comm	DMA_3_TD,1,4
  26              		.comm	DMA_4_Chan,1,1
  27              		.comm	DMA_4_TD,1,4
  28              		.comm	LPF_samples,1024,4
  29              		.comm	LPF_buffer,1024,4
  30              		.comm	Buffer_samples,1024,4
  31              		.comm	ADC_samples,1024,4
  32              		.comm	magoutput,512,4
  33              		.data
  34              		.align	2
  35              		.type	fftlength, %object
  36              		.size	fftlength, 4
  37              	fftlength:
  38 0000 80000000 		.word	128
  39              		.bss
  40              	isr_BC_flag:
  41 0000 00       		.space	1
  42              	isr_LPF_buffer_complete_flag:
  43 0001 00       		.space	1
  44              		.section	.text.Buffer_complete,"ax",%progbits
  45              		.align	2
  46              		.global	Buffer_complete
  47              		.thumb
  48              		.thumb_func
  49              		.type	Buffer_complete, %function
  50              	Buffer_complete:
  51              	.LFB118:
  52              		.file 1 ".\\main.c"
   1:.\main.c      **** /* ----------------------------------------------------------------------
   2:.\main.c      **** ** Include Files
   3:.\main.c      **** ** ------------------------------------------------------------------- */
   4:.\main.c      **** #include <project.h>
   5:.\main.c      **** #include "arm_math.h"
ARM GAS  C:\Users\SCOTTC~1\AppData\Local\Temp\ccomRHBi.s 			page 2


   6:.\main.c      **** #include "arm_const_structs.h"
   7:.\main.c      **** #include "math_helper.h"
   8:.\main.c      **** 
   9:.\main.c      **** 
  10:.\main.c      **** /* ----------------------------------------------------------------------
  11:.\main.c      ****  * DMA Definitions
  12:.\main.c      ****  * ------------------------------------------------------------------- */
  13:.\main.c      **** /*First buffer*/
  14:.\main.c      **** uint8 DMA_1_Chan;
  15:.\main.c      **** uint8 DMA_1_TD[1];
  16:.\main.c      **** 
  17:.\main.c      **** uint8 DMA_2_Chan;
  18:.\main.c      **** uint8 DMA_2_TD[1];
  19:.\main.c      **** 
  20:.\main.c      **** uint8 ADC2Filter_DMA_Chan;
  21:.\main.c      **** uint8 ADC2Filter_DMA_TD[2];
  22:.\main.c      **** 
  23:.\main.c      **** uint8 DMA_3_Chan;
  24:.\main.c      **** uint8 DMA_3_TD[1];
  25:.\main.c      **** 
  26:.\main.c      **** uint8 DMA_4_Chan;
  27:.\main.c      **** uint8 DMA_4_TD[1];
  28:.\main.c      **** 
  29:.\main.c      **** #define buffer_size 256
  30:.\main.c      **** /* Definitions */
  31:.\main.c      **** #define DMA_1_BYTES_PER_BURST 4
  32:.\main.c      **** #define DMA_1_REQUEST_PER_BURST 1
  33:.\main.c      **** #define DMA_1_SRC_BASE (CYDEV_PERIPH_BASE)
  34:.\main.c      **** #define DMA_1_DST_BASE (CYDEV_SRAM_BASE)
  35:.\main.c      **** #define buffersize buffer_size*DMA_1_BYTES_PER_BURST
  36:.\main.c      **** /*Second buffer*/
  37:.\main.c      **** 
  38:.\main.c      **** #define DMA_2_BYTES_PER_BURST 4
  39:.\main.c      **** #define DMA_2_REQUEST_PER_BURST 0
  40:.\main.c      **** #define DMA_2_SRC_BASE (CYDEV_SRAM_BASE)
  41:.\main.c      **** #define DMA_2_DST_BASE (CYDEV_SRAM_BASE)
  42:.\main.c      **** 
  43:.\main.c      **** #define ADC2Filter_DMA_BYTES_PER_BURST 4
  44:.\main.c      **** #define ADC2Filter_DMA_REQUEST_PER_BURST 1
  45:.\main.c      **** #define ADC2Filter_DMA_SRC_BASE (CYDEV_PERIPH_BASE)
  46:.\main.c      **** #define ADC2Filter_DMA_DST_BASE (CYDEV_PERIPH_BASE)
  47:.\main.c      **** 
  48:.\main.c      **** #define DMA_3_BYTES_PER_BURST 4
  49:.\main.c      **** #define DMA_3_REQUEST_PER_BURST 1
  50:.\main.c      **** #define DMA_3_SRC_BASE (CYDEV_PERIPH_BASE)
  51:.\main.c      **** #define DMA_3_DST_BASE (CYDEV_SRAM_BASE)
  52:.\main.c      **** 
  53:.\main.c      **** #define DMA_4_BYTES_PER_BURST 4
  54:.\main.c      **** #define DMA_4_REQUEST_PER_BURST 0
  55:.\main.c      **** #define DMA_4_SRC_BASE (CYDEV_SRAM_BASE)
  56:.\main.c      **** #define DMA_4_DST_BASE (CYDEV_SRAM_BASE)
  57:.\main.c      **** 
  58:.\main.c      **** /*global vairables*/
  59:.\main.c      **** 
  60:.\main.c      **** int32 LPF_samples[buffer_size];
  61:.\main.c      **** int32 LPF_buffer[buffer_size];
  62:.\main.c      **** int32 Buffer_samples[buffer_size];
ARM GAS  C:\Users\SCOTTC~1\AppData\Local\Temp\ccomRHBi.s 			page 3


  63:.\main.c      **** int32 ADC_samples[buffer_size];
  64:.\main.c      **** q31_t magoutput[buffer_size/2];
  65:.\main.c      **** static uint32 fftlength=buffer_size/2;
  66:.\main.c      **** 
  67:.\main.c      **** static volatile CYBIT isr_BC_flag = 0;
  68:.\main.c      **** static volatile CYBIT isr_LPF_buffer_complete_flag = 0;
  69:.\main.c      **** //MultAcc_1_ARRAY CYCODE accumulatee[windowsize];
  70:.\main.c      **** /*functions*/
  71:.\main.c      **** void Configure_DMA();
  72:.\main.c      **** //uint32 moving_average(uint32 *specflux);
  73:.\main.c      **** 
  74:.\main.c      **** /*ISR routine*/
  75:.\main.c      **** CY_ISR_PROTO(Buffer_complete);
  76:.\main.c      **** CY_ISR(Buffer_complete){
  53              		.loc 1 76 0
  54              		.cfi_startproc
  55              		@ args = 0, pretend = 0, frame = 0
  56              		@ frame_needed = 1, uses_anonymous_args = 0
  57 0000 80B5     		push	{r7, lr}
  58              		.cfi_def_cfa_offset 8
  59              		.cfi_offset 7, -8
  60              		.cfi_offset 14, -4
  61 0002 00AF     		add	r7, sp, #0
  62              		.cfi_def_cfa_register 7
  77:.\main.c      ****     isr_BC_flag=1;
  63              		.loc 1 77 0
  64 0004 044B     		ldr	r3, .L2
  65 0006 0122     		movs	r2, #1
  66 0008 1A70     		strb	r2, [r3]
  78:.\main.c      ****     CyDmaChDisable(DMA_2_Chan);
  67              		.loc 1 78 0
  68 000a 044B     		ldr	r3, .L2+4
  69 000c 1B78     		ldrb	r3, [r3]	@ zero_extendqisi2
  70 000e 1846     		mov	r0, r3
  71 0010 FFF7FEFF 		bl	CyDmaChDisable
  79:.\main.c      ****     
  80:.\main.c      **** }
  72              		.loc 1 80 0
  73 0014 80BD     		pop	{r7, pc}
  74              	.L3:
  75 0016 00BF     		.align	2
  76              	.L2:
  77 0018 00000000 		.word	isr_BC_flag
  78 001c 00000000 		.word	DMA_2_Chan
  79              		.cfi_endproc
  80              	.LFE118:
  81              		.size	Buffer_complete, .-Buffer_complete
  82              		.section	.text.LPF_buffer_complete,"ax",%progbits
  83              		.align	2
  84              		.global	LPF_buffer_complete
  85              		.thumb
  86              		.thumb_func
  87              		.type	LPF_buffer_complete, %function
  88              	LPF_buffer_complete:
  89              	.LFB119:
  81:.\main.c      **** CY_ISR_PROTO(LPF_buffer_complete);
  82:.\main.c      **** CY_ISR(LPF_buffer_complete){
ARM GAS  C:\Users\SCOTTC~1\AppData\Local\Temp\ccomRHBi.s 			page 4


  90              		.loc 1 82 0
  91              		.cfi_startproc
  92              		@ args = 0, pretend = 0, frame = 0
  93              		@ frame_needed = 1, uses_anonymous_args = 0
  94 0000 80B5     		push	{r7, lr}
  95              		.cfi_def_cfa_offset 8
  96              		.cfi_offset 7, -8
  97              		.cfi_offset 14, -4
  98 0002 00AF     		add	r7, sp, #0
  99              		.cfi_def_cfa_register 7
  83:.\main.c      ****     isr_LPF_buffer_complete_flag=1;
 100              		.loc 1 83 0
 101 0004 044B     		ldr	r3, .L5
 102 0006 0122     		movs	r2, #1
 103 0008 1A70     		strb	r2, [r3]
  84:.\main.c      ****     CyDmaChDisable(DMA_4_Chan);
 104              		.loc 1 84 0
 105 000a 044B     		ldr	r3, .L5+4
 106 000c 1B78     		ldrb	r3, [r3]	@ zero_extendqisi2
 107 000e 1846     		mov	r0, r3
 108 0010 FFF7FEFF 		bl	CyDmaChDisable
  85:.\main.c      **** }
 109              		.loc 1 85 0
 110 0014 80BD     		pop	{r7, pc}
 111              	.L6:
 112 0016 00BF     		.align	2
 113              	.L5:
 114 0018 01000000 		.word	isr_LPF_buffer_complete_flag
 115 001c 00000000 		.word	DMA_4_Chan
 116              		.cfi_endproc
 117              	.LFE119:
 118              		.size	LPF_buffer_complete, .-LPF_buffer_complete
 119              		.section	.text.main,"ax",%progbits
 120              		.align	2
 121              		.global	main
 122              		.thumb
 123              		.thumb_func
 124              		.type	main, %function
 125              	main:
 126              	.LFB120:
  86:.\main.c      **** 
  87:.\main.c      **** /*main*/
  88:.\main.c      **** void main(void)
  89:.\main.c      **** {   
 127              		.loc 1 89 0
 128              		.cfi_startproc
 129              		@ args = 0, pretend = 0, frame = 0
 130              		@ frame_needed = 1, uses_anonymous_args = 0
 131 0000 80B5     		push	{r7, lr}
 132              		.cfi_def_cfa_offset 8
 133              		.cfi_offset 7, -8
 134              		.cfi_offset 14, -4
 135 0002 00AF     		add	r7, sp, #0
 136              		.cfi_def_cfa_register 7
  90:.\main.c      ****     /*Preliminary parts not important*/  
  91:.\main.c      ****     LCD_Char_1_Start();
 137              		.loc 1 91 0
ARM GAS  C:\Users\SCOTTC~1\AppData\Local\Temp\ccomRHBi.s 			page 5


 138 0004 FFF7FEFF 		bl	LCD_Char_1_Start
  92:.\main.c      ****     ADC_DelSig_1_Start();
 139              		.loc 1 92 0
 140 0008 FFF7FEFF 		bl	ADC_DelSig_1_Start
  93:.\main.c      ****     ADC_DelSig_1_StartConvert();
 141              		.loc 1 93 0
 142 000c FFF7FEFF 		bl	ADC_DelSig_1_StartConvert
  94:.\main.c      **** 
  95:.\main.c      ****     Configure_DMA(); 
 143              		.loc 1 95 0
 144 0010 FFF7FEFF 		bl	Configure_DMA
  96:.\main.c      ****     isr_1_StartEx(Buffer_complete);
 145              		.loc 1 96 0
 146 0014 3048     		ldr	r0, .L10
 147 0016 FFF7FEFF 		bl	isr_1_StartEx
  97:.\main.c      ****     isr_2_StartEx(LPF_buffer_complete);
 148              		.loc 1 97 0
 149 001a 3048     		ldr	r0, .L10+4
 150 001c FFF7FEFF 		bl	isr_2_StartEx
  98:.\main.c      ****     
  99:.\main.c      ****     ADC_DelSig_1_SetCoherency(ADC_DelSig_1_COHER_HIGH);   
 151              		.loc 1 99 0
 152 0020 0320     		movs	r0, #3
 153 0022 FFF7FEFF 		bl	ADC_DelSig_1_SetCoherency
 100:.\main.c      ****     
 101:.\main.c      ****     Filter_SetDalign(Filter_STAGEA_DALIGN,Filter_DISABLED);
 154              		.loc 1 101 0
 155 0026 0120     		movs	r0, #1
 156 0028 0021     		movs	r1, #0
 157 002a FFF7FEFF 		bl	Filter_SetDalign
 102:.\main.c      ****     Filter_SetDalign(Filter_HOLDA_DALIGN,Filter_DISABLED);
 158              		.loc 1 102 0
 159 002e 0420     		movs	r0, #4
 160 0030 0021     		movs	r1, #0
 161 0032 FFF7FEFF 		bl	Filter_SetDalign
 103:.\main.c      ****     Filter_SetCoherency(Filter_STAGEA_COHER,Filter_KEY_HIGH);
 162              		.loc 1 103 0
 163 0036 0320     		movs	r0, #3
 164 0038 0221     		movs	r1, #2
 165 003a FFF7FEFF 		bl	Filter_SetCoherency
 104:.\main.c      ****     Filter_SetCoherency(Filter_HOLDA_COHER,Filter_KEY_HIGH);
 166              		.loc 1 104 0
 167 003e 3020     		movs	r0, #48
 168 0040 0221     		movs	r1, #2
 169 0042 FFF7FEFF 		bl	Filter_SetCoherency
 105:.\main.c      ****     Filter_SetCoherency(Filter_CHANNEL_A,Filter_KEY_HIGH);  
 170              		.loc 1 105 0
 171 0046 0020     		movs	r0, #0
 172 0048 0221     		movs	r1, #2
 173 004a FFF7FEFF 		bl	Filter_SetCoherency
 106:.\main.c      ****     
 107:.\main.c      ****     Filter_SetDalign(Filter_STAGEB_DALIGN,Filter_DISABLED);
 174              		.loc 1 107 0
 175 004e 0220     		movs	r0, #2
 176 0050 0021     		movs	r1, #0
 177 0052 FFF7FEFF 		bl	Filter_SetDalign
 108:.\main.c      ****     Filter_SetDalign(Filter_HOLDB_DALIGN,Filter_DISABLED);
ARM GAS  C:\Users\SCOTTC~1\AppData\Local\Temp\ccomRHBi.s 			page 6


 178              		.loc 1 108 0
 179 0056 0820     		movs	r0, #8
 180 0058 0021     		movs	r1, #0
 181 005a FFF7FEFF 		bl	Filter_SetDalign
 109:.\main.c      ****     Filter_SetCoherency(Filter_STAGEB_COHER,Filter_KEY_HIGH);
 182              		.loc 1 109 0
 183 005e 0C20     		movs	r0, #12
 184 0060 0221     		movs	r1, #2
 185 0062 FFF7FEFF 		bl	Filter_SetCoherency
 110:.\main.c      ****     Filter_SetCoherency(Filter_HOLDB_COHER,Filter_KEY_HIGH);
 186              		.loc 1 110 0
 187 0066 C020     		movs	r0, #192
 188 0068 0221     		movs	r1, #2
 189 006a FFF7FEFF 		bl	Filter_SetCoherency
 111:.\main.c      ****     Filter_SetCoherency(Filter_CHANNEL_B,Filter_KEY_HIGH);
 190              		.loc 1 111 0
 191 006e 0120     		movs	r0, #1
 192 0070 0221     		movs	r1, #2
 193 0072 FFF7FEFF 		bl	Filter_SetCoherency
 112:.\main.c      **** 
 113:.\main.c      ****     CyGlobalIntEnable;
 194              		.loc 1 113 0
 195              	@ 113 ".\main.c" 1
 196 0076 62B6     		CPSIE   i
 197              	@ 0 "" 2
 114:.\main.c      **** 
 115:.\main.c      ****     Filter_Start();
 198              		.loc 1 115 0
 199              		.thumb
 200 0078 FFF7FEFF 		bl	Filter_Start
 201              	.L9:
 116:.\main.c      **** 
 117:.\main.c      ****     /*Writes ADC values to ADC_samples array*/
 118:.\main.c      ****     while(1){
 119:.\main.c      ****     LCD_Char_1_Position(0u,0u);
 202              		.loc 1 119 0
 203 007c 0020     		movs	r0, #0
 204 007e 0021     		movs	r1, #0
 205 0080 FFF7FEFF 		bl	LCD_Char_1_Position
 120:.\main.c      ****     LCD_Char_1_PrintInt32(LPF_samples);
 206              		.loc 1 120 0
 207 0084 164B     		ldr	r3, .L10+8
 208 0086 1846     		mov	r0, r3
 209 0088 FFF7FEFF 		bl	LCD_Char_1_PrintInt32
 121:.\main.c      ****     if (isr_BC_flag==1){        
 210              		.loc 1 121 0
 211 008c 154B     		ldr	r3, .L10+12
 212 008e 1B78     		ldrb	r3, [r3]
 213 0090 DBB2     		uxtb	r3, r3
 214 0092 012B     		cmp	r3, #1
 215 0094 1ED1     		bne	.L8
 122:.\main.c      ****         arm_cfft_q31(&arm_cfft_sR_q15_len256, Buffer_samples, 0, 1); 
 216              		.loc 1 122 0
 217 0096 1448     		ldr	r0, .L10+16
 218 0098 1449     		ldr	r1, .L10+20
 219 009a 0022     		movs	r2, #0
 220 009c 0123     		movs	r3, #1
ARM GAS  C:\Users\SCOTTC~1\AppData\Local\Temp\ccomRHBi.s 			page 7


 221 009e FFF7FEFF 		bl	arm_cfft_q31
 123:.\main.c      ****         arm_cmplx_mag_q31(Buffer_samples, magoutput, fftlength);         
 222              		.loc 1 123 0
 223 00a2 134B     		ldr	r3, .L10+24
 224 00a4 1B68     		ldr	r3, [r3]
 225 00a6 1148     		ldr	r0, .L10+20
 226 00a8 1249     		ldr	r1, .L10+28
 227 00aa 1A46     		mov	r2, r3
 228 00ac FFF7FEFF 		bl	arm_cmplx_mag_q31
 124:.\main.c      ****         isr_BC_flag=0;
 229              		.loc 1 124 0
 230 00b0 0C4B     		ldr	r3, .L10+12
 231 00b2 0022     		movs	r2, #0
 232 00b4 1A70     		strb	r2, [r3]
 125:.\main.c      ****         isr_1_ClearPending();
 233              		.loc 1 125 0
 234 00b6 FFF7FEFF 		bl	isr_1_ClearPending
 126:.\main.c      ****         CyDmaChEnable(DMA_2_Chan, 1);
 235              		.loc 1 126 0
 236 00ba 0F4B     		ldr	r3, .L10+32
 237 00bc 1B78     		ldrb	r3, [r3]	@ zero_extendqisi2
 238 00be 1846     		mov	r0, r3
 239 00c0 0121     		movs	r1, #1
 240 00c2 FFF7FEFF 		bl	CyDmaChEnable
 127:.\main.c      ****         CyDmaChEnable(DMA_4_Chan, 1);
 241              		.loc 1 127 0
 242 00c6 0D4B     		ldr	r3, .L10+36
 243 00c8 1B78     		ldrb	r3, [r3]	@ zero_extendqisi2
 244 00ca 1846     		mov	r0, r3
 245 00cc 0121     		movs	r1, #1
 246 00ce FFF7FEFF 		bl	CyDmaChEnable
 128:.\main.c      ****     }
 129:.\main.c      **** }
 247              		.loc 1 129 0
 248 00d2 D3E7     		b	.L9
 249              	.L8:
 250 00d4 D2E7     		b	.L9
 251              	.L11:
 252 00d6 00BF     		.align	2
 253              	.L10:
 254 00d8 00000000 		.word	Buffer_complete
 255 00dc 00000000 		.word	LPF_buffer_complete
 256 00e0 00000000 		.word	LPF_samples
 257 00e4 00000000 		.word	isr_BC_flag
 258 00e8 00000000 		.word	arm_cfft_sR_q15_len256
 259 00ec 00000000 		.word	Buffer_samples
 260 00f0 00000000 		.word	fftlength
 261 00f4 00000000 		.word	magoutput
 262 00f8 00000000 		.word	DMA_2_Chan
 263 00fc 00000000 		.word	DMA_4_Chan
 264              		.cfi_endproc
 265              	.LFE120:
 266              		.size	main, .-main
 267              		.section	.text.Configure_DMA,"ax",%progbits
 268              		.align	2
 269              		.global	Configure_DMA
 270              		.thumb
ARM GAS  C:\Users\SCOTTC~1\AppData\Local\Temp\ccomRHBi.s 			page 8


 271              		.thumb_func
 272              		.type	Configure_DMA, %function
 273              	Configure_DMA:
 274              	.LFB121:
 130:.\main.c      **** }
 131:.\main.c      **** 
 132:.\main.c      **** void Configure_DMA(){
 275              		.loc 1 132 0
 276              		.cfi_startproc
 277              		@ args = 0, pretend = 0, frame = 0
 278              		@ frame_needed = 1, uses_anonymous_args = 0
 279 0000 80B5     		push	{r7, lr}
 280              		.cfi_def_cfa_offset 8
 281              		.cfi_offset 7, -8
 282              		.cfi_offset 14, -4
 283 0002 00AF     		add	r7, sp, #0
 284              		.cfi_def_cfa_register 7
 133:.\main.c      **** 
 134:.\main.c      **** ADC2Filter_DMA_Chan = ADC2Filter_DMA_DmaInitialize(ADC2Filter_DMA_BYTES_PER_BURST, ADC2Filter_DMA_R
 285              		.loc 1 134 0
 286 0004 0420     		movs	r0, #4
 287 0006 0121     		movs	r1, #1
 288 0008 4FF48042 		mov	r2, #16384
 289 000c 4FF48043 		mov	r3, #16384
 290 0010 FFF7FEFF 		bl	ADC2Filter_DMA_DmaInitialize
 291 0014 0346     		mov	r3, r0
 292 0016 1A46     		mov	r2, r3
 293 0018 8A4B     		ldr	r3, .L13
 294 001a 1A70     		strb	r2, [r3]
 135:.\main.c      ****     HI16(ADC2Filter_DMA_SRC_BASE), HI16(ADC2Filter_DMA_DST_BASE));
 136:.\main.c      **** ADC2Filter_DMA_TD[0] = CyDmaTdAllocate();
 295              		.loc 1 136 0
 296 001c FFF7FEFF 		bl	CyDmaTdAllocate
 297 0020 0346     		mov	r3, r0
 298 0022 1A46     		mov	r2, r3
 299 0024 884B     		ldr	r3, .L13+4
 300 0026 1A70     		strb	r2, [r3]
 137:.\main.c      **** ADC2Filter_DMA_TD[1] = CyDmaTdAllocate();
 301              		.loc 1 137 0
 302 0028 FFF7FEFF 		bl	CyDmaTdAllocate
 303 002c 0346     		mov	r3, r0
 304 002e 1A46     		mov	r2, r3
 305 0030 854B     		ldr	r3, .L13+4
 306 0032 5A70     		strb	r2, [r3, #1]
 138:.\main.c      **** CyDmaTdSetConfiguration(ADC2Filter_DMA_TD[0], 4, ADC2Filter_DMA_TD[1], TD_AUTO_EXEC_NEXT);
 307              		.loc 1 138 0
 308 0034 844B     		ldr	r3, .L13+4
 309 0036 1A78     		ldrb	r2, [r3]	@ zero_extendqisi2
 310 0038 834B     		ldr	r3, .L13+4
 311 003a 5B78     		ldrb	r3, [r3, #1]	@ zero_extendqisi2
 312 003c 1046     		mov	r0, r2
 313 003e 0421     		movs	r1, #4
 314 0040 1A46     		mov	r2, r3
 315 0042 2023     		movs	r3, #32
 316 0044 FFF7FEFF 		bl	CyDmaTdSetConfiguration
 139:.\main.c      **** CyDmaTdSetConfiguration(ADC2Filter_DMA_TD[1], 4, ADC2Filter_DMA_TD[0], ADC2Filter_DMA__TD_TERMOUT_E
 317              		.loc 1 139 0
ARM GAS  C:\Users\SCOTTC~1\AppData\Local\Temp\ccomRHBi.s 			page 9


 318 0048 7F4B     		ldr	r3, .L13+4
 319 004a 5A78     		ldrb	r2, [r3, #1]	@ zero_extendqisi2
 320 004c 7E4B     		ldr	r3, .L13+4
 321 004e 1B78     		ldrb	r3, [r3]	@ zero_extendqisi2
 322 0050 1046     		mov	r0, r2
 323 0052 0421     		movs	r1, #4
 324 0054 1A46     		mov	r2, r3
 325 0056 0423     		movs	r3, #4
 326 0058 FFF7FEFF 		bl	CyDmaTdSetConfiguration
 140:.\main.c      **** CyDmaTdSetAddress(ADC2Filter_DMA_TD[0], LO16((uint32)ADC_DelSig_1_DEC_SAMP_PTR), LO16((uint32)Filte
 327              		.loc 1 140 0
 328 005c 7A4B     		ldr	r3, .L13+4
 329 005e 1B78     		ldrb	r3, [r3]	@ zero_extendqisi2
 330 0060 1846     		mov	r0, r3
 331 0062 44F61061 		movw	r1, #19984
 332 0066 4CF2A072 		movw	r2, #51104
 333 006a FFF7FEFF 		bl	CyDmaTdSetAddress
 141:.\main.c      **** CyDmaTdSetAddress(ADC2Filter_DMA_TD[1], LO16((uint32)ADC_DelSig_1_DEC_SAMP_PTR), LO16((uint32)Filte
 334              		.loc 1 141 0
 335 006e 764B     		ldr	r3, .L13+4
 336 0070 5B78     		ldrb	r3, [r3, #1]	@ zero_extendqisi2
 337 0072 1846     		mov	r0, r3
 338 0074 44F61061 		movw	r1, #19984
 339 0078 4CF2A472 		movw	r2, #51108
 340 007c FFF7FEFF 		bl	CyDmaTdSetAddress
 142:.\main.c      **** CyDmaChSetInitialTd(ADC2Filter_DMA_Chan, ADC2Filter_DMA_TD[0]);
 341              		.loc 1 142 0
 342 0080 704B     		ldr	r3, .L13
 343 0082 1A78     		ldrb	r2, [r3]	@ zero_extendqisi2
 344 0084 704B     		ldr	r3, .L13+4
 345 0086 1B78     		ldrb	r3, [r3]	@ zero_extendqisi2
 346 0088 1046     		mov	r0, r2
 347 008a 1946     		mov	r1, r3
 348 008c FFF7FEFF 		bl	CyDmaChSetInitialTd
 143:.\main.c      **** CyDmaChEnable(ADC2Filter_DMA_Chan, 1);
 349              		.loc 1 143 0
 350 0090 6C4B     		ldr	r3, .L13
 351 0092 1B78     		ldrb	r3, [r3]	@ zero_extendqisi2
 352 0094 1846     		mov	r0, r3
 353 0096 0121     		movs	r1, #1
 354 0098 FFF7FEFF 		bl	CyDmaChEnable
 144:.\main.c      **** 
 145:.\main.c      **** 
 146:.\main.c      **** /*Second buffer*/
 147:.\main.c      **** DMA_2_Chan = DMA_2_DmaInitialize(DMA_2_BYTES_PER_BURST, DMA_2_REQUEST_PER_BURST, 
 355              		.loc 1 147 0
 356 009c 0420     		movs	r0, #4
 357 009e 0021     		movs	r1, #0
 358 00a0 41F6FF72 		movw	r2, #8191
 359 00a4 41F6FF73 		movw	r3, #8191
 360 00a8 FFF7FEFF 		bl	DMA_2_DmaInitialize
 361 00ac 0346     		mov	r3, r0
 362 00ae 1A46     		mov	r2, r3
 363 00b0 664B     		ldr	r3, .L13+8
 364 00b2 1A70     		strb	r2, [r3]
 148:.\main.c      ****     HI16(DMA_2_SRC_BASE), HI16(DMA_2_DST_BASE));
 149:.\main.c      **** DMA_2_TD[0] = CyDmaTdAllocate();
ARM GAS  C:\Users\SCOTTC~1\AppData\Local\Temp\ccomRHBi.s 			page 10


 365              		.loc 1 149 0
 366 00b4 FFF7FEFF 		bl	CyDmaTdAllocate
 367 00b8 0346     		mov	r3, r0
 368 00ba 1A46     		mov	r2, r3
 369 00bc 644B     		ldr	r3, .L13+12
 370 00be 1A70     		strb	r2, [r3]
 150:.\main.c      **** CyDmaTdSetConfiguration(DMA_2_TD[0], buffersize, CY_DMA_DISABLE_TD /* DMA_2_TD[0]*/, DMA_2__TD_TERM
 371              		.loc 1 150 0
 372 00c0 634B     		ldr	r3, .L13+12
 373 00c2 1B78     		ldrb	r3, [r3]	@ zero_extendqisi2
 374 00c4 1846     		mov	r0, r3
 375 00c6 4FF48061 		mov	r1, #1024
 376 00ca FE22     		movs	r2, #254
 377 00cc 0723     		movs	r3, #7
 378 00ce FFF7FEFF 		bl	CyDmaTdSetConfiguration
 151:.\main.c      **** CyDmaTdSetAddress(DMA_2_TD[0], LO16((uint32)ADC_samples), LO16((uint32)Buffer_samples));
 379              		.loc 1 151 0
 380 00d2 5F4B     		ldr	r3, .L13+12
 381 00d4 1978     		ldrb	r1, [r3]	@ zero_extendqisi2
 382 00d6 5F4B     		ldr	r3, .L13+16
 383 00d8 9AB2     		uxth	r2, r3
 384 00da 5F4B     		ldr	r3, .L13+20
 385 00dc 9BB2     		uxth	r3, r3
 386 00de 0846     		mov	r0, r1
 387 00e0 1146     		mov	r1, r2
 388 00e2 1A46     		mov	r2, r3
 389 00e4 FFF7FEFF 		bl	CyDmaTdSetAddress
 152:.\main.c      **** CyDmaChSetInitialTd(DMA_2_Chan, DMA_2_TD[0]);
 390              		.loc 1 152 0
 391 00e8 584B     		ldr	r3, .L13+8
 392 00ea 1A78     		ldrb	r2, [r3]	@ zero_extendqisi2
 393 00ec 584B     		ldr	r3, .L13+12
 394 00ee 1B78     		ldrb	r3, [r3]	@ zero_extendqisi2
 395 00f0 1046     		mov	r0, r2
 396 00f2 1946     		mov	r1, r3
 397 00f4 FFF7FEFF 		bl	CyDmaChSetInitialTd
 153:.\main.c      **** CyDmaChEnable(DMA_2_Chan, 1);
 398              		.loc 1 153 0
 399 00f8 544B     		ldr	r3, .L13+8
 400 00fa 1B78     		ldrb	r3, [r3]	@ zero_extendqisi2
 401 00fc 1846     		mov	r0, r3
 402 00fe 0121     		movs	r1, #1
 403 0100 FFF7FEFF 		bl	CyDmaChEnable
 154:.\main.c      **** 
 155:.\main.c      **** /*First buffer*/
 156:.\main.c      **** DMA_1_Chan = DMA_1_DmaInitialize(DMA_1_BYTES_PER_BURST, DMA_1_REQUEST_PER_BURST, 
 404              		.loc 1 156 0
 405 0104 0420     		movs	r0, #4
 406 0106 0121     		movs	r1, #1
 407 0108 4FF48042 		mov	r2, #16384
 408 010c 41F6FF73 		movw	r3, #8191
 409 0110 FFF7FEFF 		bl	DMA_1_DmaInitialize
 410 0114 0346     		mov	r3, r0
 411 0116 1A46     		mov	r2, r3
 412 0118 504B     		ldr	r3, .L13+24
 413 011a 1A70     		strb	r2, [r3]
 157:.\main.c      ****     HI16(DMA_1_SRC_BASE), HI16(DMA_1_DST_BASE));
ARM GAS  C:\Users\SCOTTC~1\AppData\Local\Temp\ccomRHBi.s 			page 11


 158:.\main.c      **** DMA_1_TD[0] = CyDmaTdAllocate();
 414              		.loc 1 158 0
 415 011c FFF7FEFF 		bl	CyDmaTdAllocate
 416 0120 0346     		mov	r3, r0
 417 0122 1A46     		mov	r2, r3
 418 0124 4E4B     		ldr	r3, .L13+28
 419 0126 1A70     		strb	r2, [r3]
 159:.\main.c      **** CyDmaTdSetConfiguration(DMA_1_TD[0], buffersize,/* CY_DMA_DISABLE_TD*/ DMA_1_TD[0], DMA_1__TD_TERMO
 420              		.loc 1 159 0
 421 0128 4D4B     		ldr	r3, .L13+28
 422 012a 1A78     		ldrb	r2, [r3]	@ zero_extendqisi2
 423 012c 4C4B     		ldr	r3, .L13+28
 424 012e 1B78     		ldrb	r3, [r3]	@ zero_extendqisi2
 425 0130 1046     		mov	r0, r2
 426 0132 4FF48061 		mov	r1, #1024
 427 0136 1A46     		mov	r2, r3
 428 0138 0623     		movs	r3, #6
 429 013a FFF7FEFF 		bl	CyDmaTdSetConfiguration
 160:.\main.c      **** CyDmaTdSetAddress(DMA_1_TD[0], LO16((uint32)Filter_HOLDA_PTR), LO16((uint32)ADC_samples));
 430              		.loc 1 160 0
 431 013e 484B     		ldr	r3, .L13+28
 432 0140 1A78     		ldrb	r2, [r3]	@ zero_extendqisi2
 433 0142 444B     		ldr	r3, .L13+16
 434 0144 9BB2     		uxth	r3, r3
 435 0146 1046     		mov	r0, r2
 436 0148 4CF2A871 		movw	r1, #51112
 437 014c 1A46     		mov	r2, r3
 438 014e FFF7FEFF 		bl	CyDmaTdSetAddress
 161:.\main.c      **** CyDmaChSetInitialTd(DMA_1_Chan, DMA_1_TD[0]);
 439              		.loc 1 161 0
 440 0152 424B     		ldr	r3, .L13+24
 441 0154 1A78     		ldrb	r2, [r3]	@ zero_extendqisi2
 442 0156 424B     		ldr	r3, .L13+28
 443 0158 1B78     		ldrb	r3, [r3]	@ zero_extendqisi2
 444 015a 1046     		mov	r0, r2
 445 015c 1946     		mov	r1, r3
 446 015e FFF7FEFF 		bl	CyDmaChSetInitialTd
 162:.\main.c      **** CyDmaChEnable(DMA_1_Chan, 1);
 447              		.loc 1 162 0
 448 0162 3E4B     		ldr	r3, .L13+24
 449 0164 1B78     		ldrb	r3, [r3]	@ zero_extendqisi2
 450 0166 1846     		mov	r0, r3
 451 0168 0121     		movs	r1, #1
 452 016a FFF7FEFF 		bl	CyDmaChEnable
 163:.\main.c      **** 
 164:.\main.c      **** DMA_3_Chan = DMA_3_DmaInitialize(DMA_3_BYTES_PER_BURST, DMA_3_REQUEST_PER_BURST, 
 453              		.loc 1 164 0
 454 016e 0420     		movs	r0, #4
 455 0170 0121     		movs	r1, #1
 456 0172 4FF48042 		mov	r2, #16384
 457 0176 41F6FF73 		movw	r3, #8191
 458 017a FFF7FEFF 		bl	DMA_3_DmaInitialize
 459 017e 0346     		mov	r3, r0
 460 0180 1A46     		mov	r2, r3
 461 0182 384B     		ldr	r3, .L13+32
 462 0184 1A70     		strb	r2, [r3]
 165:.\main.c      ****     HI16(DMA_3_SRC_BASE), HI16(DMA_3_DST_BASE));
ARM GAS  C:\Users\SCOTTC~1\AppData\Local\Temp\ccomRHBi.s 			page 12


 166:.\main.c      **** DMA_3_TD[0] = CyDmaTdAllocate();
 463              		.loc 1 166 0
 464 0186 FFF7FEFF 		bl	CyDmaTdAllocate
 465 018a 0346     		mov	r3, r0
 466 018c 1A46     		mov	r2, r3
 467 018e 364B     		ldr	r3, .L13+36
 468 0190 1A70     		strb	r2, [r3]
 167:.\main.c      **** CyDmaTdSetConfiguration(DMA_3_TD[0], buffersize, DMA_3_TD[0], DMA_3__TD_TERMOUT_EN | TD_INC_DST_ADR
 469              		.loc 1 167 0
 470 0192 354B     		ldr	r3, .L13+36
 471 0194 1A78     		ldrb	r2, [r3]	@ zero_extendqisi2
 472 0196 344B     		ldr	r3, .L13+36
 473 0198 1B78     		ldrb	r3, [r3]	@ zero_extendqisi2
 474 019a 1046     		mov	r0, r2
 475 019c 4FF48061 		mov	r1, #1024
 476 01a0 1A46     		mov	r2, r3
 477 01a2 0623     		movs	r3, #6
 478 01a4 FFF7FEFF 		bl	CyDmaTdSetConfiguration
 168:.\main.c      **** CyDmaTdSetAddress(DMA_3_TD[0], LO16((uint32)ADC_DelSig_1_DEC_SAMP_PTR), LO16((uint32)LPF_samples));
 479              		.loc 1 168 0
 480 01a8 2F4B     		ldr	r3, .L13+36
 481 01aa 1A78     		ldrb	r2, [r3]	@ zero_extendqisi2
 482 01ac 2F4B     		ldr	r3, .L13+40
 483 01ae 9BB2     		uxth	r3, r3
 484 01b0 1046     		mov	r0, r2
 485 01b2 44F61061 		movw	r1, #19984
 486 01b6 1A46     		mov	r2, r3
 487 01b8 FFF7FEFF 		bl	CyDmaTdSetAddress
 169:.\main.c      **** CyDmaChSetInitialTd(DMA_3_Chan, DMA_3_TD[0]);
 488              		.loc 1 169 0
 489 01bc 294B     		ldr	r3, .L13+32
 490 01be 1A78     		ldrb	r2, [r3]	@ zero_extendqisi2
 491 01c0 294B     		ldr	r3, .L13+36
 492 01c2 1B78     		ldrb	r3, [r3]	@ zero_extendqisi2
 493 01c4 1046     		mov	r0, r2
 494 01c6 1946     		mov	r1, r3
 495 01c8 FFF7FEFF 		bl	CyDmaChSetInitialTd
 170:.\main.c      **** CyDmaChEnable(DMA_3_Chan, 1);
 496              		.loc 1 170 0
 497 01cc 254B     		ldr	r3, .L13+32
 498 01ce 1B78     		ldrb	r3, [r3]	@ zero_extendqisi2
 499 01d0 1846     		mov	r0, r3
 500 01d2 0121     		movs	r1, #1
 501 01d4 FFF7FEFF 		bl	CyDmaChEnable
 171:.\main.c      **** 
 172:.\main.c      **** DMA_4_Chan = DMA_4_DmaInitialize(DMA_4_BYTES_PER_BURST, DMA_4_REQUEST_PER_BURST, 
 502              		.loc 1 172 0
 503 01d8 0420     		movs	r0, #4
 504 01da 0021     		movs	r1, #0
 505 01dc 41F6FF72 		movw	r2, #8191
 506 01e0 41F6FF73 		movw	r3, #8191
 507 01e4 FFF7FEFF 		bl	DMA_4_DmaInitialize
 508 01e8 0346     		mov	r3, r0
 509 01ea 1A46     		mov	r2, r3
 510 01ec 204B     		ldr	r3, .L13+44
 511 01ee 1A70     		strb	r2, [r3]
 173:.\main.c      ****     HI16(DMA_4_SRC_BASE), HI16(DMA_4_DST_BASE));
ARM GAS  C:\Users\SCOTTC~1\AppData\Local\Temp\ccomRHBi.s 			page 13


 174:.\main.c      **** DMA_4_TD[0] = CyDmaTdAllocate();
 512              		.loc 1 174 0
 513 01f0 FFF7FEFF 		bl	CyDmaTdAllocate
 514 01f4 0346     		mov	r3, r0
 515 01f6 1A46     		mov	r2, r3
 516 01f8 1E4B     		ldr	r3, .L13+48
 517 01fa 1A70     		strb	r2, [r3]
 175:.\main.c      **** CyDmaTdSetConfiguration(DMA_4_TD[0], buffersize, CY_DMA_DISABLE_TD /*DMA_4_TD[0]*/, DMA_4__TD_TERMO
 518              		.loc 1 175 0
 519 01fc 1D4B     		ldr	r3, .L13+48
 520 01fe 1B78     		ldrb	r3, [r3]	@ zero_extendqisi2
 521 0200 1846     		mov	r0, r3
 522 0202 4FF48061 		mov	r1, #1024
 523 0206 FE22     		movs	r2, #254
 524 0208 0723     		movs	r3, #7
 525 020a FFF7FEFF 		bl	CyDmaTdSetConfiguration
 176:.\main.c      **** CyDmaTdSetAddress(DMA_4_TD[0], LO16((uint32)LPF_samples), LO16((uint32)LPF_buffer));
 526              		.loc 1 176 0
 527 020e 194B     		ldr	r3, .L13+48
 528 0210 1978     		ldrb	r1, [r3]	@ zero_extendqisi2
 529 0212 164B     		ldr	r3, .L13+40
 530 0214 9AB2     		uxth	r2, r3
 531 0216 184B     		ldr	r3, .L13+52
 532 0218 9BB2     		uxth	r3, r3
 533 021a 0846     		mov	r0, r1
 534 021c 1146     		mov	r1, r2
 535 021e 1A46     		mov	r2, r3
 536 0220 FFF7FEFF 		bl	CyDmaTdSetAddress
 177:.\main.c      **** CyDmaChSetInitialTd(DMA_4_Chan, DMA_4_TD[0]);
 537              		.loc 1 177 0
 538 0224 124B     		ldr	r3, .L13+44
 539 0226 1A78     		ldrb	r2, [r3]	@ zero_extendqisi2
 540 0228 124B     		ldr	r3, .L13+48
 541 022a 1B78     		ldrb	r3, [r3]	@ zero_extendqisi2
 542 022c 1046     		mov	r0, r2
 543 022e 1946     		mov	r1, r3
 544 0230 FFF7FEFF 		bl	CyDmaChSetInitialTd
 178:.\main.c      **** CyDmaChEnable(DMA_4_Chan, 1);
 545              		.loc 1 178 0
 546 0234 0E4B     		ldr	r3, .L13+44
 547 0236 1B78     		ldrb	r3, [r3]	@ zero_extendqisi2
 548 0238 1846     		mov	r0, r3
 549 023a 0121     		movs	r1, #1
 550 023c FFF7FEFF 		bl	CyDmaChEnable
 179:.\main.c      **** 
 180:.\main.c      **** }...
 551              		.loc 1 180 0
 552 0240 80BD     		pop	{r7, pc}
 553              	.L14:
 554 0242 00BF     		.align	2
 555              	.L13:
 556 0244 00000000 		.word	ADC2Filter_DMA_Chan
 557 0248 00000000 		.word	ADC2Filter_DMA_TD
 558 024c 00000000 		.word	DMA_2_Chan
 559 0250 00000000 		.word	DMA_2_TD
 560 0254 00000000 		.word	ADC_samples
 561 0258 00000000 		.word	Buffer_samples
ARM GAS  C:\Users\SCOTTC~1\AppData\Local\Temp\ccomRHBi.s 			page 14


 562 025c 00000000 		.word	DMA_1_Chan
 563 0260 00000000 		.word	DMA_1_TD
 564 0264 00000000 		.word	DMA_3_Chan
 565 0268 00000000 		.word	DMA_3_TD
 566 026c 00000000 		.word	LPF_samples
 567 0270 00000000 		.word	DMA_4_Chan
 568 0274 00000000 		.word	DMA_4_TD
 569 0278 00000000 		.word	LPF_buffer
 570              		.cfi_endproc
 571              	.LFE121:
 572              		.size	Configure_DMA, .-Configure_DMA
 573              		.text
 574              	.Letext0:
 575              		.file 2 "c:\\program files\\cypress\\psoc creator\\3.2\\psoc creator\\import\\gnu\\arm\\4.8.4\\arm
 576              		.file 3 "c:\\program files\\cypress\\psoc creator\\3.2\\psoc creator\\import\\gnu\\arm\\4.8.4\\arm
 577              		.file 4 "Generated_Source\\PSoC5/cytypes.h"
 578              		.file 5 "Z:\\scottcarlson On My Mac\\Code\\repos\\LED_controller\\CMSISfile\\CMSIS\\Include/arm_ma
 579              		.file 6 "Z:\\scottcarlson On My Mac\\Code\\repos\\LED_controller\\CMSISfile\\CMSIS\\Include/core_c
 580              		.file 7 "Z:\\scottcarlson On My Mac\\Code\\repos\\LED_controller\\CMSISfile\\CMSIS\\Include/arm_co