ARM GAS  C:\Users\SCOTTC~1\AppData\Local\Temp\ccxvbY1Y.s 			page 1


   1              		.syntax unified
   2              		.cpu cortex-m3
   3              		.fpu softvfp
   4              		.eabi_attribute 20, 1
   5              		.eabi_attribute 21, 1
   6              		.eabi_attribute 23, 3
   7              		.eabi_attribute 24, 1
   8              		.eabi_attribute 25, 1
   9              		.eabi_attribute 26, 1
  10              		.eabi_attribute 30, 6
  11              		.eabi_attribute 34, 1
  12              		.eabi_attribute 18, 4
  13              		.thumb
  14              		.file	"math_helper.c"
  15              		.text
  16              	.Ltext0:
  17              		.cfi_sections	.debug_frame
  18              		.global	__aeabi_fmul
  19              		.global	__aeabi_fadd
  20              		.global	__aeabi_fsub
  21              		.global	__aeabi_fdiv
  22              		.global	__aeabi_f2d
  23              		.global	__aeabi_dmul
  24              		.global	__aeabi_d2f
  25              		.section	.text.arm_snr_f32,"ax",%progbits
  26              		.align	2
  27              		.global	arm_snr_f32
  28              		.thumb
  29              		.thumb_func
  30              		.type	arm_snr_f32, %function
  31              	arm_snr_f32:
  32              	.LFB118:
  33              		.file 1 ".\\math_helper.c"
   1:.\math_helper.c **** /* ----------------------------------------------------------------------   
   2:.\math_helper.c **** * Copyright (C) 2010-2012 ARM Limited. All rights reserved.   
   3:.\math_helper.c **** *   
   4:.\math_helper.c **** * $Date:        17. January 2013  
   5:.\math_helper.c **** * $Revision: 	V1.4.0    
   6:.\math_helper.c **** *  
   7:.\math_helper.c **** * Project: 	    CMSIS DSP Library 
   8:.\math_helper.c **** *
   9:.\math_helper.c **** * Title:	    math_helper.c
  10:.\math_helper.c **** *
  11:.\math_helper.c **** * Description:	Definition of all helper functions required.  
  12:.\math_helper.c **** *  
  13:.\math_helper.c **** * Target Processor: Cortex-M4/Cortex-M3
  14:.\math_helper.c **** *  
  15:.\math_helper.c **** * Redistribution and use in source and binary forms, with or without 
  16:.\math_helper.c **** * modification, are permitted provided that the following conditions
  17:.\math_helper.c **** * are met:
  18:.\math_helper.c **** *   - Redistributions of source code must retain the above copyright
  19:.\math_helper.c **** *     notice, this list of conditions and the following disclaimer.
  20:.\math_helper.c **** *   - Redistributions in binary form must reproduce the above copyright
  21:.\math_helper.c **** *     notice, this list of conditions and the following disclaimer in
  22:.\math_helper.c **** *     the documentation and/or other materials provided with the 
  23:.\math_helper.c **** *     distribution.
  24:.\math_helper.c **** *   - Neither the name of ARM LIMITED nor the names of its contributors
ARM GAS  C:\Users\SCOTTC~1\AppData\Local\Temp\ccxvbY1Y.s 			page 2


  25:.\math_helper.c **** *     may be used to endorse or promote products derived from this
  26:.\math_helper.c **** *     software without specific prior written permission.
  27:.\math_helper.c **** *
  28:.\math_helper.c **** * THIS SOFTWARE IS PROVIDED BY THE COPYRIGHT HOLDERS AND CONTRIBUTORS
  29:.\math_helper.c **** * "AS IS" AND ANY EXPRESS OR IMPLIED WARRANTIES, INCLUDING, BUT NOT
  30:.\math_helper.c **** * LIMITED TO, THE IMPLIED WARRANTIES OF MERCHANTABILITY AND FITNESS
  31:.\math_helper.c **** * FOR A PARTICULAR PURPOSE ARE DISCLAIMED. IN NO EVENT SHALL THE 
  32:.\math_helper.c **** * COPYRIGHT OWNER OR CONTRIBUTORS BE LIABLE FOR ANY DIRECT, INDIRECT,
  33:.\math_helper.c **** * INCIDENTAL, SPECIAL, EXEMPLARY, OR CONSEQUENTIAL DAMAGES (INCLUDING,
  34:.\math_helper.c **** * BUT NOT LIMITED TO, PROCUREMENT OF SUBSTITUTE GOODS OR SERVICES;
  35:.\math_helper.c **** * LOSS OF USE, DATA, OR PROFITS; OR BUSINESS INTERRUPTION) HOWEVER
  36:.\math_helper.c **** * CAUSED AND ON ANY THEORY OF LIABILITY, WHETHER IN CONTRACT, STRICT
  37:.\math_helper.c **** * LIABILITY, OR TORT (INCLUDING NEGLIGENCE OR OTHERWISE) ARISING IN
  38:.\math_helper.c **** * ANY WAY OUT OF THE USE OF THIS SOFTWARE, EVEN IF ADVISED OF THE
  39:.\math_helper.c **** * POSSIBILITY OF SUCH DAMAGE.  
  40:.\math_helper.c **** * -------------------------------------------------------------------- */
  41:.\math_helper.c **** 
  42:.\math_helper.c **** /* ----------------------------------------------------------------------
  43:.\math_helper.c **** *		Include standard header files  
  44:.\math_helper.c **** * -------------------------------------------------------------------- */
  45:.\math_helper.c **** #include<math.h>
  46:.\math_helper.c **** 
  47:.\math_helper.c **** /* ----------------------------------------------------------------------
  48:.\math_helper.c **** *		Include project header files  
  49:.\math_helper.c **** * -------------------------------------------------------------------- */
  50:.\math_helper.c **** #include "math_helper.h"
  51:.\math_helper.c **** 
  52:.\math_helper.c **** /** 
  53:.\math_helper.c ****  * @brief  Caluclation of SNR
  54:.\math_helper.c ****  * @param  float* 	Pointer to the reference buffer
  55:.\math_helper.c ****  * @param  float*	Pointer to the test buffer
  56:.\math_helper.c ****  * @param  uint32_t	total number of samples
  57:.\math_helper.c ****  * @return float	SNR
  58:.\math_helper.c ****  * The function Caluclates signal to noise ratio for the reference output 
  59:.\math_helper.c ****  * and test output 
  60:.\math_helper.c ****  */
  61:.\math_helper.c **** 
  62:.\math_helper.c **** float arm_snr_f32(float *pRef, float *pTest, uint32_t buffSize)
  63:.\math_helper.c **** {
  34              		.loc 1 63 0
  35              		.cfi_startproc
  36              		@ args = 0, pretend = 0, frame = 40
  37              		@ frame_needed = 1, uses_anonymous_args = 0
  38 0000 90B5     		push	{r4, r7, lr}
  39              		.cfi_def_cfa_offset 12
  40              		.cfi_offset 4, -12
  41              		.cfi_offset 7, -8
  42              		.cfi_offset 14, -4
  43 0002 8BB0     		sub	sp, sp, #44
  44              		.cfi_def_cfa_offset 56
  45 0004 00AF     		add	r7, sp, #0
  46              		.cfi_def_cfa_register 7
  47 0006 F860     		str	r0, [r7, #12]
  48 0008 B960     		str	r1, [r7, #8]
  49 000a 7A60     		str	r2, [r7, #4]
  64:.\math_helper.c ****   float EnergySignal = 0.0, EnergyError = 0.0;
  50              		.loc 1 64 0
ARM GAS  C:\Users\SCOTTC~1\AppData\Local\Temp\ccxvbY1Y.s 			page 3


  51 000c 4FF00003 		mov	r3, #0
  52 0010 7B62     		str	r3, [r7, #36]	@ float
  53 0012 4FF00003 		mov	r3, #0
  54 0016 3B61     		str	r3, [r7, #16]	@ float
  65:.\math_helper.c ****   uint32_t i;
  66:.\math_helper.c ****   float SNR;
  67:.\math_helper.c ****   int temp;
  68:.\math_helper.c ****   int *test;
  69:.\math_helper.c **** 
  70:.\math_helper.c ****   for (i = 0; i < buffSize; i++)
  55              		.loc 1 70 0
  56 0018 0023     		movs	r3, #0
  57 001a 3B62     		str	r3, [r7, #32]
  58 001c 61E0     		b	.L2
  59              	.L6:
  71:.\math_helper.c ****     {
  72:.\math_helper.c ****  	  /* Checking for a NAN value in pRef array */
  73:.\math_helper.c **** 	  test =   (int *)(&pRef[i]);
  60              		.loc 1 73 0
  61 001e 3B6A     		ldr	r3, [r7, #32]
  62 0020 9B00     		lsls	r3, r3, #2
  63 0022 FA68     		ldr	r2, [r7, #12]
  64 0024 1344     		add	r3, r3, r2
  65 0026 FB61     		str	r3, [r7, #28]
  74:.\math_helper.c ****       temp =  *test;
  66              		.loc 1 74 0
  67 0028 FB69     		ldr	r3, [r7, #28]
  68 002a 1B68     		ldr	r3, [r3]
  69 002c BB61     		str	r3, [r7, #24]
  75:.\math_helper.c **** 
  76:.\math_helper.c **** 	  if(temp == 0x7FC00000)
  70              		.loc 1 76 0
  71 002e BA69     		ldr	r2, [r7, #24]
  72 0030 474B     		ldr	r3, .L9
  73 0032 9A42     		cmp	r2, r3
  74 0034 02D1     		bne	.L3
  77:.\math_helper.c **** 	  {
  78:.\math_helper.c **** 	  		return(0);
  75              		.loc 1 78 0
  76 0036 4FF00003 		mov	r3, #0
  77 003a 84E0     		b	.L8
  78              	.L3:
  79:.\math_helper.c **** 	  }
  80:.\math_helper.c **** 
  81:.\math_helper.c **** 	  /* Checking for a NAN value in pTest array */
  82:.\math_helper.c **** 	  test =   (int *)(&pTest[i]);
  79              		.loc 1 82 0
  80 003c 3B6A     		ldr	r3, [r7, #32]
  81 003e 9B00     		lsls	r3, r3, #2
  82 0040 BA68     		ldr	r2, [r7, #8]
  83 0042 1344     		add	r3, r3, r2
  84 0044 FB61     		str	r3, [r7, #28]
  83:.\math_helper.c ****       temp =  *test;
  85              		.loc 1 83 0
  86 0046 FB69     		ldr	r3, [r7, #28]
  87 0048 1B68     		ldr	r3, [r3]
  88 004a BB61     		str	r3, [r7, #24]
ARM GAS  C:\Users\SCOTTC~1\AppData\Local\Temp\ccxvbY1Y.s 			page 4


  84:.\math_helper.c **** 
  85:.\math_helper.c **** 	  if(temp == 0x7FC00000)
  89              		.loc 1 85 0
  90 004c BA69     		ldr	r2, [r7, #24]
  91 004e 404B     		ldr	r3, .L9
  92 0050 9A42     		cmp	r2, r3
  93 0052 02D1     		bne	.L5
  86:.\math_helper.c **** 	  {
  87:.\math_helper.c **** 	  		return(0);
  94              		.loc 1 87 0
  95 0054 4FF00003 		mov	r3, #0
  96 0058 75E0     		b	.L8
  97              	.L5:
  88:.\math_helper.c **** 	  }
  89:.\math_helper.c ****       EnergySignal += pRef[i] * pRef[i];
  98              		.loc 1 89 0
  99 005a 3B6A     		ldr	r3, [r7, #32]
 100 005c 9B00     		lsls	r3, r3, #2
 101 005e FA68     		ldr	r2, [r7, #12]
 102 0060 1344     		add	r3, r3, r2
 103 0062 1A68     		ldr	r2, [r3]	@ float
 104 0064 3B6A     		ldr	r3, [r7, #32]
 105 0066 9B00     		lsls	r3, r3, #2
 106 0068 F968     		ldr	r1, [r7, #12]
 107 006a 0B44     		add	r3, r3, r1
 108 006c 1B68     		ldr	r3, [r3]	@ float
 109 006e 1046     		mov	r0, r2
 110 0070 1946     		mov	r1, r3
 111 0072 FFF7FEFF 		bl	__aeabi_fmul
 112 0076 0346     		mov	r3, r0
 113 0078 786A     		ldr	r0, [r7, #36]	@ float
 114 007a 1946     		mov	r1, r3
 115 007c FFF7FEFF 		bl	__aeabi_fadd
 116 0080 0346     		mov	r3, r0
 117 0082 7B62     		str	r3, [r7, #36]	@ float
  90:.\math_helper.c ****       EnergyError += (pRef[i] - pTest[i]) * (pRef[i] - pTest[i]); 
 118              		.loc 1 90 0
 119 0084 3B6A     		ldr	r3, [r7, #32]
 120 0086 9B00     		lsls	r3, r3, #2
 121 0088 FA68     		ldr	r2, [r7, #12]
 122 008a 1344     		add	r3, r3, r2
 123 008c 1A68     		ldr	r2, [r3]	@ float
 124 008e 3B6A     		ldr	r3, [r7, #32]
 125 0090 9B00     		lsls	r3, r3, #2
 126 0092 B968     		ldr	r1, [r7, #8]
 127 0094 0B44     		add	r3, r3, r1
 128 0096 1B68     		ldr	r3, [r3]	@ float
 129 0098 1046     		mov	r0, r2
 130 009a 1946     		mov	r1, r3
 131 009c FFF7FEFF 		bl	__aeabi_fsub
 132 00a0 0346     		mov	r3, r0
 133 00a2 1C46     		mov	r4, r3
 134 00a4 3B6A     		ldr	r3, [r7, #32]
 135 00a6 9B00     		lsls	r3, r3, #2
 136 00a8 FA68     		ldr	r2, [r7, #12]
 137 00aa 1344     		add	r3, r3, r2
 138 00ac 1A68     		ldr	r2, [r3]	@ float
ARM GAS  C:\Users\SCOTTC~1\AppData\Local\Temp\ccxvbY1Y.s 			page 5


 139 00ae 3B6A     		ldr	r3, [r7, #32]
 140 00b0 9B00     		lsls	r3, r3, #2
 141 00b2 B968     		ldr	r1, [r7, #8]
 142 00b4 0B44     		add	r3, r3, r1
 143 00b6 1B68     		ldr	r3, [r3]	@ float
 144 00b8 1046     		mov	r0, r2
 145 00ba 1946     		mov	r1, r3
 146 00bc FFF7FEFF 		bl	__aeabi_fsub
 147 00c0 0346     		mov	r3, r0
 148 00c2 2046     		mov	r0, r4
 149 00c4 1946     		mov	r1, r3
 150 00c6 FFF7FEFF 		bl	__aeabi_fmul
 151 00ca 0346     		mov	r3, r0
 152 00cc 1A46     		mov	r2, r3
 153 00ce 3B69     		ldr	r3, [r7, #16]	@ float
 154 00d0 1046     		mov	r0, r2
 155 00d2 1946     		mov	r1, r3
 156 00d4 FFF7FEFF 		bl	__aeabi_fadd
 157 00d8 0346     		mov	r3, r0
 158 00da 3B61     		str	r3, [r7, #16]	@ float
  70:.\math_helper.c ****   for (i = 0; i < buffSize; i++)
 159              		.loc 1 70 0
 160 00dc 3B6A     		ldr	r3, [r7, #32]
 161 00de 0133     		adds	r3, r3, #1
 162 00e0 3B62     		str	r3, [r7, #32]
 163              	.L2:
  70:.\math_helper.c ****   for (i = 0; i < buffSize; i++)
 164              		.loc 1 70 0 is_stmt 0 discriminator 1
 165 00e2 3A6A     		ldr	r2, [r7, #32]
 166 00e4 7B68     		ldr	r3, [r7, #4]
 167 00e6 9A42     		cmp	r2, r3
 168 00e8 99D3     		bcc	.L6
  91:.\math_helper.c ****     }
  92:.\math_helper.c **** 
  93:.\math_helper.c **** 	/* Checking for a NAN value in EnergyError */
  94:.\math_helper.c **** 	test =   (int *)(&EnergyError);
 169              		.loc 1 94 0 is_stmt 1
 170 00ea 07F11003 		add	r3, r7, #16
 171 00ee FB61     		str	r3, [r7, #28]
  95:.\math_helper.c ****     temp =  *test;
 172              		.loc 1 95 0
 173 00f0 FB69     		ldr	r3, [r7, #28]
 174 00f2 1B68     		ldr	r3, [r3]
 175 00f4 BB61     		str	r3, [r7, #24]
  96:.\math_helper.c **** 
  97:.\math_helper.c ****     if(temp == 0x7FC00000)
 176              		.loc 1 97 0
 177 00f6 BA69     		ldr	r2, [r7, #24]
 178 00f8 154B     		ldr	r3, .L9
 179 00fa 9A42     		cmp	r2, r3
 180 00fc 02D1     		bne	.L7
  98:.\math_helper.c ****     {
  99:.\math_helper.c ****   		return(0);
 181              		.loc 1 99 0
 182 00fe 4FF00003 		mov	r3, #0
 183 0102 20E0     		b	.L8
 184              	.L7:
ARM GAS  C:\Users\SCOTTC~1\AppData\Local\Temp\ccxvbY1Y.s 			page 6


 100:.\math_helper.c ****     }
 101:.\math_helper.c **** 	
 102:.\math_helper.c **** 
 103:.\math_helper.c ****   SNR = 10 * log10 (EnergySignal / EnergyError);
 185              		.loc 1 103 0
 186 0104 3B69     		ldr	r3, [r7, #16]	@ float
 187 0106 786A     		ldr	r0, [r7, #36]	@ float
 188 0108 1946     		mov	r1, r3
 189 010a FFF7FEFF 		bl	__aeabi_fdiv
 190 010e 0346     		mov	r3, r0
 191 0110 1846     		mov	r0, r3
 192 0112 FFF7FEFF 		bl	__aeabi_f2d
 193 0116 0246     		mov	r2, r0
 194 0118 0B46     		mov	r3, r1
 195 011a 1046     		mov	r0, r2
 196 011c 1946     		mov	r1, r3
 197 011e FFF7FEFF 		bl	log10
 198 0122 0246     		mov	r2, r0
 199 0124 0B46     		mov	r3, r1
 200 0126 1046     		mov	r0, r2
 201 0128 1946     		mov	r1, r3
 202 012a 4FF00002 		mov	r2, #0
 203 012e 094B     		ldr	r3, .L9+4
 204 0130 FFF7FEFF 		bl	__aeabi_dmul
 205 0134 0246     		mov	r2, r0
 206 0136 0B46     		mov	r3, r1
 207 0138 1046     		mov	r0, r2
 208 013a 1946     		mov	r1, r3
 209 013c FFF7FEFF 		bl	__aeabi_d2f
 210 0140 0346     		mov	r3, r0
 211 0142 7B61     		str	r3, [r7, #20]	@ float
 104:.\math_helper.c **** 
 105:.\math_helper.c ****   return (SNR);
 212              		.loc 1 105 0
 213 0144 7B69     		ldr	r3, [r7, #20]	@ float
 214              	.L8:
 106:.\math_helper.c **** 
 107:.\math_helper.c **** }
 215              		.loc 1 107 0
 216 0146 1846     		mov	r0, r3
 217 0148 2C37     		adds	r7, r7, #44
 218 014a BD46     		mov	sp, r7
 219              		@ sp needed
 220 014c 90BD     		pop	{r4, r7, pc}
 221              	.L10:
 222 014e 00BF     		.align	2
 223              	.L9:
 224 0150 0000C07F 		.word	2143289344
 225 0154 00002440 		.word	1076101120
 226              		.cfi_endproc
 227              	.LFE118:
 228              		.size	arm_snr_f32, .-arm_snr_f32
 229              		.section	.text.arm_provide_guard_bits_q15,"ax",%progbits
 230              		.align	2
 231              		.global	arm_provide_guard_bits_q15
 232              		.thumb
 233              		.thumb_func
ARM GAS  C:\Users\SCOTTC~1\AppData\Local\Temp\ccxvbY1Y.s 			page 7


 234              		.type	arm_provide_guard_bits_q15, %function
 235              	arm_provide_guard_bits_q15:
 236              	.LFB119:
 108:.\math_helper.c **** 
 109:.\math_helper.c **** 
 110:.\math_helper.c **** /** 
 111:.\math_helper.c ****  * @brief  Provide guard bits for Input buffer
 112:.\math_helper.c ****  * @param  q15_t* 	    Pointer to input buffer
 113:.\math_helper.c ****  * @param  uint32_t 	blockSize
 114:.\math_helper.c ****  * @param  uint32_t 	guard_bits
 115:.\math_helper.c ****  * @return none
 116:.\math_helper.c ****  * The function Provides the guard bits for the buffer 
 117:.\math_helper.c ****  * to avoid overflow 
 118:.\math_helper.c ****  */
 119:.\math_helper.c **** 
 120:.\math_helper.c **** void arm_provide_guard_bits_q15 (q15_t * input_buf, uint32_t blockSize,
 121:.\math_helper.c ****                             uint32_t guard_bits)
 122:.\math_helper.c **** {
 237              		.loc 1 122 0
 238              		.cfi_startproc
 239              		@ args = 0, pretend = 0, frame = 24
 240              		@ frame_needed = 1, uses_anonymous_args = 0
 241              		@ link register save eliminated.
 242 0000 80B4     		push	{r7}
 243              		.cfi_def_cfa_offset 4
 244              		.cfi_offset 7, -4
 245 0002 87B0     		sub	sp, sp, #28
 246              		.cfi_def_cfa_offset 32
 247 0004 00AF     		add	r7, sp, #0
 248              		.cfi_def_cfa_register 7
 249 0006 F860     		str	r0, [r7, #12]
 250 0008 B960     		str	r1, [r7, #8]
 251 000a 7A60     		str	r2, [r7, #4]
 123:.\math_helper.c ****   uint32_t i;
 124:.\math_helper.c **** 
 125:.\math_helper.c ****   for (i = 0; i < blockSize; i++)
 252              		.loc 1 125 0
 253 000c 0023     		movs	r3, #0
 254 000e 7B61     		str	r3, [r7, #20]
 255 0010 11E0     		b	.L12
 256              	.L13:
 126:.\math_helper.c ****     {
 127:.\math_helper.c ****       input_buf[i] = input_buf[i] >> guard_bits;
 257              		.loc 1 127 0 discriminator 2
 258 0012 7B69     		ldr	r3, [r7, #20]
 259 0014 5B00     		lsls	r3, r3, #1
 260 0016 FA68     		ldr	r2, [r7, #12]
 261 0018 1344     		add	r3, r3, r2
 262 001a 7A69     		ldr	r2, [r7, #20]
 263 001c 5200     		lsls	r2, r2, #1
 264 001e F968     		ldr	r1, [r7, #12]
 265 0020 0A44     		add	r2, r2, r1
 266 0022 1288     		ldrh	r2, [r2]
 267 0024 11B2     		sxth	r1, r2
 268 0026 7A68     		ldr	r2, [r7, #4]
 269 0028 41FA02F2 		asr	r2, r1, r2
 270 002c 92B2     		uxth	r2, r2
ARM GAS  C:\Users\SCOTTC~1\AppData\Local\Temp\ccxvbY1Y.s 			page 8


 271 002e 1A80     		strh	r2, [r3]	@ movhi
 125:.\math_helper.c ****   for (i = 0; i < blockSize; i++)
 272              		.loc 1 125 0 discriminator 2
 273 0030 7B69     		ldr	r3, [r7, #20]
 274 0032 0133     		adds	r3, r3, #1
 275 0034 7B61     		str	r3, [r7, #20]
 276              	.L12:
 125:.\math_helper.c ****   for (i = 0; i < blockSize; i++)
 277              		.loc 1 125 0 is_stmt 0 discriminator 1
 278 0036 7A69     		ldr	r2, [r7, #20]
 279 0038 BB68     		ldr	r3, [r7, #8]
 280 003a 9A42     		cmp	r2, r3
 281 003c E9D3     		bcc	.L13
 128:.\math_helper.c ****     }
 129:.\math_helper.c **** }
 282              		.loc 1 129 0 is_stmt 1
 283 003e 1C37     		adds	r7, r7, #28
 284 0040 BD46     		mov	sp, r7
 285              		@ sp needed
 286 0042 5DF8047B 		ldr	r7, [sp], #4
 287 0046 7047     		bx	lr
 288              		.cfi_endproc
 289              	.LFE119:
 290              		.size	arm_provide_guard_bits_q15, .-arm_provide_guard_bits_q15
 291              		.global	__aeabi_f2iz
 292              		.global	__aeabi_i2d
 293              		.global	__aeabi_fcmpgt
 294              		.global	__aeabi_dadd
 295              		.global	__aeabi_d2iz
 296              		.global	__aeabi_fcmpeq
 297              		.section	.text.arm_float_to_q12_20,"ax",%progbits
 298              		.align	2
 299              		.global	arm_float_to_q12_20
 300              		.thumb
 301              		.thumb_func
 302              		.type	arm_float_to_q12_20, %function
 303              	arm_float_to_q12_20:
 304              	.LFB120:
 130:.\math_helper.c **** 
 131:.\math_helper.c **** /** 
 132:.\math_helper.c ****  * @brief  Converts float to fixed in q12.20 format
 133:.\math_helper.c ****  * @param  uint32_t 	number of samples in the buffer
 134:.\math_helper.c ****  * @return none
 135:.\math_helper.c ****  * The function converts floating point values to fixed point(q12.20) values 
 136:.\math_helper.c ****  */
 137:.\math_helper.c **** 
 138:.\math_helper.c **** void arm_float_to_q12_20(float *pIn, q31_t * pOut, uint32_t numSamples)
 139:.\math_helper.c **** {
 305              		.loc 1 139 0
 306              		.cfi_startproc
 307              		@ args = 0, pretend = 0, frame = 24
 308              		@ frame_needed = 1, uses_anonymous_args = 0
 309 0000 F0B5     		push	{r4, r5, r6, r7, lr}
 310              		.cfi_def_cfa_offset 20
 311              		.cfi_offset 4, -20
 312              		.cfi_offset 5, -16
 313              		.cfi_offset 6, -12
ARM GAS  C:\Users\SCOTTC~1\AppData\Local\Temp\ccxvbY1Y.s 			page 9


 314              		.cfi_offset 7, -8
 315              		.cfi_offset 14, -4
 316 0002 87B0     		sub	sp, sp, #28
 317              		.cfi_def_cfa_offset 48
 318 0004 00AF     		add	r7, sp, #0
 319              		.cfi_def_cfa_register 7
 320 0006 F860     		str	r0, [r7, #12]
 321 0008 B960     		str	r1, [r7, #8]
 322 000a 7A60     		str	r2, [r7, #4]
 140:.\math_helper.c ****   uint32_t i;
 141:.\math_helper.c **** 
 142:.\math_helper.c ****   for (i = 0; i < numSamples; i++)
 323              		.loc 1 142 0
 324 000c 0023     		movs	r3, #0
 325 000e 7B61     		str	r3, [r7, #20]
 326 0010 57E0     		b	.L15
 327              	.L21:
 143:.\math_helper.c ****     {
 144:.\math_helper.c **** 	  /* 1048576.0f corresponds to pow(2, 20) */
 145:.\math_helper.c ****       pOut[i] = (q31_t) (pIn[i] * 1048576.0f);
 328              		.loc 1 145 0
 329 0012 7B69     		ldr	r3, [r7, #20]
 330 0014 9B00     		lsls	r3, r3, #2
 331 0016 BA68     		ldr	r2, [r7, #8]
 332 0018 D418     		adds	r4, r2, r3
 333 001a 7B69     		ldr	r3, [r7, #20]
 334 001c 9B00     		lsls	r3, r3, #2
 335 001e FA68     		ldr	r2, [r7, #12]
 336 0020 1344     		add	r3, r3, r2
 337 0022 1B68     		ldr	r3, [r3]	@ float
 338 0024 1846     		mov	r0, r3
 339 0026 4FF09341 		mov	r1, #1233125376
 340 002a FFF7FEFF 		bl	__aeabi_fmul
 341 002e 0346     		mov	r3, r0
 342 0030 1846     		mov	r0, r3
 343 0032 FFF7FEFF 		bl	__aeabi_f2iz
 344 0036 0346     		mov	r3, r0
 345 0038 2360     		str	r3, [r4]
 146:.\math_helper.c **** 
 147:.\math_helper.c ****       pOut[i] += pIn[i] > 0 ? 0.5 : -0.5;
 346              		.loc 1 147 0
 347 003a 7B69     		ldr	r3, [r7, #20]
 348 003c 9B00     		lsls	r3, r3, #2
 349 003e BA68     		ldr	r2, [r7, #8]
 350 0040 D618     		adds	r6, r2, r3
 351 0042 7B69     		ldr	r3, [r7, #20]
 352 0044 9B00     		lsls	r3, r3, #2
 353 0046 BA68     		ldr	r2, [r7, #8]
 354 0048 1344     		add	r3, r3, r2
 355 004a 1B68     		ldr	r3, [r3]
 356 004c 1846     		mov	r0, r3
 357 004e FFF7FEFF 		bl	__aeabi_i2d
 358 0052 0446     		mov	r4, r0
 359 0054 0D46     		mov	r5, r1
 360 0056 7B69     		ldr	r3, [r7, #20]
 361 0058 9B00     		lsls	r3, r3, #2
 362 005a FA68     		ldr	r2, [r7, #12]
ARM GAS  C:\Users\SCOTTC~1\AppData\Local\Temp\ccxvbY1Y.s 			page 10


 363 005c 1344     		add	r3, r3, r2
 364 005e 1B68     		ldr	r3, [r3]	@ float
 365 0060 1846     		mov	r0, r3
 366 0062 4FF00001 		mov	r1, #0
 367 0066 FFF7FEFF 		bl	__aeabi_fcmpgt
 368 006a 0346     		mov	r3, r0
 369 006c 002B     		cmp	r3, #0
 370 006e 03D0     		beq	.L24
 371              		.loc 1 147 0 is_stmt 0 discriminator 1
 372 0070 4FF00002 		mov	r2, #0
 373 0074 164B     		ldr	r3, .L25
 374 0076 02E0     		b	.L18
 375              	.L24:
 376              		.loc 1 147 0 discriminator 2
 377 0078 4FF00002 		mov	r2, #0
 378 007c 154B     		ldr	r3, .L25+4
 379              	.L18:
 380              		.loc 1 147 0 discriminator 3
 381 007e 2046     		mov	r0, r4
 382 0080 2946     		mov	r1, r5
 383 0082 FFF7FEFF 		bl	__aeabi_dadd
 384 0086 0246     		mov	r2, r0
 385 0088 0B46     		mov	r3, r1
 386 008a 1046     		mov	r0, r2
 387 008c 1946     		mov	r1, r3
 388 008e FFF7FEFF 		bl	__aeabi_d2iz
 389 0092 0346     		mov	r3, r0
 390 0094 3360     		str	r3, [r6]
 148:.\math_helper.c **** 
 149:.\math_helper.c ****       if (pIn[i] == (float) 1.0)
 391              		.loc 1 149 0 is_stmt 1 discriminator 3
 392 0096 7B69     		ldr	r3, [r7, #20]
 393 0098 9B00     		lsls	r3, r3, #2
 394 009a FA68     		ldr	r2, [r7, #12]
 395 009c 1344     		add	r3, r3, r2
 396 009e 1B68     		ldr	r3, [r3]	@ float
 397 00a0 1846     		mov	r0, r3
 398 00a2 4FF07E51 		mov	r1, #1065353216
 399 00a6 FFF7FEFF 		bl	__aeabi_fcmpeq
 400 00aa 0346     		mov	r3, r0
 401 00ac 002B     		cmp	r3, #0
 402 00ae 05D0     		beq	.L19
 150:.\math_helper.c ****         {
 151:.\math_helper.c ****           pOut[i] = 0x000FFFFF;
 403              		.loc 1 151 0
 404 00b0 7B69     		ldr	r3, [r7, #20]
 405 00b2 9B00     		lsls	r3, r3, #2
 406 00b4 BA68     		ldr	r2, [r7, #8]
 407 00b6 1344     		add	r3, r3, r2
 408 00b8 074A     		ldr	r2, .L25+8
 409 00ba 1A60     		str	r2, [r3]
 410              	.L19:
 142:.\math_helper.c ****   for (i = 0; i < numSamples; i++)
 411              		.loc 1 142 0
 412 00bc 7B69     		ldr	r3, [r7, #20]
 413 00be 0133     		adds	r3, r3, #1
 414 00c0 7B61     		str	r3, [r7, #20]
ARM GAS  C:\Users\SCOTTC~1\AppData\Local\Temp\ccxvbY1Y.s 			page 11


 415              	.L15:
 142:.\math_helper.c ****   for (i = 0; i < numSamples; i++)
 416              		.loc 1 142 0 is_stmt 0 discriminator 1
 417 00c2 7A69     		ldr	r2, [r7, #20]
 418 00c4 7B68     		ldr	r3, [r7, #4]
 419 00c6 9A42     		cmp	r2, r3
 420 00c8 A3D3     		bcc	.L21
 152:.\math_helper.c ****         }
 153:.\math_helper.c ****     }
 154:.\math_helper.c **** }
 421              		.loc 1 154 0 is_stmt 1
 422 00ca 1C37     		adds	r7, r7, #28
 423 00cc BD46     		mov	sp, r7
 424              		@ sp needed
 425 00ce F0BD     		pop	{r4, r5, r6, r7, pc}
 426              	.L26:
 427              		.align	2
 428              	.L25:
 429 00d0 0000E03F 		.word	1071644672
 430 00d4 0000E0BF 		.word	-1075838976
 431 00d8 FFFF0F00 		.word	1048575
 432              		.cfi_endproc
 433              	.LFE120:
 434              		.size	arm_float_to_q12_20, .-arm_float_to_q12_20
 435              		.section	.text.arm_compare_fixed_q15,"ax",%progbits
 436              		.align	2
 437              		.global	arm_compare_fixed_q15
 438              		.thumb
 439              		.thumb_func
 440              		.type	arm_compare_fixed_q15, %function
 441              	arm_compare_fixed_q15:
 442              	.LFB121:
 155:.\math_helper.c **** 
 156:.\math_helper.c **** /** 
 157:.\math_helper.c ****  * @brief  Compare MATLAB Reference Output and ARM Test output
 158:.\math_helper.c ****  * @param  q15_t* 	Pointer to Ref buffer
 159:.\math_helper.c ****  * @param  q15_t* 	Pointer to Test buffer
 160:.\math_helper.c ****  * @param  uint32_t 	number of samples in the buffer
 161:.\math_helper.c ****  * @return none 
 162:.\math_helper.c ****  */
 163:.\math_helper.c **** 
 164:.\math_helper.c **** uint32_t arm_compare_fixed_q15(q15_t *pIn, q15_t * pOut, uint32_t numSamples)
 165:.\math_helper.c **** {
 443              		.loc 1 165 0
 444              		.cfi_startproc
 445              		@ args = 0, pretend = 0, frame = 32
 446              		@ frame_needed = 1, uses_anonymous_args = 0
 447              		@ link register save eliminated.
 448 0000 80B4     		push	{r7}
 449              		.cfi_def_cfa_offset 4
 450              		.cfi_offset 7, -4
 451 0002 89B0     		sub	sp, sp, #36
 452              		.cfi_def_cfa_offset 40
 453 0004 00AF     		add	r7, sp, #0
 454              		.cfi_def_cfa_register 7
 455 0006 F860     		str	r0, [r7, #12]
 456 0008 B960     		str	r1, [r7, #8]
ARM GAS  C:\Users\SCOTTC~1\AppData\Local\Temp\ccxvbY1Y.s 			page 12


 457 000a 7A60     		str	r2, [r7, #4]
 166:.\math_helper.c ****   uint32_t i; 
 167:.\math_helper.c ****   int32_t diff, diffCrnt = 0;
 458              		.loc 1 167 0
 459 000c 0023     		movs	r3, #0
 460 000e 7B61     		str	r3, [r7, #20]
 168:.\math_helper.c ****   uint32_t maxDiff = 0;
 461              		.loc 1 168 0
 462 0010 0023     		movs	r3, #0
 463 0012 BB61     		str	r3, [r7, #24]
 169:.\math_helper.c **** 
 170:.\math_helper.c ****   for (i = 0; i < numSamples; i++)
 464              		.loc 1 170 0
 465 0014 0023     		movs	r3, #0
 466 0016 FB61     		str	r3, [r7, #28]
 467 0018 1BE0     		b	.L28
 468              	.L30:
 171:.\math_helper.c ****   {
 172:.\math_helper.c ****   	diff = pIn[i] - pOut[i];
 469              		.loc 1 172 0
 470 001a FB69     		ldr	r3, [r7, #28]
 471 001c 5B00     		lsls	r3, r3, #1
 472 001e FA68     		ldr	r2, [r7, #12]
 473 0020 1344     		add	r3, r3, r2
 474 0022 1B88     		ldrh	r3, [r3]
 475 0024 1AB2     		sxth	r2, r3
 476 0026 FB69     		ldr	r3, [r7, #28]
 477 0028 5B00     		lsls	r3, r3, #1
 478 002a B968     		ldr	r1, [r7, #8]
 479 002c 0B44     		add	r3, r3, r1
 480 002e 1B88     		ldrh	r3, [r3]
 481 0030 1BB2     		sxth	r3, r3
 482 0032 D31A     		subs	r3, r2, r3
 483 0034 3B61     		str	r3, [r7, #16]
 173:.\math_helper.c ****   	diffCrnt = (diff > 0) ? diff : -diff;
 484              		.loc 1 173 0
 485 0036 3B69     		ldr	r3, [r7, #16]
 486 0038 002B     		cmp	r3, #0
 487 003a B8BF     		it	lt
 488 003c 5B42     		rsblt	r3, r3, #0
 489 003e 7B61     		str	r3, [r7, #20]
 174:.\math_helper.c **** 
 175:.\math_helper.c **** 	if(diffCrnt > maxDiff)
 490              		.loc 1 175 0
 491 0040 7A69     		ldr	r2, [r7, #20]
 492 0042 BB69     		ldr	r3, [r7, #24]
 493 0044 9A42     		cmp	r2, r3
 494 0046 01D9     		bls	.L29
 176:.\math_helper.c **** 	{
 177:.\math_helper.c **** 		maxDiff = diffCrnt;
 495              		.loc 1 177 0
 496 0048 7B69     		ldr	r3, [r7, #20]
 497 004a BB61     		str	r3, [r7, #24]
 498              	.L29:
 170:.\math_helper.c ****   for (i = 0; i < numSamples; i++)
 499              		.loc 1 170 0
 500 004c FB69     		ldr	r3, [r7, #28]
ARM GAS  C:\Users\SCOTTC~1\AppData\Local\Temp\ccxvbY1Y.s 			page 13


 501 004e 0133     		adds	r3, r3, #1
 502 0050 FB61     		str	r3, [r7, #28]
 503              	.L28:
 170:.\math_helper.c ****   for (i = 0; i < numSamples; i++)
 504              		.loc 1 170 0 is_stmt 0 discriminator 1
 505 0052 FA69     		ldr	r2, [r7, #28]
 506 0054 7B68     		ldr	r3, [r7, #4]
 507 0056 9A42     		cmp	r2, r3
 508 0058 DFD3     		bcc	.L30
 178:.\math_helper.c **** 	}	
 179:.\math_helper.c ****   }
 180:.\math_helper.c **** 
 181:.\math_helper.c ****   return(maxDiff);
 509              		.loc 1 181 0 is_stmt 1
 510 005a BB69     		ldr	r3, [r7, #24]
 182:.\math_helper.c **** }
 511              		.loc 1 182 0
 512 005c 1846     		mov	r0, r3
 513 005e 2437     		adds	r7, r7, #36
 514 0060 BD46     		mov	sp, r7
 515              		@ sp needed
 516 0062 5DF8047B 		ldr	r7, [sp], #4
 517 0066 7047     		bx	lr
 518              		.cfi_endproc
 519              	.LFE121:
 520              		.size	arm_compare_fixed_q15, .-arm_compare_fixed_q15
 521              		.section	.text.arm_compare_fixed_q31,"ax",%progbits
 522              		.align	2
 523              		.global	arm_compare_fixed_q31
 524              		.thumb
 525              		.thumb_func
 526              		.type	arm_compare_fixed_q31, %function
 527              	arm_compare_fixed_q31:
 528              	.LFB122:
 183:.\math_helper.c **** 
 184:.\math_helper.c **** /** 
 185:.\math_helper.c ****  * @brief  Compare MATLAB Reference Output and ARM Test output
 186:.\math_helper.c ****  * @param  q31_t* 	Pointer to Ref buffer
 187:.\math_helper.c ****  * @param  q31_t* 	Pointer to Test buffer
 188:.\math_helper.c ****  * @param  uint32_t 	number of samples in the buffer
 189:.\math_helper.c ****  * @return none 
 190:.\math_helper.c ****  */
 191:.\math_helper.c **** 
 192:.\math_helper.c **** uint32_t arm_compare_fixed_q31(q31_t *pIn, q31_t * pOut, uint32_t numSamples)
 193:.\math_helper.c **** {
 529              		.loc 1 193 0
 530              		.cfi_startproc
 531              		@ args = 0, pretend = 0, frame = 32
 532              		@ frame_needed = 1, uses_anonymous_args = 0
 533              		@ link register save eliminated.
 534 0000 80B4     		push	{r7}
 535              		.cfi_def_cfa_offset 4
 536              		.cfi_offset 7, -4
 537 0002 89B0     		sub	sp, sp, #36
 538              		.cfi_def_cfa_offset 40
 539 0004 00AF     		add	r7, sp, #0
 540              		.cfi_def_cfa_register 7
ARM GAS  C:\Users\SCOTTC~1\AppData\Local\Temp\ccxvbY1Y.s 			page 14


 541 0006 F860     		str	r0, [r7, #12]
 542 0008 B960     		str	r1, [r7, #8]
 543 000a 7A60     		str	r2, [r7, #4]
 194:.\math_helper.c ****   uint32_t i; 
 195:.\math_helper.c ****   int32_t diff, diffCrnt = 0;
 544              		.loc 1 195 0
 545 000c 0023     		movs	r3, #0
 546 000e 7B61     		str	r3, [r7, #20]
 196:.\math_helper.c ****   uint32_t maxDiff = 0;
 547              		.loc 1 196 0
 548 0010 0023     		movs	r3, #0
 549 0012 BB61     		str	r3, [r7, #24]
 197:.\math_helper.c **** 
 198:.\math_helper.c ****   for (i = 0; i < numSamples; i++)
 550              		.loc 1 198 0
 551 0014 0023     		movs	r3, #0
 552 0016 FB61     		str	r3, [r7, #28]
 553 0018 19E0     		b	.L33
 554              	.L35:
 199:.\math_helper.c ****   {
 200:.\math_helper.c ****   	diff = pIn[i] - pOut[i];
 555              		.loc 1 200 0
 556 001a FB69     		ldr	r3, [r7, #28]
 557 001c 9B00     		lsls	r3, r3, #2
 558 001e FA68     		ldr	r2, [r7, #12]
 559 0020 1344     		add	r3, r3, r2
 560 0022 1A68     		ldr	r2, [r3]
 561 0024 FB69     		ldr	r3, [r7, #28]
 562 0026 9B00     		lsls	r3, r3, #2
 563 0028 B968     		ldr	r1, [r7, #8]
 564 002a 0B44     		add	r3, r3, r1
 565 002c 1B68     		ldr	r3, [r3]
 566 002e D31A     		subs	r3, r2, r3
 567 0030 3B61     		str	r3, [r7, #16]
 201:.\math_helper.c ****   	diffCrnt = (diff > 0) ? diff : -diff;
 568              		.loc 1 201 0
 569 0032 3B69     		ldr	r3, [r7, #16]
 570 0034 002B     		cmp	r3, #0
 571 0036 B8BF     		it	lt
 572 0038 5B42     		rsblt	r3, r3, #0
 573 003a 7B61     		str	r3, [r7, #20]
 202:.\math_helper.c **** 
 203:.\math_helper.c **** 	if(diffCrnt > maxDiff)
 574              		.loc 1 203 0
 575 003c 7A69     		ldr	r2, [r7, #20]
 576 003e BB69     		ldr	r3, [r7, #24]
 577 0040 9A42     		cmp	r2, r3
 578 0042 01D9     		bls	.L34
 204:.\math_helper.c **** 	{
 205:.\math_helper.c **** 		maxDiff = diffCrnt;
 579              		.loc 1 205 0
 580 0044 7B69     		ldr	r3, [r7, #20]
 581 0046 BB61     		str	r3, [r7, #24]
 582              	.L34:
 198:.\math_helper.c ****   for (i = 0; i < numSamples; i++)
 583              		.loc 1 198 0
 584 0048 FB69     		ldr	r3, [r7, #28]
ARM GAS  C:\Users\SCOTTC~1\AppData\Local\Temp\ccxvbY1Y.s 			page 15


 585 004a 0133     		adds	r3, r3, #1
 586 004c FB61     		str	r3, [r7, #28]
 587              	.L33:
 198:.\math_helper.c ****   for (i = 0; i < numSamples; i++)
 588              		.loc 1 198 0 is_stmt 0 discriminator 1
 589 004e FA69     		ldr	r2, [r7, #28]
 590 0050 7B68     		ldr	r3, [r7, #4]
 591 0052 9A42     		cmp	r2, r3
 592 0054 E1D3     		bcc	.L35
 206:.\math_helper.c **** 	}
 207:.\math_helper.c ****   }
 208:.\math_helper.c **** 
 209:.\math_helper.c ****   return(maxDiff);
 593              		.loc 1 209 0 is_stmt 1
 594 0056 BB69     		ldr	r3, [r7, #24]
 210:.\math_helper.c **** }
 595              		.loc 1 210 0
 596 0058 1846     		mov	r0, r3
 597 005a 2437     		adds	r7, r7, #36
 598 005c BD46     		mov	sp, r7
 599              		@ sp needed
 600 005e 5DF8047B 		ldr	r7, [sp], #4
 601 0062 7047     		bx	lr
 602              		.cfi_endproc
 603              	.LFE122:
 604              		.size	arm_compare_fixed_q31, .-arm_compare_fixed_q31
 605              		.section	.text.arm_provide_guard_bits_q31,"ax",%progbits
 606              		.align	2
 607              		.global	arm_provide_guard_bits_q31
 608              		.thumb
 609              		.thumb_func
 610              		.type	arm_provide_guard_bits_q31, %function
 611              	arm_provide_guard_bits_q31:
 612              	.LFB123:
 211:.\math_helper.c **** 
 212:.\math_helper.c **** /** 
 213:.\math_helper.c ****  * @brief  Provide guard bits for Input buffer
 214:.\math_helper.c ****  * @param  q31_t* 	Pointer to input buffer
 215:.\math_helper.c ****  * @param  uint32_t 	blockSize
 216:.\math_helper.c ****  * @param  uint32_t 	guard_bits
 217:.\math_helper.c ****  * @return none
 218:.\math_helper.c ****  * The function Provides the guard bits for the buffer 
 219:.\math_helper.c ****  * to avoid overflow 
 220:.\math_helper.c ****  */
 221:.\math_helper.c **** 
 222:.\math_helper.c **** void arm_provide_guard_bits_q31 (q31_t * input_buf, 
 223:.\math_helper.c **** 								 uint32_t blockSize,
 224:.\math_helper.c ****                                  uint32_t guard_bits)
 225:.\math_helper.c **** {
 613              		.loc 1 225 0
 614              		.cfi_startproc
 615              		@ args = 0, pretend = 0, frame = 24
 616              		@ frame_needed = 1, uses_anonymous_args = 0
 617              		@ link register save eliminated.
 618 0000 80B4     		push	{r7}
 619              		.cfi_def_cfa_offset 4
 620              		.cfi_offset 7, -4
ARM GAS  C:\Users\SCOTTC~1\AppData\Local\Temp\ccxvbY1Y.s 			page 16


 621 0002 87B0     		sub	sp, sp, #28
 622              		.cfi_def_cfa_offset 32
 623 0004 00AF     		add	r7, sp, #0
 624              		.cfi_def_cfa_register 7
 625 0006 F860     		str	r0, [r7, #12]
 626 0008 B960     		str	r1, [r7, #8]
 627 000a 7A60     		str	r2, [r7, #4]
 226:.\math_helper.c ****   uint32_t i;
 227:.\math_helper.c **** 
 228:.\math_helper.c ****   for (i = 0; i < blockSize; i++)
 628              		.loc 1 228 0
 629 000c 0023     		movs	r3, #0
 630 000e 7B61     		str	r3, [r7, #20]
 631 0010 0FE0     		b	.L38
 632              	.L39:
 229:.\math_helper.c ****     {
 230:.\math_helper.c ****       input_buf[i] = input_buf[i] >> guard_bits;
 633              		.loc 1 230 0 discriminator 2
 634 0012 7B69     		ldr	r3, [r7, #20]
 635 0014 9B00     		lsls	r3, r3, #2
 636 0016 FA68     		ldr	r2, [r7, #12]
 637 0018 1344     		add	r3, r3, r2
 638 001a 7A69     		ldr	r2, [r7, #20]
 639 001c 9200     		lsls	r2, r2, #2
 640 001e F968     		ldr	r1, [r7, #12]
 641 0020 0A44     		add	r2, r2, r1
 642 0022 1168     		ldr	r1, [r2]
 643 0024 7A68     		ldr	r2, [r7, #4]
 644 0026 41FA02F2 		asr	r2, r1, r2
 645 002a 1A60     		str	r2, [r3]
 228:.\math_helper.c ****   for (i = 0; i < blockSize; i++)
 646              		.loc 1 228 0 discriminator 2
 647 002c 7B69     		ldr	r3, [r7, #20]
 648 002e 0133     		adds	r3, r3, #1
 649 0030 7B61     		str	r3, [r7, #20]
 650              	.L38:
 228:.\math_helper.c ****   for (i = 0; i < blockSize; i++)
 651              		.loc 1 228 0 is_stmt 0 discriminator 1
 652 0032 7A69     		ldr	r2, [r7, #20]
 653 0034 BB68     		ldr	r3, [r7, #8]
 654 0036 9A42     		cmp	r2, r3
 655 0038 EBD3     		bcc	.L39
 231:.\math_helper.c ****     }
 232:.\math_helper.c **** }
 656              		.loc 1 232 0 is_stmt 1
 657 003a 1C37     		adds	r7, r7, #28
 658 003c BD46     		mov	sp, r7
 659              		@ sp needed
 660 003e 5DF8047B 		ldr	r7, [sp], #4
 661 0042 7047     		bx	lr
 662              		.cfi_endproc
 663              	.LFE123:
 664              		.size	arm_provide_guard_bits_q31, .-arm_provide_guard_bits_q31
 665              		.section	.text.arm_provide_guard_bits_q7,"ax",%progbits
 666              		.align	2
 667              		.global	arm_provide_guard_bits_q7
 668              		.thumb
ARM GAS  C:\Users\SCOTTC~1\AppData\Local\Temp\ccxvbY1Y.s 			page 17


 669              		.thumb_func
 670              		.type	arm_provide_guard_bits_q7, %function
 671              	arm_provide_guard_bits_q7:
 672              	.LFB124:
 233:.\math_helper.c **** 
 234:.\math_helper.c **** /** 
 235:.\math_helper.c ****  * @brief  Provide guard bits for Input buffer
 236:.\math_helper.c ****  * @param  q31_t* 	Pointer to input buffer
 237:.\math_helper.c ****  * @param  uint32_t 	blockSize
 238:.\math_helper.c ****  * @param  uint32_t 	guard_bits
 239:.\math_helper.c ****  * @return none
 240:.\math_helper.c ****  * The function Provides the guard bits for the buffer 
 241:.\math_helper.c ****  * to avoid overflow 
 242:.\math_helper.c ****  */
 243:.\math_helper.c **** 
 244:.\math_helper.c **** void arm_provide_guard_bits_q7 (q7_t * input_buf, 
 245:.\math_helper.c **** 								uint32_t blockSize,
 246:.\math_helper.c ****                                 uint32_t guard_bits)
 247:.\math_helper.c **** {
 673              		.loc 1 247 0
 674              		.cfi_startproc
 675              		@ args = 0, pretend = 0, frame = 24
 676              		@ frame_needed = 1, uses_anonymous_args = 0
 677              		@ link register save eliminated.
 678 0000 80B4     		push	{r7}
 679              		.cfi_def_cfa_offset 4
 680              		.cfi_offset 7, -4
 681 0002 87B0     		sub	sp, sp, #28
 682              		.cfi_def_cfa_offset 32
 683 0004 00AF     		add	r7, sp, #0
 684              		.cfi_def_cfa_register 7
 685 0006 F860     		str	r0, [r7, #12]
 686 0008 B960     		str	r1, [r7, #8]
 687 000a 7A60     		str	r2, [r7, #4]
 248:.\math_helper.c ****   uint32_t i;
 249:.\math_helper.c **** 
 250:.\math_helper.c ****   for (i = 0; i < blockSize; i++)
 688              		.loc 1 250 0
 689 000c 0023     		movs	r3, #0
 690 000e 7B61     		str	r3, [r7, #20]
 691 0010 0FE0     		b	.L41
 692              	.L42:
 251:.\math_helper.c ****     {
 252:.\math_helper.c ****       input_buf[i] = input_buf[i] >> guard_bits;
 693              		.loc 1 252 0 discriminator 2
 694 0012 FA68     		ldr	r2, [r7, #12]
 695 0014 7B69     		ldr	r3, [r7, #20]
 696 0016 1344     		add	r3, r3, r2
 697 0018 F968     		ldr	r1, [r7, #12]
 698 001a 7A69     		ldr	r2, [r7, #20]
 699 001c 0A44     		add	r2, r2, r1
 700 001e 1278     		ldrb	r2, [r2]	@ zero_extendqisi2
 701 0020 51B2     		sxtb	r1, r2
 702 0022 7A68     		ldr	r2, [r7, #4]
 703 0024 41FA02F2 		asr	r2, r1, r2
 704 0028 D2B2     		uxtb	r2, r2
 705 002a 1A70     		strb	r2, [r3]
ARM GAS  C:\Users\SCOTTC~1\AppData\Local\Temp\ccxvbY1Y.s 			page 18


 250:.\math_helper.c ****   for (i = 0; i < blockSize; i++)
 706              		.loc 1 250 0 discriminator 2
 707 002c 7B69     		ldr	r3, [r7, #20]
 708 002e 0133     		adds	r3, r3, #1
 709 0030 7B61     		str	r3, [r7, #20]
 710              	.L41:
 250:.\math_helper.c ****   for (i = 0; i < blockSize; i++)
 711              		.loc 1 250 0 is_stmt 0 discriminator 1
 712 0032 7A69     		ldr	r2, [r7, #20]
 713 0034 BB68     		ldr	r3, [r7, #8]
 714 0036 9A42     		cmp	r2, r3
 715 0038 EBD3     		bcc	.L42
 253:.\math_helper.c ****     }
 254:.\math_helper.c **** }
 716              		.loc 1 254 0 is_stmt 1
 717 003a 1C37     		adds	r7, r7, #28
 718 003c BD46     		mov	sp, r7
 719              		@ sp needed
 720 003e 5DF8047B 		ldr	r7, [sp], #4
 721 0042 7047     		bx	lr
 722              		.cfi_endproc
 723              	.LFE124:
 724              		.size	arm_provide_guard_bits_q7, .-arm_provide_guard_bits_q7
 725              		.section	.text.arm_calc_guard_bits,"ax",%progbits
 726              		.align	2
 727              		.global	arm_calc_guard_bits
 728              		.thumb
 729              		.thumb_func
 730              		.type	arm_calc_guard_bits, %function
 731              	arm_calc_guard_bits:
 732              	.LFB125:
 255:.\math_helper.c **** 
 256:.\math_helper.c **** 
 257:.\math_helper.c **** 
 258:.\math_helper.c **** /** 
 259:.\math_helper.c ****  * @brief  Caluclates number of guard bits 
 260:.\math_helper.c ****  * @param  uint32_t 	number of additions
 261:.\math_helper.c ****  * @return none
 262:.\math_helper.c ****  * The function Caluclates the number of guard bits  
 263:.\math_helper.c ****  * depending on the numtaps 
 264:.\math_helper.c ****  */
 265:.\math_helper.c **** 
 266:.\math_helper.c **** uint32_t arm_calc_guard_bits (uint32_t num_adds)
 267:.\math_helper.c **** {
 733              		.loc 1 267 0
 734              		.cfi_startproc
 735              		@ args = 0, pretend = 0, frame = 16
 736              		@ frame_needed = 1, uses_anonymous_args = 0
 737              		@ link register save eliminated.
 738 0000 80B4     		push	{r7}
 739              		.cfi_def_cfa_offset 4
 740              		.cfi_offset 7, -4
 741 0002 85B0     		sub	sp, sp, #20
 742              		.cfi_def_cfa_offset 24
 743 0004 00AF     		add	r7, sp, #0
 744              		.cfi_def_cfa_register 7
 745 0006 7860     		str	r0, [r7, #4]
ARM GAS  C:\Users\SCOTTC~1\AppData\Local\Temp\ccxvbY1Y.s 			page 19


 268:.\math_helper.c ****   uint32_t i = 1, j = 0;
 746              		.loc 1 268 0
 747 0008 0123     		movs	r3, #1
 748 000a FB60     		str	r3, [r7, #12]
 749 000c 0023     		movs	r3, #0
 750 000e BB60     		str	r3, [r7, #8]
 269:.\math_helper.c **** 
 270:.\math_helper.c ****   if (num_adds == 1)
 751              		.loc 1 270 0
 752 0010 7B68     		ldr	r3, [r7, #4]
 753 0012 012B     		cmp	r3, #1
 754 0014 01D1     		bne	.L44
 271:.\math_helper.c ****     {
 272:.\math_helper.c ****       return (0);
 755              		.loc 1 272 0
 756 0016 0023     		movs	r3, #0
 757 0018 0BE0     		b	.L45
 758              	.L44:
 273:.\math_helper.c ****     }
 274:.\math_helper.c **** 
 275:.\math_helper.c ****   while (i < num_adds)
 759              		.loc 1 275 0
 760 001a 05E0     		b	.L46
 761              	.L47:
 276:.\math_helper.c ****     {
 277:.\math_helper.c ****       i = i * 2;
 762              		.loc 1 277 0
 763 001c FB68     		ldr	r3, [r7, #12]
 764 001e 5B00     		lsls	r3, r3, #1
 765 0020 FB60     		str	r3, [r7, #12]
 278:.\math_helper.c ****       j++;
 766              		.loc 1 278 0
 767 0022 BB68     		ldr	r3, [r7, #8]
 768 0024 0133     		adds	r3, r3, #1
 769 0026 BB60     		str	r3, [r7, #8]
 770              	.L46:
 275:.\math_helper.c ****   while (i < num_adds)
 771              		.loc 1 275 0 discriminator 1
 772 0028 FA68     		ldr	r2, [r7, #12]
 773 002a 7B68     		ldr	r3, [r7, #4]
 774 002c 9A42     		cmp	r2, r3
 775 002e F5D3     		bcc	.L47
 279:.\math_helper.c ****     }
 280:.\math_helper.c **** 
 281:.\math_helper.c ****   return (j);
 776              		.loc 1 281 0
 777 0030 BB68     		ldr	r3, [r7, #8]
 778              	.L45:
 282:.\math_helper.c **** }
 779              		.loc 1 282 0
 780 0032 1846     		mov	r0, r3
 781 0034 1437     		adds	r7, r7, #20
 782 0036 BD46     		mov	sp, r7
 783              		@ sp needed
 784 0038 5DF8047B 		ldr	r7, [sp], #4
 785 003c 7047     		bx	lr
 786              		.cfi_endproc
ARM GAS  C:\Users\SCOTTC~1\AppData\Local\Temp\ccxvbY1Y.s 			page 20


 787              	.LFE125:
 788              		.size	arm_calc_guard_bits, .-arm_calc_guard_bits
 789              		.global	__aeabi_ui2f
 790 003e 00BF     		.section	.text.arm_apply_guard_bits,"ax",%progbits
 791              		.align	2
 792              		.global	arm_apply_guard_bits
 793              		.thumb
 794              		.thumb_func
 795              		.type	arm_apply_guard_bits, %function
 796              	arm_apply_guard_bits:
 797              	.LFB126:
 283:.\math_helper.c **** 
 284:.\math_helper.c **** /** 
 285:.\math_helper.c ****  * @brief  Converts Q15 to floating-point
 286:.\math_helper.c ****  * @param  uint32_t 	number of samples in the buffer
 287:.\math_helper.c ****  * @return none
 288:.\math_helper.c ****  */
 289:.\math_helper.c **** 
 290:.\math_helper.c **** void arm_apply_guard_bits (float32_t * pIn, 
 291:.\math_helper.c **** 						   uint32_t numSamples, 
 292:.\math_helper.c **** 						   uint32_t guard_bits)
 293:.\math_helper.c **** {
 798              		.loc 1 293 0
 799              		.cfi_startproc
 800              		@ args = 0, pretend = 0, frame = 24
 801              		@ frame_needed = 1, uses_anonymous_args = 0
 802 0000 B0B5     		push	{r4, r5, r7, lr}
 803              		.cfi_def_cfa_offset 16
 804              		.cfi_offset 4, -16
 805              		.cfi_offset 5, -12
 806              		.cfi_offset 7, -8
 807              		.cfi_offset 14, -4
 808 0002 86B0     		sub	sp, sp, #24
 809              		.cfi_def_cfa_offset 40
 810 0004 00AF     		add	r7, sp, #0
 811              		.cfi_def_cfa_register 7
 812 0006 F860     		str	r0, [r7, #12]
 813 0008 B960     		str	r1, [r7, #8]
 814 000a 7A60     		str	r2, [r7, #4]
 294:.\math_helper.c ****   uint32_t i;
 295:.\math_helper.c **** 
 296:.\math_helper.c ****   for (i = 0; i < numSamples; i++)
 815              		.loc 1 296 0
 816 000c 0023     		movs	r3, #0
 817 000e 7B61     		str	r3, [r7, #20]
 818 0010 19E0     		b	.L49
 819              	.L50:
 297:.\math_helper.c ****     {
 298:.\math_helper.c ****       pIn[i] = pIn[i] * arm_calc_2pow(guard_bits);
 820              		.loc 1 298 0 discriminator 2
 821 0012 7B69     		ldr	r3, [r7, #20]
 822 0014 9B00     		lsls	r3, r3, #2
 823 0016 FA68     		ldr	r2, [r7, #12]
 824 0018 D418     		adds	r4, r2, r3
 825 001a 7B69     		ldr	r3, [r7, #20]
 826 001c 9B00     		lsls	r3, r3, #2
 827 001e FA68     		ldr	r2, [r7, #12]
ARM GAS  C:\Users\SCOTTC~1\AppData\Local\Temp\ccxvbY1Y.s 			page 21


 828 0020 1344     		add	r3, r3, r2
 829 0022 1D68     		ldr	r5, [r3]	@ float
 830 0024 7868     		ldr	r0, [r7, #4]
 831 0026 FFF7FEFF 		bl	arm_calc_2pow
 832 002a 0346     		mov	r3, r0
 833 002c 1846     		mov	r0, r3
 834 002e FFF7FEFF 		bl	__aeabi_ui2f
 835 0032 0346     		mov	r3, r0
 836 0034 2846     		mov	r0, r5
 837 0036 1946     		mov	r1, r3
 838 0038 FFF7FEFF 		bl	__aeabi_fmul
 839 003c 0346     		mov	r3, r0
 840 003e 2360     		str	r3, [r4]	@ float
 296:.\math_helper.c ****   for (i = 0; i < numSamples; i++)
 841              		.loc 1 296 0 discriminator 2
 842 0040 7B69     		ldr	r3, [r7, #20]
 843 0042 0133     		adds	r3, r3, #1
 844 0044 7B61     		str	r3, [r7, #20]
 845              	.L49:
 296:.\math_helper.c ****   for (i = 0; i < numSamples; i++)
 846              		.loc 1 296 0 is_stmt 0 discriminator 1
 847 0046 7A69     		ldr	r2, [r7, #20]
 848 0048 BB68     		ldr	r3, [r7, #8]
 849 004a 9A42     		cmp	r2, r3
 850 004c E1D3     		bcc	.L50
 299:.\math_helper.c ****     }
 300:.\math_helper.c **** }
 851              		.loc 1 300 0 is_stmt 1
 852 004e 1837     		adds	r7, r7, #24
 853 0050 BD46     		mov	sp, r7
 854              		@ sp needed
 855 0052 B0BD     		pop	{r4, r5, r7, pc}
 856              		.cfi_endproc
 857              	.LFE126:
 858              		.size	arm_apply_guard_bits, .-arm_apply_guard_bits
 859              		.section	.text.arm_calc_2pow,"ax",%progbits
 860              		.align	2
 861              		.global	arm_calc_2pow
 862              		.thumb
 863              		.thumb_func
 864              		.type	arm_calc_2pow, %function
 865              	arm_calc_2pow:
 866              	.LFB127:
 301:.\math_helper.c **** 
 302:.\math_helper.c **** /** 
 303:.\math_helper.c ****  * @brief  Calculates pow(2, numShifts)
 304:.\math_helper.c ****  * @param  uint32_t 	number of shifts
 305:.\math_helper.c ****  * @return pow(2, numShifts)
 306:.\math_helper.c ****  */
 307:.\math_helper.c **** uint32_t arm_calc_2pow(uint32_t numShifts)
 308:.\math_helper.c **** {
 867              		.loc 1 308 0
 868              		.cfi_startproc
 869              		@ args = 0, pretend = 0, frame = 16
 870              		@ frame_needed = 1, uses_anonymous_args = 0
 871              		@ link register save eliminated.
 872 0000 80B4     		push	{r7}
ARM GAS  C:\Users\SCOTTC~1\AppData\Local\Temp\ccxvbY1Y.s 			page 22


 873              		.cfi_def_cfa_offset 4
 874              		.cfi_offset 7, -4
 875 0002 85B0     		sub	sp, sp, #20
 876              		.cfi_def_cfa_offset 24
 877 0004 00AF     		add	r7, sp, #0
 878              		.cfi_def_cfa_register 7
 879 0006 7860     		str	r0, [r7, #4]
 309:.\math_helper.c **** 
 310:.\math_helper.c ****   uint32_t i, val = 1;
 880              		.loc 1 310 0
 881 0008 0123     		movs	r3, #1
 882 000a BB60     		str	r3, [r7, #8]
 311:.\math_helper.c **** 
 312:.\math_helper.c ****   for (i = 0; i < numShifts; i++)
 883              		.loc 1 312 0
 884 000c 0023     		movs	r3, #0
 885 000e FB60     		str	r3, [r7, #12]
 886 0010 05E0     		b	.L52
 887              	.L53:
 313:.\math_helper.c ****     {
 314:.\math_helper.c ****       val = val * 2;
 888              		.loc 1 314 0 discriminator 2
 889 0012 BB68     		ldr	r3, [r7, #8]
 890 0014 5B00     		lsls	r3, r3, #1
 891 0016 BB60     		str	r3, [r7, #8]
 312:.\math_helper.c ****   for (i = 0; i < numShifts; i++)
 892              		.loc 1 312 0 discriminator 2
 893 0018 FB68     		ldr	r3, [r7, #12]
 894 001a 0133     		adds	r3, r3, #1
 895 001c FB60     		str	r3, [r7, #12]
 896              	.L52:
 312:.\math_helper.c ****   for (i = 0; i < numShifts; i++)
 897              		.loc 1 312 0 is_stmt 0 discriminator 1
 898 001e FA68     		ldr	r2, [r7, #12]
 899 0020 7B68     		ldr	r3, [r7, #4]
 900 0022 9A42     		cmp	r2, r3
 901 0024 F5D3     		bcc	.L53
 315:.\math_helper.c ****     }	
 316:.\math_helper.c **** 
 317:.\math_helper.c ****   return(val);
 902              		.loc 1 317 0 is_stmt 1
 903 0026 BB68     		ldr	r3, [r7, #8]
 318:.\math_helper.c **** }
 904              		.loc 1 318 0
 905 0028 1846     		mov	r0, r3
 906 002a 1437     		adds	r7, r7, #20
 907 002c BD46     		mov	sp, r7
 908              		@ sp needed
 909 002e 5DF8047B 		ldr	r7, [sp], #4
 910 0032 7047     		bx	lr
 911              		.cfi_endproc
 912              	.LFE127:
 913              		.size	arm_calc_2pow, .-arm_calc_2pow
 914              		.section	.text.arm_float_to_q14,"ax",%progbits
 915              		.align	2
 916              		.global	arm_float_to_q14
 917              		.thumb
ARM GAS  C:\Users\SCOTTC~1\AppData\Local\Temp\ccxvbY1Y.s 			page 23


 918              		.thumb_func
 919              		.type	arm_float_to_q14, %function
 920              	arm_float_to_q14:
 921              	.LFB128:
 319:.\math_helper.c **** 
 320:.\math_helper.c **** 
 321:.\math_helper.c **** 
 322:.\math_helper.c **** /** 
 323:.\math_helper.c ****  * @brief  Converts float to fixed q14 
 324:.\math_helper.c ****  * @param  uint32_t 	number of samples in the buffer
 325:.\math_helper.c ****  * @return none
 326:.\math_helper.c ****  * The function converts floating point values to fixed point values 
 327:.\math_helper.c ****  */
 328:.\math_helper.c **** 
 329:.\math_helper.c **** void arm_float_to_q14 (float *pIn, q15_t * pOut, 
 330:.\math_helper.c ****                        uint32_t numSamples)
 331:.\math_helper.c **** {
 922              		.loc 1 331 0
 923              		.cfi_startproc
 924              		@ args = 0, pretend = 0, frame = 24
 925              		@ frame_needed = 1, uses_anonymous_args = 0
 926 0000 F0B5     		push	{r4, r5, r6, r7, lr}
 927              		.cfi_def_cfa_offset 20
 928              		.cfi_offset 4, -20
 929              		.cfi_offset 5, -16
 930              		.cfi_offset 6, -12
 931              		.cfi_offset 7, -8
 932              		.cfi_offset 14, -4
 933 0002 87B0     		sub	sp, sp, #28
 934              		.cfi_def_cfa_offset 48
 935 0004 00AF     		add	r7, sp, #0
 936              		.cfi_def_cfa_register 7
 937 0006 F860     		str	r0, [r7, #12]
 938 0008 B960     		str	r1, [r7, #8]
 939 000a 7A60     		str	r2, [r7, #4]
 332:.\math_helper.c ****   uint32_t i;
 333:.\math_helper.c **** 
 334:.\math_helper.c ****   for (i = 0; i < numSamples; i++)
 940              		.loc 1 334 0
 941 000c 0023     		movs	r3, #0
 942 000e 7B61     		str	r3, [r7, #20]
 943 0010 5BE0     		b	.L56
 944              	.L62:
 335:.\math_helper.c ****     {
 336:.\math_helper.c **** 	  /* 16384.0f corresponds to pow(2, 14) */
 337:.\math_helper.c ****       pOut[i] = (q15_t) (pIn[i] * 16384.0f);
 945              		.loc 1 337 0
 946 0012 7B69     		ldr	r3, [r7, #20]
 947 0014 5B00     		lsls	r3, r3, #1
 948 0016 BA68     		ldr	r2, [r7, #8]
 949 0018 D418     		adds	r4, r2, r3
 950 001a 7B69     		ldr	r3, [r7, #20]
 951 001c 9B00     		lsls	r3, r3, #2
 952 001e FA68     		ldr	r2, [r7, #12]
 953 0020 1344     		add	r3, r3, r2
 954 0022 1B68     		ldr	r3, [r3]	@ float
 955 0024 1846     		mov	r0, r3
ARM GAS  C:\Users\SCOTTC~1\AppData\Local\Temp\ccxvbY1Y.s 			page 24


 956 0026 4FF08D41 		mov	r1, #1182793728
 957 002a FFF7FEFF 		bl	__aeabi_fmul
 958 002e 0346     		mov	r3, r0
 959 0030 1846     		mov	r0, r3
 960 0032 FFF7FEFF 		bl	__aeabi_f2iz
 961 0036 0346     		mov	r3, r0
 962 0038 9BB2     		uxth	r3, r3
 963 003a 2380     		strh	r3, [r4]	@ movhi
 338:.\math_helper.c **** 
 339:.\math_helper.c ****       pOut[i] += pIn[i] > 0 ? 0.5 : -0.5;
 964              		.loc 1 339 0
 965 003c 7B69     		ldr	r3, [r7, #20]
 966 003e 5B00     		lsls	r3, r3, #1
 967 0040 BA68     		ldr	r2, [r7, #8]
 968 0042 D618     		adds	r6, r2, r3
 969 0044 7B69     		ldr	r3, [r7, #20]
 970 0046 5B00     		lsls	r3, r3, #1
 971 0048 BA68     		ldr	r2, [r7, #8]
 972 004a 1344     		add	r3, r3, r2
 973 004c 1B88     		ldrh	r3, [r3]
 974 004e 1BB2     		sxth	r3, r3
 975 0050 1846     		mov	r0, r3
 976 0052 FFF7FEFF 		bl	__aeabi_i2d
 977 0056 0446     		mov	r4, r0
 978 0058 0D46     		mov	r5, r1
 979 005a 7B69     		ldr	r3, [r7, #20]
 980 005c 9B00     		lsls	r3, r3, #2
 981 005e FA68     		ldr	r2, [r7, #12]
 982 0060 1344     		add	r3, r3, r2
 983 0062 1B68     		ldr	r3, [r3]	@ float
 984 0064 1846     		mov	r0, r3
 985 0066 4FF00001 		mov	r1, #0
 986 006a FFF7FEFF 		bl	__aeabi_fcmpgt
 987 006e 0346     		mov	r3, r0
 988 0070 002B     		cmp	r3, #0
 989 0072 03D0     		beq	.L65
 990              		.loc 1 339 0 is_stmt 0 discriminator 1
 991 0074 4FF00002 		mov	r2, #0
 992 0078 174B     		ldr	r3, .L66
 993 007a 02E0     		b	.L59
 994              	.L65:
 995              		.loc 1 339 0 discriminator 2
 996 007c 4FF00002 		mov	r2, #0
 997 0080 164B     		ldr	r3, .L66+4
 998              	.L59:
 999              		.loc 1 339 0 discriminator 3
 1000 0082 2046     		mov	r0, r4
 1001 0084 2946     		mov	r1, r5
 1002 0086 FFF7FEFF 		bl	__aeabi_dadd
 1003 008a 0246     		mov	r2, r0
 1004 008c 0B46     		mov	r3, r1
 1005 008e 1046     		mov	r0, r2
 1006 0090 1946     		mov	r1, r3
 1007 0092 FFF7FEFF 		bl	__aeabi_d2iz
 1008 0096 0346     		mov	r3, r0
 1009 0098 9BB2     		uxth	r3, r3
 1010 009a 3380     		strh	r3, [r6]	@ movhi
ARM GAS  C:\Users\SCOTTC~1\AppData\Local\Temp\ccxvbY1Y.s 			page 25


 340:.\math_helper.c **** 
 341:.\math_helper.c ****       if (pIn[i] == (float) 2.0)
 1011              		.loc 1 341 0 is_stmt 1 discriminator 3
 1012 009c 7B69     		ldr	r3, [r7, #20]
 1013 009e 9B00     		lsls	r3, r3, #2
 1014 00a0 FA68     		ldr	r2, [r7, #12]
 1015 00a2 1344     		add	r3, r3, r2
 1016 00a4 1B68     		ldr	r3, [r3]	@ float
 1017 00a6 1846     		mov	r0, r3
 1018 00a8 4FF08041 		mov	r1, #1073741824
 1019 00ac FFF7FEFF 		bl	__aeabi_fcmpeq
 1020 00b0 0346     		mov	r3, r0
 1021 00b2 002B     		cmp	r3, #0
 1022 00b4 06D0     		beq	.L60
 342:.\math_helper.c ****         {
 343:.\math_helper.c ****           pOut[i] = 0x7FFF;
 1023              		.loc 1 343 0
 1024 00b6 7B69     		ldr	r3, [r7, #20]
 1025 00b8 5B00     		lsls	r3, r3, #1
 1026 00ba BA68     		ldr	r2, [r7, #8]
 1027 00bc 1344     		add	r3, r3, r2
 1028 00be 47F6FF72 		movw	r2, #32767
 1029 00c2 1A80     		strh	r2, [r3]	@ movhi
 1030              	.L60:
 334:.\math_helper.c ****   for (i = 0; i < numSamples; i++)
 1031              		.loc 1 334 0
 1032 00c4 7B69     		ldr	r3, [r7, #20]
 1033 00c6 0133     		adds	r3, r3, #1
 1034 00c8 7B61     		str	r3, [r7, #20]
 1035              	.L56:
 334:.\math_helper.c ****   for (i = 0; i < numSamples; i++)
 1036              		.loc 1 334 0 is_stmt 0 discriminator 1
 1037 00ca 7A69     		ldr	r2, [r7, #20]
 1038 00cc 7B68     		ldr	r3, [r7, #4]
 1039 00ce 9A42     		cmp	r2, r3
 1040 00d0 9FD3     		bcc	.L62
 344:.\math_helper.c ****         }
 345:.\math_helper.c **** 
 346:.\math_helper.c ****     }
 347:.\math_helper.c **** 
 348:.\math_helper.c **** }
 1041              		.loc 1 348 0 is_stmt 1
 1042 00d2 1C37     		adds	r7, r7, #28
 1043 00d4 BD46     		mov	sp, r7
 1044              		@ sp needed
 1045 00d6 F0BD     		pop	{r4, r5, r6, r7, pc}
 1046              	.L67:
 1047              		.align	2
 1048              	.L66:
 1049 00d8 0000E03F 		.word	1071644672
 1050 00dc 0000E0BF 		.word	-1075838976
 1051              		.cfi_endproc
 1052              	.LFE128:
 1053              		.size	arm_float_to_q14, .-arm_float_to_q14
 1054              		.section	.text.arm_float_to_q30,"ax",%progbits
 1055              		.align	2
 1056              		.global	arm_float_to_q30
ARM GAS  C:\Users\SCOTTC~1\AppData\Local\Temp\ccxvbY1Y.s 			page 26


 1057              		.thumb
 1058              		.thumb_func
 1059              		.type	arm_float_to_q30, %function
 1060              	arm_float_to_q30:
 1061              	.LFB129:
 349:.\math_helper.c **** 
 350:.\math_helper.c ****  
 351:.\math_helper.c **** /** 
 352:.\math_helper.c ****  * @brief  Converts float to fixed q30 format
 353:.\math_helper.c ****  * @param  uint32_t 	number of samples in the buffer
 354:.\math_helper.c ****  * @return none
 355:.\math_helper.c ****  * The function converts floating point values to fixed point values 
 356:.\math_helper.c ****  */
 357:.\math_helper.c **** 
 358:.\math_helper.c **** void arm_float_to_q30 (float *pIn, q31_t * pOut, 
 359:.\math_helper.c **** 					   uint32_t numSamples)
 360:.\math_helper.c **** {
 1062              		.loc 1 360 0
 1063              		.cfi_startproc
 1064              		@ args = 0, pretend = 0, frame = 24
 1065              		@ frame_needed = 1, uses_anonymous_args = 0
 1066 0000 F0B5     		push	{r4, r5, r6, r7, lr}
 1067              		.cfi_def_cfa_offset 20
 1068              		.cfi_offset 4, -20
 1069              		.cfi_offset 5, -16
 1070              		.cfi_offset 6, -12
 1071              		.cfi_offset 7, -8
 1072              		.cfi_offset 14, -4
 1073 0002 87B0     		sub	sp, sp, #28
 1074              		.cfi_def_cfa_offset 48
 1075 0004 00AF     		add	r7, sp, #0
 1076              		.cfi_def_cfa_register 7
 1077 0006 F860     		str	r0, [r7, #12]
 1078 0008 B960     		str	r1, [r7, #8]
 1079 000a 7A60     		str	r2, [r7, #4]
 361:.\math_helper.c ****   uint32_t i;
 362:.\math_helper.c **** 
 363:.\math_helper.c ****   for (i = 0; i < numSamples; i++)
 1080              		.loc 1 363 0
 1081 000c 0023     		movs	r3, #0
 1082 000e 7B61     		str	r3, [r7, #20]
 1083 0010 58E0     		b	.L69
 1084              	.L75:
 364:.\math_helper.c ****     {
 365:.\math_helper.c **** 	  /* 1073741824.0f corresponds to pow(2, 30) */
 366:.\math_helper.c ****       pOut[i] = (q31_t) (pIn[i] * 1073741824.0f);
 1085              		.loc 1 366 0
 1086 0012 7B69     		ldr	r3, [r7, #20]
 1087 0014 9B00     		lsls	r3, r3, #2
 1088 0016 BA68     		ldr	r2, [r7, #8]
 1089 0018 D418     		adds	r4, r2, r3
 1090 001a 7B69     		ldr	r3, [r7, #20]
 1091 001c 9B00     		lsls	r3, r3, #2
 1092 001e FA68     		ldr	r2, [r7, #12]
 1093 0020 1344     		add	r3, r3, r2
 1094 0022 1B68     		ldr	r3, [r3]	@ float
 1095 0024 1846     		mov	r0, r3
ARM GAS  C:\Users\SCOTTC~1\AppData\Local\Temp\ccxvbY1Y.s 			page 27


 1096 0026 4FF09D41 		mov	r1, #1317011456
 1097 002a FFF7FEFF 		bl	__aeabi_fmul
 1098 002e 0346     		mov	r3, r0
 1099 0030 1846     		mov	r0, r3
 1100 0032 FFF7FEFF 		bl	__aeabi_f2iz
 1101 0036 0346     		mov	r3, r0
 1102 0038 2360     		str	r3, [r4]
 367:.\math_helper.c **** 
 368:.\math_helper.c ****       pOut[i] += pIn[i] > 0 ? 0.5 : -0.5;
 1103              		.loc 1 368 0
 1104 003a 7B69     		ldr	r3, [r7, #20]
 1105 003c 9B00     		lsls	r3, r3, #2
 1106 003e BA68     		ldr	r2, [r7, #8]
 1107 0040 D618     		adds	r6, r2, r3
 1108 0042 7B69     		ldr	r3, [r7, #20]
 1109 0044 9B00     		lsls	r3, r3, #2
 1110 0046 BA68     		ldr	r2, [r7, #8]
 1111 0048 1344     		add	r3, r3, r2
 1112 004a 1B68     		ldr	r3, [r3]
 1113 004c 1846     		mov	r0, r3
 1114 004e FFF7FEFF 		bl	__aeabi_i2d
 1115 0052 0446     		mov	r4, r0
 1116 0054 0D46     		mov	r5, r1
 1117 0056 7B69     		ldr	r3, [r7, #20]
 1118 0058 9B00     		lsls	r3, r3, #2
 1119 005a FA68     		ldr	r2, [r7, #12]
 1120 005c 1344     		add	r3, r3, r2
 1121 005e 1B68     		ldr	r3, [r3]	@ float
 1122 0060 1846     		mov	r0, r3
 1123 0062 4FF00001 		mov	r1, #0
 1124 0066 FFF7FEFF 		bl	__aeabi_fcmpgt
 1125 006a 0346     		mov	r3, r0
 1126 006c 002B     		cmp	r3, #0
 1127 006e 03D0     		beq	.L78
 1128              		.loc 1 368 0 is_stmt 0 discriminator 1
 1129 0070 4FF00002 		mov	r2, #0
 1130 0074 174B     		ldr	r3, .L79
 1131 0076 02E0     		b	.L72
 1132              	.L78:
 1133              		.loc 1 368 0 discriminator 2
 1134 0078 4FF00002 		mov	r2, #0
 1135 007c 164B     		ldr	r3, .L79+4
 1136              	.L72:
 1137              		.loc 1 368 0 discriminator 3
 1138 007e 2046     		mov	r0, r4
 1139 0080 2946     		mov	r1, r5
 1140 0082 FFF7FEFF 		bl	__aeabi_dadd
 1141 0086 0246     		mov	r2, r0
 1142 0088 0B46     		mov	r3, r1
 1143 008a 1046     		mov	r0, r2
 1144 008c 1946     		mov	r1, r3
 1145 008e FFF7FEFF 		bl	__aeabi_d2iz
 1146 0092 0346     		mov	r3, r0
 1147 0094 3360     		str	r3, [r6]
 369:.\math_helper.c **** 
 370:.\math_helper.c ****       if (pIn[i] == (float) 2.0)
 1148              		.loc 1 370 0 is_stmt 1 discriminator 3
ARM GAS  C:\Users\SCOTTC~1\AppData\Local\Temp\ccxvbY1Y.s 			page 28


 1149 0096 7B69     		ldr	r3, [r7, #20]
 1150 0098 9B00     		lsls	r3, r3, #2
 1151 009a FA68     		ldr	r2, [r7, #12]
 1152 009c 1344     		add	r3, r3, r2
 1153 009e 1B68     		ldr	r3, [r3]	@ float
 1154 00a0 1846     		mov	r0, r3
 1155 00a2 4FF08041 		mov	r1, #1073741824
 1156 00a6 FFF7FEFF 		bl	__aeabi_fcmpeq
 1157 00aa 0346     		mov	r3, r0
 1158 00ac 002B     		cmp	r3, #0
 1159 00ae 06D0     		beq	.L73
 371:.\math_helper.c ****         {
 372:.\math_helper.c ****           pOut[i] = 0x7FFFFFFF;
 1160              		.loc 1 372 0
 1161 00b0 7B69     		ldr	r3, [r7, #20]
 1162 00b2 9B00     		lsls	r3, r3, #2
 1163 00b4 BA68     		ldr	r2, [r7, #8]
 1164 00b6 1344     		add	r3, r3, r2
 1165 00b8 6FF00042 		mvn	r2, #-2147483648
 1166 00bc 1A60     		str	r2, [r3]
 1167              	.L73:
 363:.\math_helper.c ****   for (i = 0; i < numSamples; i++)
 1168              		.loc 1 363 0
 1169 00be 7B69     		ldr	r3, [r7, #20]
 1170 00c0 0133     		adds	r3, r3, #1
 1171 00c2 7B61     		str	r3, [r7, #20]
 1172              	.L69:
 363:.\math_helper.c ****   for (i = 0; i < numSamples; i++)
 1173              		.loc 1 363 0 is_stmt 0 discriminator 1
 1174 00c4 7A69     		ldr	r2, [r7, #20]
 1175 00c6 7B68     		ldr	r3, [r7, #4]
 1176 00c8 9A42     		cmp	r2, r3
 1177 00ca A2D3     		bcc	.L75
 373:.\math_helper.c ****         }
 374:.\math_helper.c ****     }
 375:.\math_helper.c **** }
 1178              		.loc 1 375 0 is_stmt 1
 1179 00cc 1C37     		adds	r7, r7, #28
 1180 00ce BD46     		mov	sp, r7
 1181              		@ sp needed
 1182 00d0 F0BD     		pop	{r4, r5, r6, r7, pc}
 1183              	.L80:
 1184 00d2 00BF     		.align	2
 1185              	.L79:
 1186 00d4 0000E03F 		.word	1071644672
 1187 00d8 0000E0BF 		.word	-1075838976
 1188              		.cfi_endproc
 1189              	.LFE129:
 1190              		.size	arm_float_to_q30, .-arm_float_to_q30
 1191              		.section	.text.arm_float_to_q29,"ax",%progbits
 1192              		.align	2
 1193              		.global	arm_float_to_q29
 1194              		.thumb
 1195              		.thumb_func
 1196              		.type	arm_float_to_q29, %function
 1197              	arm_float_to_q29:
 1198              	.LFB130:
ARM GAS  C:\Users\SCOTTC~1\AppData\Local\Temp\ccxvbY1Y.s 			page 29


 376:.\math_helper.c **** 
 377:.\math_helper.c **** /** 
 378:.\math_helper.c ****  * @brief  Converts float to fixed q30 format
 379:.\math_helper.c ****  * @param  uint32_t 	number of samples in the buffer
 380:.\math_helper.c ****  * @return none
 381:.\math_helper.c ****  * The function converts floating point values to fixed point values 
 382:.\math_helper.c ****  */
 383:.\math_helper.c **** 
 384:.\math_helper.c **** void arm_float_to_q29 (float *pIn, q31_t * pOut, 
 385:.\math_helper.c **** 					   uint32_t numSamples)
 386:.\math_helper.c **** {
 1199              		.loc 1 386 0
 1200              		.cfi_startproc
 1201              		@ args = 0, pretend = 0, frame = 24
 1202              		@ frame_needed = 1, uses_anonymous_args = 0
 1203 0000 F0B5     		push	{r4, r5, r6, r7, lr}
 1204              		.cfi_def_cfa_offset 20
 1205              		.cfi_offset 4, -20
 1206              		.cfi_offset 5, -16
 1207              		.cfi_offset 6, -12
 1208              		.cfi_offset 7, -8
 1209              		.cfi_offset 14, -4
 1210 0002 87B0     		sub	sp, sp, #28
 1211              		.cfi_def_cfa_offset 48
 1212 0004 00AF     		add	r7, sp, #0
 1213              		.cfi_def_cfa_register 7
 1214 0006 F860     		str	r0, [r7, #12]
 1215 0008 B960     		str	r1, [r7, #8]
 1216 000a 7A60     		str	r2, [r7, #4]
 387:.\math_helper.c ****   uint32_t i;
 388:.\math_helper.c **** 
 389:.\math_helper.c ****   for (i = 0; i < numSamples; i++)
 1217              		.loc 1 389 0
 1218 000c 0023     		movs	r3, #0
 1219 000e 7B61     		str	r3, [r7, #20]
 1220 0010 58E0     		b	.L82
 1221              	.L88:
 390:.\math_helper.c ****     {
 391:.\math_helper.c **** 	  /* 1073741824.0f corresponds to pow(2, 30) */
 392:.\math_helper.c ****       pOut[i] = (q31_t) (pIn[i] * 536870912.0f);
 1222              		.loc 1 392 0
 1223 0012 7B69     		ldr	r3, [r7, #20]
 1224 0014 9B00     		lsls	r3, r3, #2
 1225 0016 BA68     		ldr	r2, [r7, #8]
 1226 0018 D418     		adds	r4, r2, r3
 1227 001a 7B69     		ldr	r3, [r7, #20]
 1228 001c 9B00     		lsls	r3, r3, #2
 1229 001e FA68     		ldr	r2, [r7, #12]
 1230 0020 1344     		add	r3, r3, r2
 1231 0022 1B68     		ldr	r3, [r3]	@ float
 1232 0024 1846     		mov	r0, r3
 1233 0026 4FF09C41 		mov	r1, #1308622848
 1234 002a FFF7FEFF 		bl	__aeabi_fmul
 1235 002e 0346     		mov	r3, r0
 1236 0030 1846     		mov	r0, r3
 1237 0032 FFF7FEFF 		bl	__aeabi_f2iz
 1238 0036 0346     		mov	r3, r0
ARM GAS  C:\Users\SCOTTC~1\AppData\Local\Temp\ccxvbY1Y.s 			page 30


 1239 0038 2360     		str	r3, [r4]
 393:.\math_helper.c **** 
 394:.\math_helper.c ****       pOut[i] += pIn[i] > 0 ? 0.5 : -0.5;
 1240              		.loc 1 394 0
 1241 003a 7B69     		ldr	r3, [r7, #20]
 1242 003c 9B00     		lsls	r3, r3, #2
 1243 003e BA68     		ldr	r2, [r7, #8]
 1244 0040 D618     		adds	r6, r2, r3
 1245 0042 7B69     		ldr	r3, [r7, #20]
 1246 0044 9B00     		lsls	r3, r3, #2
 1247 0046 BA68     		ldr	r2, [r7, #8]
 1248 0048 1344     		add	r3, r3, r2
 1249 004a 1B68     		ldr	r3, [r3]
 1250 004c 1846     		mov	r0, r3
 1251 004e FFF7FEFF 		bl	__aeabi_i2d
 1252 0052 0446     		mov	r4, r0
 1253 0054 0D46     		mov	r5, r1
 1254 0056 7B69     		ldr	r3, [r7, #20]
 1255 0058 9B00     		lsls	r3, r3, #2
 1256 005a FA68     		ldr	r2, [r7, #12]
 1257 005c 1344     		add	r3, r3, r2
 1258 005e 1B68     		ldr	r3, [r3]	@ float
 1259 0060 1846     		mov	r0, r3
 1260 0062 4FF00001 		mov	r1, #0
 1261 0066 FFF7FEFF 		bl	__aeabi_fcmpgt
 1262 006a 0346     		mov	r3, r0
 1263 006c 002B     		cmp	r3, #0
 1264 006e 03D0     		beq	.L91
 1265              		.loc 1 394 0 is_stmt 0 discriminator 1
 1266 0070 4FF00002 		mov	r2, #0
 1267 0074 174B     		ldr	r3, .L92
 1268 0076 02E0     		b	.L85
 1269              	.L91:
 1270              		.loc 1 394 0 discriminator 2
 1271 0078 4FF00002 		mov	r2, #0
 1272 007c 164B     		ldr	r3, .L92+4
 1273              	.L85:
 1274              		.loc 1 394 0 discriminator 3
 1275 007e 2046     		mov	r0, r4
 1276 0080 2946     		mov	r1, r5
 1277 0082 FFF7FEFF 		bl	__aeabi_dadd
 1278 0086 0246     		mov	r2, r0
 1279 0088 0B46     		mov	r3, r1
 1280 008a 1046     		mov	r0, r2
 1281 008c 1946     		mov	r1, r3
 1282 008e FFF7FEFF 		bl	__aeabi_d2iz
 1283 0092 0346     		mov	r3, r0
 1284 0094 3360     		str	r3, [r6]
 395:.\math_helper.c **** 
 396:.\math_helper.c ****       if (pIn[i] == (float) 4.0)
 1285              		.loc 1 396 0 is_stmt 1 discriminator 3
 1286 0096 7B69     		ldr	r3, [r7, #20]
 1287 0098 9B00     		lsls	r3, r3, #2
 1288 009a FA68     		ldr	r2, [r7, #12]
 1289 009c 1344     		add	r3, r3, r2
 1290 009e 1B68     		ldr	r3, [r3]	@ float
 1291 00a0 1846     		mov	r0, r3
ARM GAS  C:\Users\SCOTTC~1\AppData\Local\Temp\ccxvbY1Y.s 			page 31


 1292 00a2 4FF08141 		mov	r1, #1082130432
 1293 00a6 FFF7FEFF 		bl	__aeabi_fcmpeq
 1294 00aa 0346     		mov	r3, r0
 1295 00ac 002B     		cmp	r3, #0
 1296 00ae 06D0     		beq	.L86
 397:.\math_helper.c ****         {
 398:.\math_helper.c ****           pOut[i] = 0x7FFFFFFF;
 1297              		.loc 1 398 0
 1298 00b0 7B69     		ldr	r3, [r7, #20]
 1299 00b2 9B00     		lsls	r3, r3, #2
 1300 00b4 BA68     		ldr	r2, [r7, #8]
 1301 00b6 1344     		add	r3, r3, r2
 1302 00b8 6FF00042 		mvn	r2, #-2147483648
 1303 00bc 1A60     		str	r2, [r3]
 1304              	.L86:
 389:.\math_helper.c ****   for (i = 0; i < numSamples; i++)
 1305              		.loc 1 389 0
 1306 00be 7B69     		ldr	r3, [r7, #20]
 1307 00c0 0133     		adds	r3, r3, #1
 1308 00c2 7B61     		str	r3, [r7, #20]
 1309              	.L82:
 389:.\math_helper.c ****   for (i = 0; i < numSamples; i++)
 1310              		.loc 1 389 0 is_stmt 0 discriminator 1
 1311 00c4 7A69     		ldr	r2, [r7, #20]
 1312 00c6 7B68     		ldr	r3, [r7, #4]
 1313 00c8 9A42     		cmp	r2, r3
 1314 00ca A2D3     		bcc	.L88
 399:.\math_helper.c ****         }
 400:.\math_helper.c ****     }
 401:.\math_helper.c **** }
 1315              		.loc 1 401 0 is_stmt 1
 1316 00cc 1C37     		adds	r7, r7, #28
 1317 00ce BD46     		mov	sp, r7
 1318              		@ sp needed
 1319 00d0 F0BD     		pop	{r4, r5, r6, r7, pc}
 1320              	.L93:
 1321 00d2 00BF     		.align	2
 1322              	.L92:
 1323 00d4 0000E03F 		.word	1071644672
 1324 00d8 0000E0BF 		.word	-1075838976
 1325              		.cfi_endproc
 1326              	.LFE130:
 1327              		.size	arm_float_to_q29, .-arm_float_to_q29
 1328              		.section	.text.arm_float_to_q28,"ax",%progbits
 1329              		.align	2
 1330              		.global	arm_float_to_q28
 1331              		.thumb
 1332              		.thumb_func
 1333              		.type	arm_float_to_q28, %function
 1334              	arm_float_to_q28:
 1335              	.LFB131:
 402:.\math_helper.c **** 
 403:.\math_helper.c **** 
 404:.\math_helper.c **** /** 
 405:.\math_helper.c ****  * @brief  Converts float to fixed q28 format
 406:.\math_helper.c ****  * @param  uint32_t 	number of samples in the buffer
 407:.\math_helper.c ****  * @return none
ARM GAS  C:\Users\SCOTTC~1\AppData\Local\Temp\ccxvbY1Y.s 			page 32


 408:.\math_helper.c ****  * The function converts floating point values to fixed point values 
 409:.\math_helper.c ****  */
 410:.\math_helper.c **** 
 411:.\math_helper.c **** void arm_float_to_q28 (float *pIn, q31_t * pOut, 
 412:.\math_helper.c ****                        uint32_t numSamples)
 413:.\math_helper.c **** {
 1336              		.loc 1 413 0
 1337              		.cfi_startproc
 1338              		@ args = 0, pretend = 0, frame = 24
 1339              		@ frame_needed = 1, uses_anonymous_args = 0
 1340 0000 F0B5     		push	{r4, r5, r6, r7, lr}
 1341              		.cfi_def_cfa_offset 20
 1342              		.cfi_offset 4, -20
 1343              		.cfi_offset 5, -16
 1344              		.cfi_offset 6, -12
 1345              		.cfi_offset 7, -8
 1346              		.cfi_offset 14, -4
 1347 0002 87B0     		sub	sp, sp, #28
 1348              		.cfi_def_cfa_offset 48
 1349 0004 00AF     		add	r7, sp, #0
 1350              		.cfi_def_cfa_register 7
 1351 0006 F860     		str	r0, [r7, #12]
 1352 0008 B960     		str	r1, [r7, #8]
 1353 000a 7A60     		str	r2, [r7, #4]
 414:.\math_helper.c ****   uint32_t i;
 415:.\math_helper.c **** 
 416:.\math_helper.c ****   for (i = 0; i < numSamples; i++)
 1354              		.loc 1 416 0
 1355 000c 0023     		movs	r3, #0
 1356 000e 7B61     		str	r3, [r7, #20]
 1357 0010 58E0     		b	.L95
 1358              	.L101:
 417:.\math_helper.c ****     {
 418:.\math_helper.c **** 	/* 268435456.0f corresponds to pow(2, 28) */
 419:.\math_helper.c ****       pOut[i] = (q31_t) (pIn[i] * 268435456.0f);
 1359              		.loc 1 419 0
 1360 0012 7B69     		ldr	r3, [r7, #20]
 1361 0014 9B00     		lsls	r3, r3, #2
 1362 0016 BA68     		ldr	r2, [r7, #8]
 1363 0018 D418     		adds	r4, r2, r3
 1364 001a 7B69     		ldr	r3, [r7, #20]
 1365 001c 9B00     		lsls	r3, r3, #2
 1366 001e FA68     		ldr	r2, [r7, #12]
 1367 0020 1344     		add	r3, r3, r2
 1368 0022 1B68     		ldr	r3, [r3]	@ float
 1369 0024 1846     		mov	r0, r3
 1370 0026 4FF09B41 		mov	r1, #1300234240
 1371 002a FFF7FEFF 		bl	__aeabi_fmul
 1372 002e 0346     		mov	r3, r0
 1373 0030 1846     		mov	r0, r3
 1374 0032 FFF7FEFF 		bl	__aeabi_f2iz
 1375 0036 0346     		mov	r3, r0
 1376 0038 2360     		str	r3, [r4]
 420:.\math_helper.c **** 
 421:.\math_helper.c ****       pOut[i] += pIn[i] > 0 ? 0.5 : -0.5;
 1377              		.loc 1 421 0
 1378 003a 7B69     		ldr	r3, [r7, #20]
ARM GAS  C:\Users\SCOTTC~1\AppData\Local\Temp\ccxvbY1Y.s 			page 33


 1379 003c 9B00     		lsls	r3, r3, #2
 1380 003e BA68     		ldr	r2, [r7, #8]
 1381 0040 D618     		adds	r6, r2, r3
 1382 0042 7B69     		ldr	r3, [r7, #20]
 1383 0044 9B00     		lsls	r3, r3, #2
 1384 0046 BA68     		ldr	r2, [r7, #8]
 1385 0048 1344     		add	r3, r3, r2
 1386 004a 1B68     		ldr	r3, [r3]
 1387 004c 1846     		mov	r0, r3
 1388 004e FFF7FEFF 		bl	__aeabi_i2d
 1389 0052 0446     		mov	r4, r0
 1390 0054 0D46     		mov	r5, r1
 1391 0056 7B69     		ldr	r3, [r7, #20]
 1392 0058 9B00     		lsls	r3, r3, #2
 1393 005a FA68     		ldr	r2, [r7, #12]
 1394 005c 1344     		add	r3, r3, r2
 1395 005e 1B68     		ldr	r3, [r3]	@ float
 1396 0060 1846     		mov	r0, r3
 1397 0062 4FF00001 		mov	r1, #0
 1398 0066 FFF7FEFF 		bl	__aeabi_fcmpgt
 1399 006a 0346     		mov	r3, r0
 1400 006c 002B     		cmp	r3, #0
 1401 006e 03D0     		beq	.L104
 1402              		.loc 1 421 0 is_stmt 0 discriminator 1
 1403 0070 4FF00002 		mov	r2, #0
 1404 0074 174B     		ldr	r3, .L105
 1405 0076 02E0     		b	.L98
 1406              	.L104:
 1407              		.loc 1 421 0 discriminator 2
 1408 0078 4FF00002 		mov	r2, #0
 1409 007c 164B     		ldr	r3, .L105+4
 1410              	.L98:
 1411              		.loc 1 421 0 discriminator 3
 1412 007e 2046     		mov	r0, r4
 1413 0080 2946     		mov	r1, r5
 1414 0082 FFF7FEFF 		bl	__aeabi_dadd
 1415 0086 0246     		mov	r2, r0
 1416 0088 0B46     		mov	r3, r1
 1417 008a 1046     		mov	r0, r2
 1418 008c 1946     		mov	r1, r3
 1419 008e FFF7FEFF 		bl	__aeabi_d2iz
 1420 0092 0346     		mov	r3, r0
 1421 0094 3360     		str	r3, [r6]
 422:.\math_helper.c **** 
 423:.\math_helper.c ****       if (pIn[i] == (float) 8.0)
 1422              		.loc 1 423 0 is_stmt 1 discriminator 3
 1423 0096 7B69     		ldr	r3, [r7, #20]
 1424 0098 9B00     		lsls	r3, r3, #2
 1425 009a FA68     		ldr	r2, [r7, #12]
 1426 009c 1344     		add	r3, r3, r2
 1427 009e 1B68     		ldr	r3, [r3]	@ float
 1428 00a0 1846     		mov	r0, r3
 1429 00a2 4FF08241 		mov	r1, #1090519040
 1430 00a6 FFF7FEFF 		bl	__aeabi_fcmpeq
 1431 00aa 0346     		mov	r3, r0
 1432 00ac 002B     		cmp	r3, #0
 1433 00ae 06D0     		beq	.L99
ARM GAS  C:\Users\SCOTTC~1\AppData\Local\Temp\ccxvbY1Y.s 			page 34


 424:.\math_helper.c ****         {
 425:.\math_helper.c ****           pOut[i] = 0x7FFFFFFF;
 1434              		.loc 1 425 0
 1435 00b0 7B69     		ldr	r3, [r7, #20]
 1436 00b2 9B00     		lsls	r3, r3, #2
 1437 00b4 BA68     		ldr	r2, [r7, #8]
 1438 00b6 1344     		add	r3, r3, r2
 1439 00b8 6FF00042 		mvn	r2, #-2147483648
 1440 00bc 1A60     		str	r2, [r3]
 1441              	.L99:
 416:.\math_helper.c ****   for (i = 0; i < numSamples; i++)
 1442              		.loc 1 416 0
 1443 00be 7B69     		ldr	r3, [r7, #20]
 1444 00c0 0133     		adds	r3, r3, #1
 1445 00c2 7B61     		str	r3, [r7, #20]
 1446              	.L95:
 416:.\math_helper.c ****   for (i = 0; i < numSamples; i++)
 1447              		.loc 1 416 0 is_stmt 0 discriminator 1
 1448 00c4 7A69     		ldr	r2, [r7, #20]
 1449 00c6 7B68     		ldr	r3, [r7, #4]
 1450 00c8 9A42     		cmp	r2, r3
 1451 00ca A2D3     		bcc	.L101
 426:.\math_helper.c ****         }
 427:.\math_helper.c ****     }
 428:.\math_helper.c **** }
 1452              		.loc 1 428 0 is_stmt 1
 1453 00cc 1C37     		adds	r7, r7, #28
 1454 00ce BD46     		mov	sp, r7
 1455              		@ sp needed
 1456 00d0 F0BD     		pop	{r4, r5, r6, r7, pc}
 1457              	.L106:
 1458 00d2 00BF     		.align	2
 1459              	.L105:
 1460 00d4 0000E03F 		.word	1071644672
 1461 00d8 0000E0BF 		.word	-1075838976
 1462              		.cfi_endproc
 1463              	.LFE131:
 1464              		.size	arm_float_to_q28, .-arm_float_to_q28
 1465              		.global	__aeabi_fcmplt
 1466              		.section	.text.arm_clip_f32,"ax",%progbits
 1467              		.align	2
 1468              		.global	arm_clip_f32
 1469              		.thumb
 1470              		.thumb_func
 1471              		.type	arm_clip_f32, %function
 1472              	arm_clip_f32:
 1473              	.LFB132:
 429:.\math_helper.c **** 
 430:.\math_helper.c **** /** 
 431:.\math_helper.c ****  * @brief  Clip the float values to +/- 1 
 432:.\math_helper.c ****  * @param  pIn 	input buffer
 433:.\math_helper.c ****  * @param  numSamples 	number of samples in the buffer
 434:.\math_helper.c ****  * @return none
 435:.\math_helper.c ****  * The function converts floating point values to fixed point values 
 436:.\math_helper.c ****  */
 437:.\math_helper.c **** 
 438:.\math_helper.c **** void arm_clip_f32 (float *pIn, uint32_t numSamples)
ARM GAS  C:\Users\SCOTTC~1\AppData\Local\Temp\ccxvbY1Y.s 			page 35


 439:.\math_helper.c **** {
 1474              		.loc 1 439 0
 1475              		.cfi_startproc
 1476              		@ args = 0, pretend = 0, frame = 16
 1477              		@ frame_needed = 1, uses_anonymous_args = 0
 1478 0000 80B5     		push	{r7, lr}
 1479              		.cfi_def_cfa_offset 8
 1480              		.cfi_offset 7, -8
 1481              		.cfi_offset 14, -4
 1482 0002 84B0     		sub	sp, sp, #16
 1483              		.cfi_def_cfa_offset 24
 1484 0004 00AF     		add	r7, sp, #0
 1485              		.cfi_def_cfa_register 7
 1486 0006 7860     		str	r0, [r7, #4]
 1487 0008 3960     		str	r1, [r7]
 440:.\math_helper.c ****   uint32_t i;
 441:.\math_helper.c **** 
 442:.\math_helper.c ****   for (i = 0; i < numSamples; i++)
 1488              		.loc 1 442 0
 1489 000a 0023     		movs	r3, #0
 1490 000c FB60     		str	r3, [r7, #12]
 1491 000e 29E0     		b	.L108
 1492              	.L113:
 443:.\math_helper.c ****     {
 444:.\math_helper.c ****       if(pIn[i] > 1.0f)
 1493              		.loc 1 444 0
 1494 0010 FB68     		ldr	r3, [r7, #12]
 1495 0012 9B00     		lsls	r3, r3, #2
 1496 0014 7A68     		ldr	r2, [r7, #4]
 1497 0016 1344     		add	r3, r3, r2
 1498 0018 1B68     		ldr	r3, [r3]	@ float
 1499 001a 1846     		mov	r0, r3
 1500 001c 4FF07E51 		mov	r1, #1065353216
 1501 0020 FFF7FEFF 		bl	__aeabi_fcmpgt
 1502 0024 0346     		mov	r3, r0
 1503 0026 002B     		cmp	r3, #0
 1504 0028 07D0     		beq	.L116
 445:.\math_helper.c **** 	  {
 446:.\math_helper.c **** 	    pIn[i] = 1.0;
 1505              		.loc 1 446 0
 1506 002a FB68     		ldr	r3, [r7, #12]
 1507 002c 9B00     		lsls	r3, r3, #2
 1508 002e 7A68     		ldr	r2, [r7, #4]
 1509 0030 1344     		add	r3, r3, r2
 1510 0032 4FF07E52 		mov	r2, #1065353216
 1511 0036 1A60     		str	r2, [r3]	@ float
 1512 0038 11E0     		b	.L111
 1513              	.L116:
 447:.\math_helper.c **** 	  }
 448:.\math_helper.c **** 	  else if( pIn[i] < -1.0f)
 1514              		.loc 1 448 0
 1515 003a FB68     		ldr	r3, [r7, #12]
 1516 003c 9B00     		lsls	r3, r3, #2
 1517 003e 7A68     		ldr	r2, [r7, #4]
 1518 0040 1344     		add	r3, r3, r2
 1519 0042 1B68     		ldr	r3, [r3]	@ float
 1520 0044 1846     		mov	r0, r3
ARM GAS  C:\Users\SCOTTC~1\AppData\Local\Temp\ccxvbY1Y.s 			page 36


 1521 0046 0B49     		ldr	r1, .L117
 1522 0048 FFF7FEFF 		bl	__aeabi_fcmplt
 1523 004c 0346     		mov	r3, r0
 1524 004e 002B     		cmp	r3, #0
 1525 0050 05D0     		beq	.L111
 449:.\math_helper.c **** 	  {
 450:.\math_helper.c **** 	    pIn[i] = -1.0;
 1526              		.loc 1 450 0
 1527 0052 FB68     		ldr	r3, [r7, #12]
 1528 0054 9B00     		lsls	r3, r3, #2
 1529 0056 7A68     		ldr	r2, [r7, #4]
 1530 0058 1344     		add	r3, r3, r2
 1531 005a 064A     		ldr	r2, .L117
 1532 005c 1A60     		str	r2, [r3]	@ float
 1533              	.L111:
 442:.\math_helper.c ****   for (i = 0; i < numSamples; i++)
 1534              		.loc 1 442 0
 1535 005e FB68     		ldr	r3, [r7, #12]
 1536 0060 0133     		adds	r3, r3, #1
 1537 0062 FB60     		str	r3, [r7, #12]
 1538              	.L108:
 442:.\math_helper.c ****   for (i = 0; i < numSamples; i++)
 1539              		.loc 1 442 0 is_stmt 0 discriminator 1
 1540 0064 FA68     		ldr	r2, [r7, #12]
 1541 0066 3B68     		ldr	r3, [r7]
 1542 0068 9A42     		cmp	r2, r3
 1543 006a D1D3     		bcc	.L113
 451:.\math_helper.c **** 	  }
 452:.\math_helper.c **** 	       
 453:.\math_helper.c ****     }
 454:.\math_helper.c **** }
 1544              		.loc 1 454 0 is_stmt 1
 1545 006c 1037     		adds	r7, r7, #16
 1546 006e BD46     		mov	sp, r7
 1547              		@ sp needed
 1548 0070 80BD     		pop	{r7, pc}
 1549              	.L118:
 1550 0072 00BF     		.align	2
 1551              	.L117:
 1552 0074 000080BF 		.word	-1082130432
 1553              		.cfi_endproc
 1554              	.LFE132:
 1555              		.size	arm_clip_f32, .-arm_clip_f32
 1556              		.text
 1557              	.Letext0:
 1558              		.file 2 "c:\\program files\\cypress\\psoc creator\\3.2\\psoc creator\\import\\gnu\\arm\\4.8.4\\arm
 1559              		.file 3 "c:\\program files\\cypress\\psoc creator\\3.2\\psoc creator\\import\\gnu\\arm\\4.8.4\\arm
 1560              		.file 4 "Z:\\scottcarlson On My Mac\\Code\\repos\\LED_controller\\CMSISfile\\CMSIS\\Include/arm_ma
 1561              		.file 5 "Z:\\scottcarlson On My Mac\\Code\\repos\\LED_controller\\CMSISfile\\CMSIS\\Include/core_c