ARM GAS  C:\Users\SCOTTC~1\AppData\Local\Temp\cckOy2jK.s 			page 1


   1              		.syntax unified
   2              		.cpu cortex-m3
   3              		.fpu softvfp
   4              		.eabi_attribute 20, 1
   5              		.eabi_attribute 21, 1
   6              		.eabi_attribute 23, 3
   7              		.eabi_attribute 24, 1
   8              		.eabi_attribute 25, 1
   9              		.eabi_attribute 26, 1
  10              		.eabi_attribute 30, 6
  11              		.eabi_attribute 34, 1
  12              		.eabi_attribute 18, 4
  13              		.thumb
  14              		.file	"MultAcc_1_MACC.c"
  15              		.text
  16              	.Ltext0:
  17              		.cfi_sections	.debug_frame
  18              		.global	MultAcc_1_MACC_initVar
  19              		.bss
  20              		.type	MultAcc_1_MACC_initVar, %object
  21              		.size	MultAcc_1_MACC_initVar, 1
  22              	MultAcc_1_MACC_initVar:
  23 0000 00       		.space	1
  24              		.section	.text.MultAcc_1_MACC_LoadReg32,"ax",%progbits
  25              		.align	2
  26              		.thumb
  27              		.thumb_func
  28              		.type	MultAcc_1_MACC_LoadReg32, %function
  29              	MultAcc_1_MACC_LoadReg32:
  30              	.LFB0:
  31              		.file 1 ".\\Generated_Source\\PSoC5\\MultAcc_1_MACC.c"
   1:.\Generated_Source\PSoC5/MultAcc_1_MACC.c **** /*******************************************************************************
   2:.\Generated_Source\PSoC5/MultAcc_1_MACC.c **** * File Name: MultAcc_1_MACC.c
   3:.\Generated_Source\PSoC5/MultAcc_1_MACC.c **** * Version 1.30
   4:.\Generated_Source\PSoC5/MultAcc_1_MACC.c **** *
   5:.\Generated_Source\PSoC5/MultAcc_1_MACC.c **** * Description:
   6:.\Generated_Source\PSoC5/MultAcc_1_MACC.c **** *  This file provides the API source code for the DFB component.
   7:.\Generated_Source\PSoC5/MultAcc_1_MACC.c **** *
   8:.\Generated_Source\PSoC5/MultAcc_1_MACC.c **** * Note:
   9:.\Generated_Source\PSoC5/MultAcc_1_MACC.c **** *  None
  10:.\Generated_Source\PSoC5/MultAcc_1_MACC.c **** *
  11:.\Generated_Source\PSoC5/MultAcc_1_MACC.c **** ********************************************************************************
  12:.\Generated_Source\PSoC5/MultAcc_1_MACC.c **** * Copyright 2011-2013, Cypress Semiconductor Corporation.  All rights reserved.
  13:.\Generated_Source\PSoC5/MultAcc_1_MACC.c **** * You may use this file only in accordance with the license, terms, conditions,
  14:.\Generated_Source\PSoC5/MultAcc_1_MACC.c **** * disclaimers, and limitations in the end user license agreement accompanying
  15:.\Generated_Source\PSoC5/MultAcc_1_MACC.c **** * the software package with which this file was provided.
  16:.\Generated_Source\PSoC5/MultAcc_1_MACC.c **** *******************************************************************************/
  17:.\Generated_Source\PSoC5/MultAcc_1_MACC.c **** 
  18:.\Generated_Source\PSoC5/MultAcc_1_MACC.c **** #include "MultAcc_1_MACC.h"
  19:.\Generated_Source\PSoC5/MultAcc_1_MACC.c **** 
  20:.\Generated_Source\PSoC5/MultAcc_1_MACC.c **** static void MultAcc_1_MACC_LoadReg32(reg32 regAddress[], const uint32 source[], uint8 count);
  21:.\Generated_Source\PSoC5/MultAcc_1_MACC.c **** static void MultAcc_1_MACC_ZeroReg32(reg32 regAddress[], uint8 count);
  22:.\Generated_Source\PSoC5/MultAcc_1_MACC.c **** 
  23:.\Generated_Source\PSoC5/MultAcc_1_MACC.c **** uint8 MultAcc_1_MACC_initVar = 0u;
  24:.\Generated_Source\PSoC5/MultAcc_1_MACC.c **** 
  25:.\Generated_Source\PSoC5/MultAcc_1_MACC.c **** 
  26:.\Generated_Source\PSoC5/MultAcc_1_MACC.c **** /*******************************************************************************
ARM GAS  C:\Users\SCOTTC~1\AppData\Local\Temp\cckOy2jK.s 			page 2


  27:.\Generated_Source\PSoC5/MultAcc_1_MACC.c **** * Function Name: MultAcc_1_MACC_LoadReg32
  28:.\Generated_Source\PSoC5/MultAcc_1_MACC.c **** ********************************************************************************
  29:.\Generated_Source\PSoC5/MultAcc_1_MACC.c **** * 
  30:.\Generated_Source\PSoC5/MultAcc_1_MACC.c **** * Summary:
  31:.\Generated_Source\PSoC5/MultAcc_1_MACC.c **** *  This function loads initial values/data to appropriate registers.
  32:.\Generated_Source\PSoC5/MultAcc_1_MACC.c **** *
  33:.\Generated_Source\PSoC5/MultAcc_1_MACC.c **** * Parameters:
  34:.\Generated_Source\PSoC5/MultAcc_1_MACC.c **** *  reg32 regAddress[]: register address;
  35:.\Generated_Source\PSoC5/MultAcc_1_MACC.c **** *  const uint32 source[]: data for load;
  36:.\Generated_Source\PSoC5/MultAcc_1_MACC.c **** *  uint8 count: number of 32-bit registers for load.
  37:.\Generated_Source\PSoC5/MultAcc_1_MACC.c **** *
  38:.\Generated_Source\PSoC5/MultAcc_1_MACC.c **** * Return:
  39:.\Generated_Source\PSoC5/MultAcc_1_MACC.c **** *  None.
  40:.\Generated_Source\PSoC5/MultAcc_1_MACC.c **** *
  41:.\Generated_Source\PSoC5/MultAcc_1_MACC.c **** * Note:
  42:.\Generated_Source\PSoC5/MultAcc_1_MACC.c **** *  Data loads starts from "regAddress" address and affects on "count" numbers of
  43:.\Generated_Source\PSoC5/MultAcc_1_MACC.c **** *  successive registers.
  44:.\Generated_Source\PSoC5/MultAcc_1_MACC.c **** *
  45:.\Generated_Source\PSoC5/MultAcc_1_MACC.c **** *******************************************************************************/
  46:.\Generated_Source\PSoC5/MultAcc_1_MACC.c **** static void MultAcc_1_MACC_LoadReg32(reg32 regAddress[], const uint32 source[], uint8 count)
  47:.\Generated_Source\PSoC5/MultAcc_1_MACC.c **** {
  32              		.loc 1 47 0
  33              		.cfi_startproc
  34              		@ args = 0, pretend = 0, frame = 24
  35              		@ frame_needed = 1, uses_anonymous_args = 0
  36              		@ link register save eliminated.
  37 0000 80B4     		push	{r7}
  38              		.cfi_def_cfa_offset 4
  39              		.cfi_offset 7, -4
  40 0002 87B0     		sub	sp, sp, #28
  41              		.cfi_def_cfa_offset 32
  42 0004 00AF     		add	r7, sp, #0
  43              		.cfi_def_cfa_register 7
  44 0006 F860     		str	r0, [r7, #12]
  45 0008 B960     		str	r1, [r7, #8]
  46 000a 1346     		mov	r3, r2
  47 000c FB71     		strb	r3, [r7, #7]
  48:.\Generated_Source\PSoC5/MultAcc_1_MACC.c ****     uint8 i = 0u;
  48              		.loc 1 48 0
  49 000e 0023     		movs	r3, #0
  50 0010 FB75     		strb	r3, [r7, #23]
  49:.\Generated_Source\PSoC5/MultAcc_1_MACC.c ****     
  50:.\Generated_Source\PSoC5/MultAcc_1_MACC.c ****     while (count > 0u)
  51              		.loc 1 50 0
  52 0012 0FE0     		b	.L2
  53              	.L3:
  51:.\Generated_Source\PSoC5/MultAcc_1_MACC.c ****     {
  52:.\Generated_Source\PSoC5/MultAcc_1_MACC.c ****         CY_SET_REG32(& regAddress[i], source[i]);
  54              		.loc 1 52 0
  55 0014 FB7D     		ldrb	r3, [r7, #23]	@ zero_extendqisi2
  56 0016 9B00     		lsls	r3, r3, #2
  57 0018 FA68     		ldr	r2, [r7, #12]
  58 001a 1344     		add	r3, r3, r2
  59 001c FA7D     		ldrb	r2, [r7, #23]	@ zero_extendqisi2
  60 001e 9200     		lsls	r2, r2, #2
  61 0020 B968     		ldr	r1, [r7, #8]
  62 0022 0A44     		add	r2, r2, r1
ARM GAS  C:\Users\SCOTTC~1\AppData\Local\Temp\cckOy2jK.s 			page 3


  63 0024 1268     		ldr	r2, [r2]
  64 0026 1A60     		str	r2, [r3]
  53:.\Generated_Source\PSoC5/MultAcc_1_MACC.c ****         count--;
  65              		.loc 1 53 0
  66 0028 FB79     		ldrb	r3, [r7, #7]	@ zero_extendqisi2
  67 002a 013B     		subs	r3, r3, #1
  68 002c FB71     		strb	r3, [r7, #7]
  54:.\Generated_Source\PSoC5/MultAcc_1_MACC.c ****         i++;
  69              		.loc 1 54 0
  70 002e FB7D     		ldrb	r3, [r7, #23]	@ zero_extendqisi2
  71 0030 0133     		adds	r3, r3, #1
  72 0032 FB75     		strb	r3, [r7, #23]
  73              	.L2:
  50:.\Generated_Source\PSoC5/MultAcc_1_MACC.c ****     while (count > 0u)
  74              		.loc 1 50 0 discriminator 1
  75 0034 FB79     		ldrb	r3, [r7, #7]	@ zero_extendqisi2
  76 0036 002B     		cmp	r3, #0
  77 0038 ECD1     		bne	.L3
  55:.\Generated_Source\PSoC5/MultAcc_1_MACC.c ****     }
  56:.\Generated_Source\PSoC5/MultAcc_1_MACC.c **** }
  78              		.loc 1 56 0
  79 003a 1C37     		adds	r7, r7, #28
  80 003c BD46     		mov	sp, r7
  81              		@ sp needed
  82 003e 5DF8047B 		ldr	r7, [sp], #4
  83 0042 7047     		bx	lr
  84              		.cfi_endproc
  85              	.LFE0:
  86              		.size	MultAcc_1_MACC_LoadReg32, .-MultAcc_1_MACC_LoadReg32
  87              		.section	.text.MultAcc_1_MACC_ZeroReg32,"ax",%progbits
  88              		.align	2
  89              		.thumb
  90              		.thumb_func
  91              		.type	MultAcc_1_MACC_ZeroReg32, %function
  92              	MultAcc_1_MACC_ZeroReg32:
  93              	.LFB1:
  57:.\Generated_Source\PSoC5/MultAcc_1_MACC.c **** 
  58:.\Generated_Source\PSoC5/MultAcc_1_MACC.c **** 
  59:.\Generated_Source\PSoC5/MultAcc_1_MACC.c **** /*******************************************************************************
  60:.\Generated_Source\PSoC5/MultAcc_1_MACC.c **** * Function Name: MultAcc_1_MACC_ZeroReg32
  61:.\Generated_Source\PSoC5/MultAcc_1_MACC.c **** ********************************************************************************
  62:.\Generated_Source\PSoC5/MultAcc_1_MACC.c **** * 
  63:.\Generated_Source\PSoC5/MultAcc_1_MACC.c **** * Summary:
  64:.\Generated_Source\PSoC5/MultAcc_1_MACC.c **** *  This function zeroize registers.
  65:.\Generated_Source\PSoC5/MultAcc_1_MACC.c **** *
  66:.\Generated_Source\PSoC5/MultAcc_1_MACC.c **** * Parameters:
  67:.\Generated_Source\PSoC5/MultAcc_1_MACC.c **** *  reg32 regAddress[]: register address;
  68:.\Generated_Source\PSoC5/MultAcc_1_MACC.c **** *  uint8 count: number of 32-bit registers for zeroing.
  69:.\Generated_Source\PSoC5/MultAcc_1_MACC.c **** *
  70:.\Generated_Source\PSoC5/MultAcc_1_MACC.c **** * Return:
  71:.\Generated_Source\PSoC5/MultAcc_1_MACC.c **** *  None.
  72:.\Generated_Source\PSoC5/MultAcc_1_MACC.c **** *
  73:.\Generated_Source\PSoC5/MultAcc_1_MACC.c **** * Note:
  74:.\Generated_Source\PSoC5/MultAcc_1_MACC.c **** *  Zeroing starts from "regAddress" address and affects on "count" numbers of
  75:.\Generated_Source\PSoC5/MultAcc_1_MACC.c **** *  successive registers.
  76:.\Generated_Source\PSoC5/MultAcc_1_MACC.c **** *
  77:.\Generated_Source\PSoC5/MultAcc_1_MACC.c **** *******************************************************************************/
ARM GAS  C:\Users\SCOTTC~1\AppData\Local\Temp\cckOy2jK.s 			page 4


  78:.\Generated_Source\PSoC5/MultAcc_1_MACC.c **** static void MultAcc_1_MACC_ZeroReg32(reg32 regAddress[], uint8 count)
  79:.\Generated_Source\PSoC5/MultAcc_1_MACC.c **** {
  94              		.loc 1 79 0
  95              		.cfi_startproc
  96              		@ args = 0, pretend = 0, frame = 16
  97              		@ frame_needed = 1, uses_anonymous_args = 0
  98              		@ link register save eliminated.
  99 0000 80B4     		push	{r7}
 100              		.cfi_def_cfa_offset 4
 101              		.cfi_offset 7, -4
 102 0002 85B0     		sub	sp, sp, #20
 103              		.cfi_def_cfa_offset 24
 104 0004 00AF     		add	r7, sp, #0
 105              		.cfi_def_cfa_register 7
 106 0006 7860     		str	r0, [r7, #4]
 107 0008 0B46     		mov	r3, r1
 108 000a FB70     		strb	r3, [r7, #3]
  80:.\Generated_Source\PSoC5/MultAcc_1_MACC.c ****     uint8 i = 0u;
 109              		.loc 1 80 0
 110 000c 0023     		movs	r3, #0
 111 000e FB73     		strb	r3, [r7, #15]
  81:.\Generated_Source\PSoC5/MultAcc_1_MACC.c ****     
  82:.\Generated_Source\PSoC5/MultAcc_1_MACC.c ****     while (count > 0u)
 112              		.loc 1 82 0
 113 0010 0BE0     		b	.L5
 114              	.L6:
  83:.\Generated_Source\PSoC5/MultAcc_1_MACC.c ****     {
  84:.\Generated_Source\PSoC5/MultAcc_1_MACC.c ****         CY_SET_REG32(& regAddress[i], 0u);
 115              		.loc 1 84 0
 116 0012 FB7B     		ldrb	r3, [r7, #15]	@ zero_extendqisi2
 117 0014 9B00     		lsls	r3, r3, #2
 118 0016 7A68     		ldr	r2, [r7, #4]
 119 0018 1344     		add	r3, r3, r2
 120 001a 0022     		movs	r2, #0
 121 001c 1A60     		str	r2, [r3]
  85:.\Generated_Source\PSoC5/MultAcc_1_MACC.c ****         count--;
 122              		.loc 1 85 0
 123 001e FB78     		ldrb	r3, [r7, #3]	@ zero_extendqisi2
 124 0020 013B     		subs	r3, r3, #1
 125 0022 FB70     		strb	r3, [r7, #3]
  86:.\Generated_Source\PSoC5/MultAcc_1_MACC.c ****         i++;
 126              		.loc 1 86 0
 127 0024 FB7B     		ldrb	r3, [r7, #15]	@ zero_extendqisi2
 128 0026 0133     		adds	r3, r3, #1
 129 0028 FB73     		strb	r3, [r7, #15]
 130              	.L5:
  82:.\Generated_Source\PSoC5/MultAcc_1_MACC.c ****     while (count > 0u)
 131              		.loc 1 82 0 discriminator 1
 132 002a FB78     		ldrb	r3, [r7, #3]	@ zero_extendqisi2
 133 002c 002B     		cmp	r3, #0
 134 002e F0D1     		bne	.L6
  87:.\Generated_Source\PSoC5/MultAcc_1_MACC.c ****     }
  88:.\Generated_Source\PSoC5/MultAcc_1_MACC.c **** }
 135              		.loc 1 88 0
 136 0030 1437     		adds	r7, r7, #20
 137 0032 BD46     		mov	sp, r7
 138              		@ sp needed
ARM GAS  C:\Users\SCOTTC~1\AppData\Local\Temp\cckOy2jK.s 			page 5


 139 0034 5DF8047B 		ldr	r7, [sp], #4
 140 0038 7047     		bx	lr
 141              		.cfi_endproc
 142              	.LFE1:
 143              		.size	MultAcc_1_MACC_ZeroReg32, .-MultAcc_1_MACC_ZeroReg32
 144 003a 00BF     		.section	.text.MultAcc_1_MACC_Init,"ax",%progbits
 145              		.align	2
 146              		.global	MultAcc_1_MACC_Init
 147              		.thumb
 148              		.thumb_func
 149              		.type	MultAcc_1_MACC_Init, %function
 150              	MultAcc_1_MACC_Init:
 151              	.LFB2:
  89:.\Generated_Source\PSoC5/MultAcc_1_MACC.c **** 
  90:.\Generated_Source\PSoC5/MultAcc_1_MACC.c **** 
  91:.\Generated_Source\PSoC5/MultAcc_1_MACC.c **** /*******************************************************************************
  92:.\Generated_Source\PSoC5/MultAcc_1_MACC.c **** * Function Name: MultAcc_1_MACC_Init
  93:.\Generated_Source\PSoC5/MultAcc_1_MACC.c **** ********************************************************************************
  94:.\Generated_Source\PSoC5/MultAcc_1_MACC.c **** * 
  95:.\Generated_Source\PSoC5/MultAcc_1_MACC.c **** * Summary:
  96:.\Generated_Source\PSoC5/MultAcc_1_MACC.c **** *  This function initializes or restores default the DFB component configuration
  97:.\Generated_Source\PSoC5/MultAcc_1_MACC.c **** *  provided with customizer:
  98:.\Generated_Source\PSoC5/MultAcc_1_MACC.c **** *   powers on DFB(PM_ACT_CFG), power on the RAM(DFB_RAM_EN),
  99:.\Generated_Source\PSoC5/MultAcc_1_MACC.c **** *   moves CSA/CSB/FSM/DataA/DataB/ACU data to the DFB ram using an 8051/ARM
 100:.\Generated_Source\PSoC5/MultAcc_1_MACC.c **** *   core,
 101:.\Generated_Source\PSoC5/MultAcc_1_MACC.c **** *   changes RAM DIR to DFB,
 102:.\Generated_Source\PSoC5/MultAcc_1_MACC.c **** *   sets interrupt mode,
 103:.\Generated_Source\PSoC5/MultAcc_1_MACC.c **** *   sets DMA mode,
 104:.\Generated_Source\PSoC5/MultAcc_1_MACC.c **** *   sets DSI outputs,
 105:.\Generated_Source\PSoC5/MultAcc_1_MACC.c **** *   clears all semaphore bits an pending interrupts.
 106:.\Generated_Source\PSoC5/MultAcc_1_MACC.c **** *
 107:.\Generated_Source\PSoC5/MultAcc_1_MACC.c **** * Parameters:
 108:.\Generated_Source\PSoC5/MultAcc_1_MACC.c **** *  None.
 109:.\Generated_Source\PSoC5/MultAcc_1_MACC.c **** *
 110:.\Generated_Source\PSoC5/MultAcc_1_MACC.c **** * Return:
 111:.\Generated_Source\PSoC5/MultAcc_1_MACC.c **** *  None.
 112:.\Generated_Source\PSoC5/MultAcc_1_MACC.c **** *
 113:.\Generated_Source\PSoC5/MultAcc_1_MACC.c **** * Side Effects:
 114:.\Generated_Source\PSoC5/MultAcc_1_MACC.c **** *  All registers will be reset to their initial values. This will reinitializes
 115:.\Generated_Source\PSoC5/MultAcc_1_MACC.c **** *  the component. This function turns off Run bit and enables power to the DFB
 116:.\Generated_Source\PSoC5/MultAcc_1_MACC.c **** *  block.
 117:.\Generated_Source\PSoC5/MultAcc_1_MACC.c **** *  Program loading takes ~6 ms.
 118:.\Generated_Source\PSoC5/MultAcc_1_MACC.c **** *
 119:.\Generated_Source\PSoC5/MultAcc_1_MACC.c **** *******************************************************************************/
 120:.\Generated_Source\PSoC5/MultAcc_1_MACC.c **** void MultAcc_1_MACC_Init(void) 
 121:.\Generated_Source\PSoC5/MultAcc_1_MACC.c **** {
 152              		.loc 1 121 0
 153              		.cfi_startproc
 154              		@ args = 0, pretend = 0, frame = 8
 155              		@ frame_needed = 1, uses_anonymous_args = 0
 156 0000 80B5     		push	{r7, lr}
 157              		.cfi_def_cfa_offset 8
 158              		.cfi_offset 7, -8
 159              		.cfi_offset 14, -4
 160 0002 82B0     		sub	sp, sp, #8
 161              		.cfi_def_cfa_offset 16
 162 0004 00AF     		add	r7, sp, #0
ARM GAS  C:\Users\SCOTTC~1\AppData\Local\Temp\cckOy2jK.s 			page 6


 163              		.cfi_def_cfa_register 7
 122:.\Generated_Source\PSoC5/MultAcc_1_MACC.c ****     uint8 enableInterrupts;
 123:.\Generated_Source\PSoC5/MultAcc_1_MACC.c **** 
 124:.\Generated_Source\PSoC5/MultAcc_1_MACC.c ****     enableInterrupts = CyEnterCriticalSection();
 164              		.loc 1 124 0
 165 0006 FFF7FEFF 		bl	CyEnterCriticalSection
 166 000a 0346     		mov	r3, r0
 167 000c FB71     		strb	r3, [r7, #7]
 125:.\Generated_Source\PSoC5/MultAcc_1_MACC.c **** 
 126:.\Generated_Source\PSoC5/MultAcc_1_MACC.c ****     /* Powers on DFB block */
 127:.\Generated_Source\PSoC5/MultAcc_1_MACC.c ****     MultAcc_1_MACC_PM_ACT_CFG_REG |= MultAcc_1_MACC_PM_ACT_MSK;
 168              		.loc 1 127 0
 169 000e 364B     		ldr	r3, .L8
 170 0010 354A     		ldr	r2, .L8
 171 0012 1278     		ldrb	r2, [r2]
 172 0014 D2B2     		uxtb	r2, r2
 173 0016 42F01002 		orr	r2, r2, #16
 174 001a D2B2     		uxtb	r2, r2
 175 001c 1A70     		strb	r2, [r3]
 128:.\Generated_Source\PSoC5/MultAcc_1_MACC.c ****     /* Enables DFB block in Alternate Active (Standby) mode */
 129:.\Generated_Source\PSoC5/MultAcc_1_MACC.c ****     MultAcc_1_MACC_PM_STBY_CFG_REG |= MultAcc_1_MACC_PM_STBY_MSK;
 176              		.loc 1 129 0
 177 001e 334B     		ldr	r3, .L8+4
 178 0020 324A     		ldr	r2, .L8+4
 179 0022 1278     		ldrb	r2, [r2]
 180 0024 D2B2     		uxtb	r2, r2
 181 0026 42F01002 		orr	r2, r2, #16
 182 002a D2B2     		uxtb	r2, r2
 183 002c 1A70     		strb	r2, [r3]
 130:.\Generated_Source\PSoC5/MultAcc_1_MACC.c **** 
 131:.\Generated_Source\PSoC5/MultAcc_1_MACC.c ****     CyExitCriticalSection(enableInterrupts);
 184              		.loc 1 131 0
 185 002e FB79     		ldrb	r3, [r7, #7]	@ zero_extendqisi2
 186 0030 1846     		mov	r0, r3
 187 0032 FFF7FEFF 		bl	CyExitCriticalSection
 132:.\Generated_Source\PSoC5/MultAcc_1_MACC.c **** 
 133:.\Generated_Source\PSoC5/MultAcc_1_MACC.c ****     /* Turns off Run Bit */
 134:.\Generated_Source\PSoC5/MultAcc_1_MACC.c ****     MultAcc_1_MACC_CR_REG &= (uint8) (~MultAcc_1_MACC_RUN_MASK);
 188              		.loc 1 134 0
 189 0036 2E4B     		ldr	r3, .L8+8
 190 0038 2D4A     		ldr	r2, .L8+8
 191 003a 1278     		ldrb	r2, [r2]
 192 003c D2B2     		uxtb	r2, r2
 193 003e 22F00102 		bic	r2, r2, #1
 194 0042 D2B2     		uxtb	r2, r2
 195 0044 1A70     		strb	r2, [r3]
 135:.\Generated_Source\PSoC5/MultAcc_1_MACC.c ****     /* Powers up the DFB RAMS */
 136:.\Generated_Source\PSoC5/MultAcc_1_MACC.c ****     MultAcc_1_MACC_RAM_EN_REG = MultAcc_1_MACC_RAM_DIR_BUS;
 196              		.loc 1 136 0
 197 0046 2B4B     		ldr	r3, .L8+12
 198 0048 3F22     		movs	r2, #63
 199 004a 1A70     		strb	r2, [r3]
 137:.\Generated_Source\PSoC5/MultAcc_1_MACC.c ****     /* Puts DFB RAM on the bus */
 138:.\Generated_Source\PSoC5/MultAcc_1_MACC.c ****     MultAcc_1_MACC_RAM_DIR_REG = MultAcc_1_MACC_RAM_DIR_BUS;
 200              		.loc 1 138 0
 201 004c 2A4B     		ldr	r3, .L8+16
 202 004e 3F22     		movs	r2, #63
ARM GAS  C:\Users\SCOTTC~1\AppData\Local\Temp\cckOy2jK.s 			page 7


 203 0050 1A70     		strb	r2, [r3]
 139:.\Generated_Source\PSoC5/MultAcc_1_MACC.c **** 
 140:.\Generated_Source\PSoC5/MultAcc_1_MACC.c ****     /* Clears all DFB RAM */
 141:.\Generated_Source\PSoC5/MultAcc_1_MACC.c ****     MultAcc_1_MACC_ZeroReg32(MultAcc_1_MACC_DA_RAM_PTR, MultAcc_1_MACC_DA_RAM_SIZE);
 204              		.loc 1 141 0
 205 0052 2A48     		ldr	r0, .L8+20
 206 0054 8021     		movs	r1, #128
 207 0056 FFF7FEFF 		bl	MultAcc_1_MACC_ZeroReg32
 142:.\Generated_Source\PSoC5/MultAcc_1_MACC.c ****     MultAcc_1_MACC_ZeroReg32(MultAcc_1_MACC_DB_RAM_PTR, MultAcc_1_MACC_DB_RAM_SIZE);
 208              		.loc 1 142 0
 209 005a 2948     		ldr	r0, .L8+24
 210 005c 8021     		movs	r1, #128
 211 005e FFF7FEFF 		bl	MultAcc_1_MACC_ZeroReg32
 143:.\Generated_Source\PSoC5/MultAcc_1_MACC.c ****     MultAcc_1_MACC_ZeroReg32(MultAcc_1_MACC_CSA_RAM_PTR, MultAcc_1_MACC_CSA_RAM_SIZE);
 212              		.loc 1 143 0
 213 0062 2848     		ldr	r0, .L8+28
 214 0064 4021     		movs	r1, #64
 215 0066 FFF7FEFF 		bl	MultAcc_1_MACC_ZeroReg32
 144:.\Generated_Source\PSoC5/MultAcc_1_MACC.c ****     MultAcc_1_MACC_ZeroReg32(MultAcc_1_MACC_CSB_RAM_PTR, MultAcc_1_MACC_CSB_RAM_SIZE);
 216              		.loc 1 144 0
 217 006a 2748     		ldr	r0, .L8+32
 218 006c 4021     		movs	r1, #64
 219 006e FFF7FEFF 		bl	MultAcc_1_MACC_ZeroReg32
 145:.\Generated_Source\PSoC5/MultAcc_1_MACC.c ****     MultAcc_1_MACC_ZeroReg32(MultAcc_1_MACC_ACU_RAM_PTR, MultAcc_1_MACC_ACU_RAM_SIZE);
 220              		.loc 1 145 0
 221 0072 2648     		ldr	r0, .L8+36
 222 0074 1021     		movs	r1, #16
 223 0076 FFF7FEFF 		bl	MultAcc_1_MACC_ZeroReg32
 146:.\Generated_Source\PSoC5/MultAcc_1_MACC.c ****     MultAcc_1_MACC_ZeroReg32(MultAcc_1_MACC_CFSM_RAM_PTR, MultAcc_1_MACC_CFSM_RAM_SIZE);
 224              		.loc 1 146 0
 225 007a 2548     		ldr	r0, .L8+40
 226 007c 4021     		movs	r1, #64
 227 007e FFF7FEFF 		bl	MultAcc_1_MACC_ZeroReg32
 147:.\Generated_Source\PSoC5/MultAcc_1_MACC.c **** 
 148:.\Generated_Source\PSoC5/MultAcc_1_MACC.c ****     /* Writes DFB RAMs */
 149:.\Generated_Source\PSoC5/MultAcc_1_MACC.c ****     /* Control Store RAMs */
 150:.\Generated_Source\PSoC5/MultAcc_1_MACC.c ****     #if (MultAcc_1_MACC_OPTIMIZE_ASSEMBLY)
 151:.\Generated_Source\PSoC5/MultAcc_1_MACC.c ****         MultAcc_1_MACC_LoadReg32(MultAcc_1_MACC_CSA_RAM_PTR, MultAcc_1_MACC_cstoreA,
 152:.\Generated_Source\PSoC5/MultAcc_1_MACC.c ****                                     MultAcc_1_MACC_CSA_RAM_SIZE_CUR);
 153:.\Generated_Source\PSoC5/MultAcc_1_MACC.c ****         MultAcc_1_MACC_LoadReg32(MultAcc_1_MACC_CSB_RAM_PTR, MultAcc_1_MACC_cstoreB,
 154:.\Generated_Source\PSoC5/MultAcc_1_MACC.c ****                                     MultAcc_1_MACC_CSB_RAM_SIZE_CUR);
 155:.\Generated_Source\PSoC5/MultAcc_1_MACC.c ****     #else
 156:.\Generated_Source\PSoC5/MultAcc_1_MACC.c ****         MultAcc_1_MACC_LoadReg32(MultAcc_1_MACC_CSA_RAM_PTR, MultAcc_1_MACC_control,
 228              		.loc 1 156 0
 229 0082 2048     		ldr	r0, .L8+28
 230 0084 2349     		ldr	r1, .L8+44
 231 0086 1622     		movs	r2, #22
 232 0088 FFF7FEFF 		bl	MultAcc_1_MACC_LoadReg32
 157:.\Generated_Source\PSoC5/MultAcc_1_MACC.c ****                                     MultAcc_1_MACC_CSA_RAM_SIZE_CUR);
 158:.\Generated_Source\PSoC5/MultAcc_1_MACC.c ****         MultAcc_1_MACC_LoadReg32(MultAcc_1_MACC_CSB_RAM_PTR, MultAcc_1_MACC_control,
 233              		.loc 1 158 0
 234 008c 1E48     		ldr	r0, .L8+32
 235 008e 2149     		ldr	r1, .L8+44
 236 0090 1622     		movs	r2, #22
 237 0092 FFF7FEFF 		bl	MultAcc_1_MACC_LoadReg32
 159:.\Generated_Source\PSoC5/MultAcc_1_MACC.c ****                                     MultAcc_1_MACC_CSB_RAM_SIZE_CUR);
 160:.\Generated_Source\PSoC5/MultAcc_1_MACC.c ****     #endif /* MultAcc_1_MACC_OPTIMIZE_ASSEMBLY */
ARM GAS  C:\Users\SCOTTC~1\AppData\Local\Temp\cckOy2jK.s 			page 8


 161:.\Generated_Source\PSoC5/MultAcc_1_MACC.c **** 
 162:.\Generated_Source\PSoC5/MultAcc_1_MACC.c ****     /* Loads initial data to Data RAMs */
 163:.\Generated_Source\PSoC5/MultAcc_1_MACC.c ****     MultAcc_1_MACC_LoadReg32(MultAcc_1_MACC_DA_RAM_PTR, MultAcc_1_MACC_data_a, MultAcc_1_MACC_DA_RA
 238              		.loc 1 163 0
 239 0096 1948     		ldr	r0, .L8+20
 240 0098 1F49     		ldr	r1, .L8+48
 241 009a 0122     		movs	r2, #1
 242 009c FFF7FEFF 		bl	MultAcc_1_MACC_LoadReg32
 164:.\Generated_Source\PSoC5/MultAcc_1_MACC.c ****     MultAcc_1_MACC_LoadReg32(MultAcc_1_MACC_DB_RAM_PTR, MultAcc_1_MACC_data_b, MultAcc_1_MACC_DB_RA
 243              		.loc 1 164 0
 244 00a0 1748     		ldr	r0, .L8+24
 245 00a2 1E49     		ldr	r1, .L8+52
 246 00a4 0122     		movs	r2, #1
 247 00a6 FFF7FEFF 		bl	MultAcc_1_MACC_LoadReg32
 165:.\Generated_Source\PSoC5/MultAcc_1_MACC.c ****     /* Loads initial data to ACU RAM */
 166:.\Generated_Source\PSoC5/MultAcc_1_MACC.c ****     MultAcc_1_MACC_LoadReg32(MultAcc_1_MACC_ACU_RAM_PTR, MultAcc_1_MACC_acu, MultAcc_1_MACC_ACU_RAM
 248              		.loc 1 166 0
 249 00aa 1848     		ldr	r0, .L8+36
 250 00ac 1C49     		ldr	r1, .L8+56
 251 00ae 0122     		movs	r2, #1
 252 00b0 FFF7FEFF 		bl	MultAcc_1_MACC_LoadReg32
 167:.\Generated_Source\PSoC5/MultAcc_1_MACC.c ****     /* Loads initial data to CFSM RAM */
 168:.\Generated_Source\PSoC5/MultAcc_1_MACC.c ****     MultAcc_1_MACC_LoadReg32(MultAcc_1_MACC_CFSM_RAM_PTR, MultAcc_1_MACC_cfsm,
 253              		.loc 1 168 0
 254 00b4 1648     		ldr	r0, .L8+40
 255 00b6 1B49     		ldr	r1, .L8+60
 256 00b8 0922     		movs	r2, #9
 257 00ba FFF7FEFF 		bl	MultAcc_1_MACC_LoadReg32
 169:.\Generated_Source\PSoC5/MultAcc_1_MACC.c ****                                 MultAcc_1_MACC_CFSM_RAM_SIZE_CUR);
 170:.\Generated_Source\PSoC5/MultAcc_1_MACC.c **** 
 171:.\Generated_Source\PSoC5/MultAcc_1_MACC.c ****     /* Takes DFB RAM off the bus */
 172:.\Generated_Source\PSoC5/MultAcc_1_MACC.c ****     MultAcc_1_MACC_RAM_DIR_REG = MultAcc_1_MACC_RAM_DIR_DFB;
 258              		.loc 1 172 0
 259 00be 0E4B     		ldr	r3, .L8+16
 260 00c0 0022     		movs	r2, #0
 261 00c2 1A70     		strb	r2, [r3]
 173:.\Generated_Source\PSoC5/MultAcc_1_MACC.c **** 
 174:.\Generated_Source\PSoC5/MultAcc_1_MACC.c ****     /* Sets up interrupt and DMA events */
 175:.\Generated_Source\PSoC5/MultAcc_1_MACC.c ****     MultAcc_1_MACC_SetInterruptMode(MultAcc_1_MACC_INIT_INTERRUPT_MODE);
 262              		.loc 1 175 0
 263 00c4 0420     		movs	r0, #4
 264 00c6 FFF7FEFF 		bl	MultAcc_1_MACC_SetInterruptMode
 176:.\Generated_Source\PSoC5/MultAcc_1_MACC.c ****     MultAcc_1_MACC_SetDMAMode(MultAcc_1_MACC_INIT_DMA_MODE);
 265              		.loc 1 176 0
 266 00ca 0520     		movs	r0, #5
 267 00cc FFF7FEFF 		bl	MultAcc_1_MACC_SetDMAMode
 177:.\Generated_Source\PSoC5/MultAcc_1_MACC.c **** 
 178:.\Generated_Source\PSoC5/MultAcc_1_MACC.c ****     /* Sets up internal signals, which will be mapped to the DSI outputs */
 179:.\Generated_Source\PSoC5/MultAcc_1_MACC.c ****     MultAcc_1_MACC_SetOutput1Source(MultAcc_1_MACC_INIT_OUT1_SOURCE);
 268              		.loc 1 179 0
 269 00d0 0220     		movs	r0, #2
 270 00d2 FFF7FEFF 		bl	MultAcc_1_MACC_SetOutput1Source
 180:.\Generated_Source\PSoC5/MultAcc_1_MACC.c ****     MultAcc_1_MACC_SetOutput2Source(MultAcc_1_MACC_INIT_OUT2_SOURCE);
 271              		.loc 1 180 0
 272 00d6 0020     		movs	r0, #0
 273 00d8 FFF7FEFF 		bl	MultAcc_1_MACC_SetOutput2Source
 181:.\Generated_Source\PSoC5/MultAcc_1_MACC.c **** 
ARM GAS  C:\Users\SCOTTC~1\AppData\Local\Temp\cckOy2jK.s 			page 9


 182:.\Generated_Source\PSoC5/MultAcc_1_MACC.c ****     /* Clears any pending interrupts and semaphore bits */
 183:.\Generated_Source\PSoC5/MultAcc_1_MACC.c ****     MultAcc_1_MACC_SR_REG = 0xFFu;
 274              		.loc 1 183 0
 275 00dc 124B     		ldr	r3, .L8+64
 276 00de FF22     		movs	r2, #255
 277 00e0 1A70     		strb	r2, [r3]
 184:.\Generated_Source\PSoC5/MultAcc_1_MACC.c **** }
 278              		.loc 1 184 0
 279 00e2 0837     		adds	r7, r7, #8
 280 00e4 BD46     		mov	sp, r7
 281              		@ sp needed
 282 00e6 80BD     		pop	{r7, pc}
 283              	.L9:
 284              		.align	2
 285              	.L8:
 286 00e8 A6430040 		.word	1073759142
 287 00ec B6430040 		.word	1073759158
 288 00f0 80C70040 		.word	1073792896
 289 00f4 88C70040 		.word	1073792904
 290 00f8 8CC70040 		.word	1073792908
 291 00fc 00C00040 		.word	1073790976
 292 0100 00C20040 		.word	1073791488
 293 0104 00C40040 		.word	1073792000
 294 0108 00C50040 		.word	1073792256
 295 010c 00C70040 		.word	1073792768
 296 0110 00C60040 		.word	1073792512
 297 0114 00000000 		.word	MultAcc_1_MACC_control
 298 0118 00000000 		.word	MultAcc_1_MACC_data_a
 299 011c 00000000 		.word	MultAcc_1_MACC_data_b
 300 0120 00000000 		.word	MultAcc_1_MACC_acu
 301 0124 00000000 		.word	MultAcc_1_MACC_cfsm
 302 0128 84C70040 		.word	1073792900
 303              		.cfi_endproc
 304              	.LFE2:
 305              		.size	MultAcc_1_MACC_Init, .-MultAcc_1_MACC_Init
 306              		.section	.text.MultAcc_1_MACC_Enable,"ax",%progbits
 307              		.align	2
 308              		.global	MultAcc_1_MACC_Enable
 309              		.thumb
 310              		.thumb_func
 311              		.type	MultAcc_1_MACC_Enable, %function
 312              	MultAcc_1_MACC_Enable:
 313              	.LFB3:
 185:.\Generated_Source\PSoC5/MultAcc_1_MACC.c **** 
 186:.\Generated_Source\PSoC5/MultAcc_1_MACC.c **** 
 187:.\Generated_Source\PSoC5/MultAcc_1_MACC.c **** /*******************************************************************************
 188:.\Generated_Source\PSoC5/MultAcc_1_MACC.c **** * Function Name: MultAcc_1_MACC_Enable
 189:.\Generated_Source\PSoC5/MultAcc_1_MACC.c **** ********************************************************************************
 190:.\Generated_Source\PSoC5/MultAcc_1_MACC.c **** *
 191:.\Generated_Source\PSoC5/MultAcc_1_MACC.c **** * Summary:
 192:.\Generated_Source\PSoC5/MultAcc_1_MACC.c **** *  This function enables the DFB hardware block, sets the DFB run bit and powers
 193:.\Generated_Source\PSoC5/MultAcc_1_MACC.c **** *  on the DFB block.
 194:.\Generated_Source\PSoC5/MultAcc_1_MACC.c **** *
 195:.\Generated_Source\PSoC5/MultAcc_1_MACC.c **** * Parameters:
 196:.\Generated_Source\PSoC5/MultAcc_1_MACC.c **** *  None.
 197:.\Generated_Source\PSoC5/MultAcc_1_MACC.c **** *
 198:.\Generated_Source\PSoC5/MultAcc_1_MACC.c **** * Return:
ARM GAS  C:\Users\SCOTTC~1\AppData\Local\Temp\cckOy2jK.s 			page 10


 199:.\Generated_Source\PSoC5/MultAcc_1_MACC.c **** *  None.
 200:.\Generated_Source\PSoC5/MultAcc_1_MACC.c **** *
 201:.\Generated_Source\PSoC5/MultAcc_1_MACC.c **** *******************************************************************************/
 202:.\Generated_Source\PSoC5/MultAcc_1_MACC.c **** void MultAcc_1_MACC_Enable(void) 
 203:.\Generated_Source\PSoC5/MultAcc_1_MACC.c **** {
 314              		.loc 1 203 0
 315              		.cfi_startproc
 316              		@ args = 0, pretend = 0, frame = 8
 317              		@ frame_needed = 1, uses_anonymous_args = 0
 318 0000 80B5     		push	{r7, lr}
 319              		.cfi_def_cfa_offset 8
 320              		.cfi_offset 7, -8
 321              		.cfi_offset 14, -4
 322 0002 82B0     		sub	sp, sp, #8
 323              		.cfi_def_cfa_offset 16
 324 0004 00AF     		add	r7, sp, #0
 325              		.cfi_def_cfa_register 7
 204:.\Generated_Source\PSoC5/MultAcc_1_MACC.c ****     uint8 enableInterrupts;
 205:.\Generated_Source\PSoC5/MultAcc_1_MACC.c **** 
 206:.\Generated_Source\PSoC5/MultAcc_1_MACC.c ****     enableInterrupts = CyEnterCriticalSection();
 326              		.loc 1 206 0
 327 0006 FFF7FEFF 		bl	CyEnterCriticalSection
 328 000a 0346     		mov	r3, r0
 329 000c FB71     		strb	r3, [r7, #7]
 207:.\Generated_Source\PSoC5/MultAcc_1_MACC.c **** 
 208:.\Generated_Source\PSoC5/MultAcc_1_MACC.c ****     /* Powers on DFB block */
 209:.\Generated_Source\PSoC5/MultAcc_1_MACC.c ****     MultAcc_1_MACC_PM_ACT_CFG_REG |= MultAcc_1_MACC_PM_ACT_MSK;
 330              		.loc 1 209 0
 331 000e 114B     		ldr	r3, .L11
 332 0010 104A     		ldr	r2, .L11
 333 0012 1278     		ldrb	r2, [r2]
 334 0014 D2B2     		uxtb	r2, r2
 335 0016 42F01002 		orr	r2, r2, #16
 336 001a D2B2     		uxtb	r2, r2
 337 001c 1A70     		strb	r2, [r3]
 210:.\Generated_Source\PSoC5/MultAcc_1_MACC.c ****     /* Enables DFB block in Alternate Active (Standby) mode */
 211:.\Generated_Source\PSoC5/MultAcc_1_MACC.c ****     MultAcc_1_MACC_PM_STBY_CFG_REG |= MultAcc_1_MACC_PM_STBY_MSK;
 338              		.loc 1 211 0
 339 001e 0E4B     		ldr	r3, .L11+4
 340 0020 0D4A     		ldr	r2, .L11+4
 341 0022 1278     		ldrb	r2, [r2]
 342 0024 D2B2     		uxtb	r2, r2
 343 0026 42F01002 		orr	r2, r2, #16
 344 002a D2B2     		uxtb	r2, r2
 345 002c 1A70     		strb	r2, [r3]
 212:.\Generated_Source\PSoC5/MultAcc_1_MACC.c **** 
 213:.\Generated_Source\PSoC5/MultAcc_1_MACC.c ****     CyExitCriticalSection(enableInterrupts);
 346              		.loc 1 213 0
 347 002e FB79     		ldrb	r3, [r7, #7]	@ zero_extendqisi2
 348 0030 1846     		mov	r0, r3
 349 0032 FFF7FEFF 		bl	CyExitCriticalSection
 214:.\Generated_Source\PSoC5/MultAcc_1_MACC.c ****     
 215:.\Generated_Source\PSoC5/MultAcc_1_MACC.c ****     /* Powers up the DFB RAMS */
 216:.\Generated_Source\PSoC5/MultAcc_1_MACC.c ****     MultAcc_1_MACC_RAM_EN_REG = MultAcc_1_MACC_RAM_DIR_BUS;
 350              		.loc 1 216 0
 351 0036 094B     		ldr	r3, .L11+8
 352 0038 3F22     		movs	r2, #63
ARM GAS  C:\Users\SCOTTC~1\AppData\Local\Temp\cckOy2jK.s 			page 11


 353 003a 1A70     		strb	r2, [r3]
 217:.\Generated_Source\PSoC5/MultAcc_1_MACC.c ****     /* Turns on Run Bit */
 218:.\Generated_Source\PSoC5/MultAcc_1_MACC.c ****     MultAcc_1_MACC_CR_REG |= MultAcc_1_MACC_RUN_MASK;
 354              		.loc 1 218 0
 355 003c 084B     		ldr	r3, .L11+12
 356 003e 084A     		ldr	r2, .L11+12
 357 0040 1278     		ldrb	r2, [r2]
 358 0042 D2B2     		uxtb	r2, r2
 359 0044 42F00102 		orr	r2, r2, #1
 360 0048 D2B2     		uxtb	r2, r2
 361 004a 1A70     		strb	r2, [r3]
 219:.\Generated_Source\PSoC5/MultAcc_1_MACC.c **** }
 362              		.loc 1 219 0
 363 004c 0837     		adds	r7, r7, #8
 364 004e BD46     		mov	sp, r7
 365              		@ sp needed
 366 0050 80BD     		pop	{r7, pc}
 367              	.L12:
 368 0052 00BF     		.align	2
 369              	.L11:
 370 0054 A6430040 		.word	1073759142
 371 0058 B6430040 		.word	1073759158
 372 005c 88C70040 		.word	1073792904
 373 0060 80C70040 		.word	1073792896
 374              		.cfi_endproc
 375              	.LFE3:
 376              		.size	MultAcc_1_MACC_Enable, .-MultAcc_1_MACC_Enable
 377              		.section	.text.MultAcc_1_MACC_Start,"ax",%progbits
 378              		.align	2
 379              		.global	MultAcc_1_MACC_Start
 380              		.thumb
 381              		.thumb_func
 382              		.type	MultAcc_1_MACC_Start, %function
 383              	MultAcc_1_MACC_Start:
 384              	.LFB4:
 220:.\Generated_Source\PSoC5/MultAcc_1_MACC.c **** 
 221:.\Generated_Source\PSoC5/MultAcc_1_MACC.c **** 
 222:.\Generated_Source\PSoC5/MultAcc_1_MACC.c **** /*******************************************************************************
 223:.\Generated_Source\PSoC5/MultAcc_1_MACC.c **** * Function Name: MultAcc_1_MACC_Start
 224:.\Generated_Source\PSoC5/MultAcc_1_MACC.c **** ********************************************************************************
 225:.\Generated_Source\PSoC5/MultAcc_1_MACC.c **** *
 226:.\Generated_Source\PSoC5/MultAcc_1_MACC.c **** * Summary:
 227:.\Generated_Source\PSoC5/MultAcc_1_MACC.c **** *  This function initializes and enables the DFB component using the DFB_Init()
 228:.\Generated_Source\PSoC5/MultAcc_1_MACC.c **** *  and DFB_Enable() functions.
 229:.\Generated_Source\PSoC5/MultAcc_1_MACC.c **** *
 230:.\Generated_Source\PSoC5/MultAcc_1_MACC.c **** * Parameters:
 231:.\Generated_Source\PSoC5/MultAcc_1_MACC.c **** *  None.
 232:.\Generated_Source\PSoC5/MultAcc_1_MACC.c **** *
 233:.\Generated_Source\PSoC5/MultAcc_1_MACC.c **** * Return:
 234:.\Generated_Source\PSoC5/MultAcc_1_MACC.c **** *  None.
 235:.\Generated_Source\PSoC5/MultAcc_1_MACC.c **** *
 236:.\Generated_Source\PSoC5/MultAcc_1_MACC.c **** * Global variables:
 237:.\Generated_Source\PSoC5/MultAcc_1_MACC.c **** *  MultAcc_1_MACC_initVar - used to check initial configuration, modified on
 238:.\Generated_Source\PSoC5/MultAcc_1_MACC.c **** *  first function call.
 239:.\Generated_Source\PSoC5/MultAcc_1_MACC.c **** *
 240:.\Generated_Source\PSoC5/MultAcc_1_MACC.c **** * Reentrant:
 241:.\Generated_Source\PSoC5/MultAcc_1_MACC.c **** *  No.
ARM GAS  C:\Users\SCOTTC~1\AppData\Local\Temp\cckOy2jK.s 			page 12


 242:.\Generated_Source\PSoC5/MultAcc_1_MACC.c **** *
 243:.\Generated_Source\PSoC5/MultAcc_1_MACC.c **** *******************************************************************************/
 244:.\Generated_Source\PSoC5/MultAcc_1_MACC.c **** void MultAcc_1_MACC_Start(void) 
 245:.\Generated_Source\PSoC5/MultAcc_1_MACC.c **** {
 385              		.loc 1 245 0
 386              		.cfi_startproc
 387              		@ args = 0, pretend = 0, frame = 0
 388              		@ frame_needed = 1, uses_anonymous_args = 0
 389 0000 80B5     		push	{r7, lr}
 390              		.cfi_def_cfa_offset 8
 391              		.cfi_offset 7, -8
 392              		.cfi_offset 14, -4
 393 0002 00AF     		add	r7, sp, #0
 394              		.cfi_def_cfa_register 7
 246:.\Generated_Source\PSoC5/MultAcc_1_MACC.c ****     if (MultAcc_1_MACC_initVar == 0u)
 395              		.loc 1 246 0
 396 0004 054B     		ldr	r3, .L15
 397 0006 1B78     		ldrb	r3, [r3]	@ zero_extendqisi2
 398 0008 002B     		cmp	r3, #0
 399 000a 04D1     		bne	.L14
 247:.\Generated_Source\PSoC5/MultAcc_1_MACC.c ****     {
 248:.\Generated_Source\PSoC5/MultAcc_1_MACC.c ****         MultAcc_1_MACC_Init();
 400              		.loc 1 248 0
 401 000c FFF7FEFF 		bl	MultAcc_1_MACC_Init
 249:.\Generated_Source\PSoC5/MultAcc_1_MACC.c ****         MultAcc_1_MACC_initVar = 1u;
 402              		.loc 1 249 0
 403 0010 024B     		ldr	r3, .L15
 404 0012 0122     		movs	r2, #1
 405 0014 1A70     		strb	r2, [r3]
 406              	.L14:
 250:.\Generated_Source\PSoC5/MultAcc_1_MACC.c ****     }
 251:.\Generated_Source\PSoC5/MultAcc_1_MACC.c **** 
 252:.\Generated_Source\PSoC5/MultAcc_1_MACC.c ****     MultAcc_1_MACC_Enable();
 407              		.loc 1 252 0
 408 0016 FFF7FEFF 		bl	MultAcc_1_MACC_Enable
 253:.\Generated_Source\PSoC5/MultAcc_1_MACC.c **** }
 409              		.loc 1 253 0
 410 001a 80BD     		pop	{r7, pc}
 411              	.L16:
 412              		.align	2
 413              	.L15:
 414 001c 00000000 		.word	MultAcc_1_MACC_initVar
 415              		.cfi_endproc
 416              	.LFE4:
 417              		.size	MultAcc_1_MACC_Start, .-MultAcc_1_MACC_Start
 418              		.section	.text.MultAcc_1_MACC_Stop,"ax",%progbits
 419              		.align	2
 420              		.global	MultAcc_1_MACC_Stop
 421              		.thumb
 422              		.thumb_func
 423              		.type	MultAcc_1_MACC_Stop, %function
 424              	MultAcc_1_MACC_Stop:
 425              	.LFB5:
 254:.\Generated_Source\PSoC5/MultAcc_1_MACC.c **** 
 255:.\Generated_Source\PSoC5/MultAcc_1_MACC.c **** 
 256:.\Generated_Source\PSoC5/MultAcc_1_MACC.c **** /*******************************************************************************
 257:.\Generated_Source\PSoC5/MultAcc_1_MACC.c **** * Function Name: MultAcc_1_MACC_Stop
ARM GAS  C:\Users\SCOTTC~1\AppData\Local\Temp\cckOy2jK.s 			page 13


 258:.\Generated_Source\PSoC5/MultAcc_1_MACC.c **** ********************************************************************************
 259:.\Generated_Source\PSoC5/MultAcc_1_MACC.c **** *
 260:.\Generated_Source\PSoC5/MultAcc_1_MACC.c **** * Summary:
 261:.\Generated_Source\PSoC5/MultAcc_1_MACC.c **** *  This function turns off the run bit. If DMA control is used to feed the
 262:.\Generated_Source\PSoC5/MultAcc_1_MACC.c **** *  channels, function allows arguments to turn off one of the TD channels off.
 263:.\Generated_Source\PSoC5/MultAcc_1_MACC.c **** *
 264:.\Generated_Source\PSoC5/MultAcc_1_MACC.c **** * Parameters:
 265:.\Generated_Source\PSoC5/MultAcc_1_MACC.c **** *  None.
 266:.\Generated_Source\PSoC5/MultAcc_1_MACC.c **** *
 267:.\Generated_Source\PSoC5/MultAcc_1_MACC.c **** * Return:
 268:.\Generated_Source\PSoC5/MultAcc_1_MACC.c **** *  None.
 269:.\Generated_Source\PSoC5/MultAcc_1_MACC.c **** *
 270:.\Generated_Source\PSoC5/MultAcc_1_MACC.c **** * Side Effects:
 271:.\Generated_Source\PSoC5/MultAcc_1_MACC.c **** *  Disables power to the DFB Core.
 272:.\Generated_Source\PSoC5/MultAcc_1_MACC.c **** *
 273:.\Generated_Source\PSoC5/MultAcc_1_MACC.c **** *******************************************************************************/
 274:.\Generated_Source\PSoC5/MultAcc_1_MACC.c **** void MultAcc_1_MACC_Stop(void) 
 275:.\Generated_Source\PSoC5/MultAcc_1_MACC.c **** {
 426              		.loc 1 275 0
 427              		.cfi_startproc
 428              		@ args = 0, pretend = 0, frame = 8
 429              		@ frame_needed = 1, uses_anonymous_args = 0
 430 0000 80B5     		push	{r7, lr}
 431              		.cfi_def_cfa_offset 8
 432              		.cfi_offset 7, -8
 433              		.cfi_offset 14, -4
 434 0002 82B0     		sub	sp, sp, #8
 435              		.cfi_def_cfa_offset 16
 436 0004 00AF     		add	r7, sp, #0
 437              		.cfi_def_cfa_register 7
 276:.\Generated_Source\PSoC5/MultAcc_1_MACC.c ****     uint8 enableInterrupts;
 277:.\Generated_Source\PSoC5/MultAcc_1_MACC.c **** 
 278:.\Generated_Source\PSoC5/MultAcc_1_MACC.c ****     enableInterrupts = CyEnterCriticalSection();
 438              		.loc 1 278 0
 439 0006 FFF7FEFF 		bl	CyEnterCriticalSection
 440 000a 0346     		mov	r3, r0
 441 000c FB71     		strb	r3, [r7, #7]
 279:.\Generated_Source\PSoC5/MultAcc_1_MACC.c **** 
 280:.\Generated_Source\PSoC5/MultAcc_1_MACC.c ****     /* Powers off DFB */
 281:.\Generated_Source\PSoC5/MultAcc_1_MACC.c ****     MultAcc_1_MACC_PM_ACT_CFG_REG &= (uint8) (~MultAcc_1_MACC_PM_ACT_MSK);
 442              		.loc 1 281 0
 443 000e 0F4B     		ldr	r3, .L18
 444 0010 0E4A     		ldr	r2, .L18
 445 0012 1278     		ldrb	r2, [r2]
 446 0014 D2B2     		uxtb	r2, r2
 447 0016 22F01002 		bic	r2, r2, #16
 448 001a D2B2     		uxtb	r2, r2
 449 001c 1A70     		strb	r2, [r3]
 282:.\Generated_Source\PSoC5/MultAcc_1_MACC.c ****     /* Disables DFB block in Alternate Active (Standby) mode */
 283:.\Generated_Source\PSoC5/MultAcc_1_MACC.c ****     MultAcc_1_MACC_PM_STBY_CFG_REG &= (uint8) (~MultAcc_1_MACC_PM_STBY_MSK);
 450              		.loc 1 283 0
 451 001e 0C4B     		ldr	r3, .L18+4
 452 0020 0B4A     		ldr	r2, .L18+4
 453 0022 1278     		ldrb	r2, [r2]
 454 0024 D2B2     		uxtb	r2, r2
 455 0026 22F01002 		bic	r2, r2, #16
 456 002a D2B2     		uxtb	r2, r2
ARM GAS  C:\Users\SCOTTC~1\AppData\Local\Temp\cckOy2jK.s 			page 14


 457 002c 1A70     		strb	r2, [r3]
 284:.\Generated_Source\PSoC5/MultAcc_1_MACC.c **** 
 285:.\Generated_Source\PSoC5/MultAcc_1_MACC.c ****     CyExitCriticalSection(enableInterrupts);
 458              		.loc 1 285 0
 459 002e FB79     		ldrb	r3, [r7, #7]	@ zero_extendqisi2
 460 0030 1846     		mov	r0, r3
 461 0032 FFF7FEFF 		bl	CyExitCriticalSection
 286:.\Generated_Source\PSoC5/MultAcc_1_MACC.c **** 
 287:.\Generated_Source\PSoC5/MultAcc_1_MACC.c ****     /* Turns off Run Bit */
 288:.\Generated_Source\PSoC5/MultAcc_1_MACC.c ****     MultAcc_1_MACC_CR_REG &= (uint8) (~MultAcc_1_MACC_RUN_MASK);
 462              		.loc 1 288 0
 463 0036 074B     		ldr	r3, .L18+8
 464 0038 064A     		ldr	r2, .L18+8
 465 003a 1278     		ldrb	r2, [r2]
 466 003c D2B2     		uxtb	r2, r2
 467 003e 22F00102 		bic	r2, r2, #1
 468 0042 D2B2     		uxtb	r2, r2
 469 0044 1A70     		strb	r2, [r3]
 289:.\Generated_Source\PSoC5/MultAcc_1_MACC.c **** }
 470              		.loc 1 289 0
 471 0046 0837     		adds	r7, r7, #8
 472 0048 BD46     		mov	sp, r7
 473              		@ sp needed
 474 004a 80BD     		pop	{r7, pc}
 475              	.L19:
 476              		.align	2
 477              	.L18:
 478 004c A6430040 		.word	1073759142
 479 0050 B6430040 		.word	1073759158
 480 0054 80C70040 		.word	1073792896
 481              		.cfi_endproc
 482              	.LFE5:
 483              		.size	MultAcc_1_MACC_Stop, .-MultAcc_1_MACC_Stop
 484              		.section	.text.MultAcc_1_MACC_Pause,"ax",%progbits
 485              		.align	2
 486              		.global	MultAcc_1_MACC_Pause
 487              		.thumb
 488              		.thumb_func
 489              		.type	MultAcc_1_MACC_Pause, %function
 490              	MultAcc_1_MACC_Pause:
 491              	.LFB6:
 290:.\Generated_Source\PSoC5/MultAcc_1_MACC.c **** 
 291:.\Generated_Source\PSoC5/MultAcc_1_MACC.c **** 
 292:.\Generated_Source\PSoC5/MultAcc_1_MACC.c **** /*******************************************************************************
 293:.\Generated_Source\PSoC5/MultAcc_1_MACC.c **** * Function Name: MultAcc_1_MACC_Pause
 294:.\Generated_Source\PSoC5/MultAcc_1_MACC.c **** ********************************************************************************
 295:.\Generated_Source\PSoC5/MultAcc_1_MACC.c **** *
 296:.\Generated_Source\PSoC5/MultAcc_1_MACC.c **** * Summary:
 297:.\Generated_Source\PSoC5/MultAcc_1_MACC.c **** *  This function pauses DFB and enables writing to the DFB RAM:
 298:.\Generated_Source\PSoC5/MultAcc_1_MACC.c **** *   turns off the Run bit,
 299:.\Generated_Source\PSoC5/MultAcc_1_MACC.c **** *   connects the DFB RAM to the data bus,
 300:.\Generated_Source\PSoC5/MultAcc_1_MACC.c **** *   clears the DFB run bit and passes the control of all DFB RAMs onto bus.
 301:.\Generated_Source\PSoC5/MultAcc_1_MACC.c **** *
 302:.\Generated_Source\PSoC5/MultAcc_1_MACC.c **** * Parameters:
 303:.\Generated_Source\PSoC5/MultAcc_1_MACC.c **** *  None.
 304:.\Generated_Source\PSoC5/MultAcc_1_MACC.c **** *
 305:.\Generated_Source\PSoC5/MultAcc_1_MACC.c **** * Return:
ARM GAS  C:\Users\SCOTTC~1\AppData\Local\Temp\cckOy2jK.s 			page 15


 306:.\Generated_Source\PSoC5/MultAcc_1_MACC.c **** *  None.
 307:.\Generated_Source\PSoC5/MultAcc_1_MACC.c **** *
 308:.\Generated_Source\PSoC5/MultAcc_1_MACC.c **** *******************************************************************************/
 309:.\Generated_Source\PSoC5/MultAcc_1_MACC.c **** void MultAcc_1_MACC_Pause(void) 
 310:.\Generated_Source\PSoC5/MultAcc_1_MACC.c **** {
 492              		.loc 1 310 0
 493              		.cfi_startproc
 494              		@ args = 0, pretend = 0, frame = 0
 495              		@ frame_needed = 1, uses_anonymous_args = 0
 496              		@ link register save eliminated.
 497 0000 80B4     		push	{r7}
 498              		.cfi_def_cfa_offset 4
 499              		.cfi_offset 7, -4
 500 0002 00AF     		add	r7, sp, #0
 501              		.cfi_def_cfa_register 7
 311:.\Generated_Source\PSoC5/MultAcc_1_MACC.c ****     /* Turns off Run Bit */
 312:.\Generated_Source\PSoC5/MultAcc_1_MACC.c ****     MultAcc_1_MACC_CR_REG &= (uint8) (~MultAcc_1_MACC_RUN_MASK);
 502              		.loc 1 312 0
 503 0004 074B     		ldr	r3, .L21
 504 0006 074A     		ldr	r2, .L21
 505 0008 1278     		ldrb	r2, [r2]
 506 000a D2B2     		uxtb	r2, r2
 507 000c 22F00102 		bic	r2, r2, #1
 508 0010 D2B2     		uxtb	r2, r2
 509 0012 1A70     		strb	r2, [r3]
 313:.\Generated_Source\PSoC5/MultAcc_1_MACC.c ****     /* Puts DFB RAM on the bus */
 314:.\Generated_Source\PSoC5/MultAcc_1_MACC.c ****     MultAcc_1_MACC_RAM_DIR_REG = MultAcc_1_MACC_RAM_DIR_BUS;
 510              		.loc 1 314 0
 511 0014 044B     		ldr	r3, .L21+4
 512 0016 3F22     		movs	r2, #63
 513 0018 1A70     		strb	r2, [r3]
 315:.\Generated_Source\PSoC5/MultAcc_1_MACC.c **** }
 514              		.loc 1 315 0
 515 001a BD46     		mov	sp, r7
 516              		@ sp needed
 517 001c 5DF8047B 		ldr	r7, [sp], #4
 518 0020 7047     		bx	lr
 519              	.L22:
 520 0022 00BF     		.align	2
 521              	.L21:
 522 0024 80C70040 		.word	1073792896
 523 0028 8CC70040 		.word	1073792908
 524              		.cfi_endproc
 525              	.LFE6:
 526              		.size	MultAcc_1_MACC_Pause, .-MultAcc_1_MACC_Pause
 527              		.section	.text.MultAcc_1_MACC_Resume,"ax",%progbits
 528              		.align	2
 529              		.global	MultAcc_1_MACC_Resume
 530              		.thumb
 531              		.thumb_func
 532              		.type	MultAcc_1_MACC_Resume, %function
 533              	MultAcc_1_MACC_Resume:
 534              	.LFB7:
 316:.\Generated_Source\PSoC5/MultAcc_1_MACC.c **** 
 317:.\Generated_Source\PSoC5/MultAcc_1_MACC.c **** 
 318:.\Generated_Source\PSoC5/MultAcc_1_MACC.c **** /*******************************************************************************
 319:.\Generated_Source\PSoC5/MultAcc_1_MACC.c **** * Function Name: MultAcc_1_MACC_Resume
ARM GAS  C:\Users\SCOTTC~1\AppData\Local\Temp\cckOy2jK.s 			page 16


 320:.\Generated_Source\PSoC5/MultAcc_1_MACC.c **** ********************************************************************************
 321:.\Generated_Source\PSoC5/MultAcc_1_MACC.c **** *
 322:.\Generated_Source\PSoC5/MultAcc_1_MACC.c **** * Summary:
 323:.\Generated_Source\PSoC5/MultAcc_1_MACC.c **** *  This function disables writing to the DFB RAM, clear any pending interrupts,
 324:.\Generated_Source\PSoC5/MultAcc_1_MACC.c **** *  disconnects the DFB RAM from the data bus, and runs the DFB.
 325:.\Generated_Source\PSoC5/MultAcc_1_MACC.c **** *  It passes the control of all DFB RAM to the DFB and then sets the run bit.
 326:.\Generated_Source\PSoC5/MultAcc_1_MACC.c **** *
 327:.\Generated_Source\PSoC5/MultAcc_1_MACC.c **** * Parameters:
 328:.\Generated_Source\PSoC5/MultAcc_1_MACC.c **** *  None.
 329:.\Generated_Source\PSoC5/MultAcc_1_MACC.c **** *
 330:.\Generated_Source\PSoC5/MultAcc_1_MACC.c **** * Return:
 331:.\Generated_Source\PSoC5/MultAcc_1_MACC.c **** *  None.
 332:.\Generated_Source\PSoC5/MultAcc_1_MACC.c **** *
 333:.\Generated_Source\PSoC5/MultAcc_1_MACC.c **** *******************************************************************************/
 334:.\Generated_Source\PSoC5/MultAcc_1_MACC.c **** void MultAcc_1_MACC_Resume(void) 
 335:.\Generated_Source\PSoC5/MultAcc_1_MACC.c **** {
 535              		.loc 1 335 0
 536              		.cfi_startproc
 537              		@ args = 0, pretend = 0, frame = 0
 538              		@ frame_needed = 1, uses_anonymous_args = 0
 539              		@ link register save eliminated.
 540 0000 80B4     		push	{r7}
 541              		.cfi_def_cfa_offset 4
 542              		.cfi_offset 7, -4
 543 0002 00AF     		add	r7, sp, #0
 544              		.cfi_def_cfa_register 7
 336:.\Generated_Source\PSoC5/MultAcc_1_MACC.c ****     /* Takes DFB RAM off the bus */
 337:.\Generated_Source\PSoC5/MultAcc_1_MACC.c ****     MultAcc_1_MACC_RAM_DIR_REG = MultAcc_1_MACC_RAM_DIR_DFB;
 545              		.loc 1 337 0
 546 0004 084B     		ldr	r3, .L24
 547 0006 0022     		movs	r2, #0
 548 0008 1A70     		strb	r2, [r3]
 338:.\Generated_Source\PSoC5/MultAcc_1_MACC.c ****     /* Clears any pending interrupts */
 339:.\Generated_Source\PSoC5/MultAcc_1_MACC.c ****     MultAcc_1_MACC_SR_REG = 0xFFu;
 549              		.loc 1 339 0
 550 000a 084B     		ldr	r3, .L24+4
 551 000c FF22     		movs	r2, #255
 552 000e 1A70     		strb	r2, [r3]
 340:.\Generated_Source\PSoC5/MultAcc_1_MACC.c ****     /* Turns on Run Bit */
 341:.\Generated_Source\PSoC5/MultAcc_1_MACC.c ****     MultAcc_1_MACC_CR_REG |= MultAcc_1_MACC_RUN_MASK;
 553              		.loc 1 341 0
 554 0010 074B     		ldr	r3, .L24+8
 555 0012 074A     		ldr	r2, .L24+8
 556 0014 1278     		ldrb	r2, [r2]
 557 0016 D2B2     		uxtb	r2, r2
 558 0018 42F00102 		orr	r2, r2, #1
 559 001c D2B2     		uxtb	r2, r2
 560 001e 1A70     		strb	r2, [r3]
 342:.\Generated_Source\PSoC5/MultAcc_1_MACC.c **** }
 561              		.loc 1 342 0
 562 0020 BD46     		mov	sp, r7
 563              		@ sp needed
 564 0022 5DF8047B 		ldr	r7, [sp], #4
 565 0026 7047     		bx	lr
 566              	.L25:
 567              		.align	2
 568              	.L24:
ARM GAS  C:\Users\SCOTTC~1\AppData\Local\Temp\cckOy2jK.s 			page 17


 569 0028 8CC70040 		.word	1073792908
 570 002c 84C70040 		.word	1073792900
 571 0030 80C70040 		.word	1073792896
 572              		.cfi_endproc
 573              	.LFE7:
 574              		.size	MultAcc_1_MACC_Resume, .-MultAcc_1_MACC_Resume
 575              		.section	.text.MultAcc_1_MACC_SetCoherency,"ax",%progbits
 576              		.align	2
 577              		.global	MultAcc_1_MACC_SetCoherency
 578              		.thumb
 579              		.thumb_func
 580              		.type	MultAcc_1_MACC_SetCoherency, %function
 581              	MultAcc_1_MACC_SetCoherency:
 582              	.LFB8:
 343:.\Generated_Source\PSoC5/MultAcc_1_MACC.c **** 
 344:.\Generated_Source\PSoC5/MultAcc_1_MACC.c **** 
 345:.\Generated_Source\PSoC5/MultAcc_1_MACC.c **** /*******************************************************************************
 346:.\Generated_Source\PSoC5/MultAcc_1_MACC.c **** * Function Name: MultAcc_1_MACC_SetCoherency
 347:.\Generated_Source\PSoC5/MultAcc_1_MACC.c **** ********************************************************************************
 348:.\Generated_Source\PSoC5/MultAcc_1_MACC.c **** *
 349:.\Generated_Source\PSoC5/MultAcc_1_MACC.c **** * Summary:
 350:.\Generated_Source\PSoC5/MultAcc_1_MACC.c **** *  This function sets the coherency key to low/mid/high byte based on the
 351:.\Generated_Source\PSoC5/MultAcc_1_MACC.c **** *  coherencyKey parameter that is passed to the DFB.
 352:.\Generated_Source\PSoC5/MultAcc_1_MACC.c **** *  Function allows you to select which of the 3 bytes of each of the STAGEA,
 353:.\Generated_Source\PSoC5/MultAcc_1_MACC.c **** *  STAGEB, HOLDA and HOLDB will be used as the Key Coherency Byte. Coherency
 354:.\Generated_Source\PSoC5/MultAcc_1_MACC.c **** *  refers to the HW added to this block to protect against malfunctions of the
 355:.\Generated_Source\PSoC5/MultAcc_1_MACC.c **** *  block in cases where register fields are wider than the bus access, leaving
 356:.\Generated_Source\PSoC5/MultAcc_1_MACC.c **** *  intervals in time when fields are partially written/read (incoherent). The
 357:.\Generated_Source\PSoC5/MultAcc_1_MACC.c **** *  Key Coherency Byte is the SW's way of telling the HW which byte of the field
 358:.\Generated_Source\PSoC5/MultAcc_1_MACC.c **** *  will be written/read last when an update to the field is desired. When the
 359:.\Generated_Source\PSoC5/MultAcc_1_MACC.c **** *  Key byte is written/read, the field is flagged coherent. If any other byte
 360:.\Generated_Source\PSoC5/MultAcc_1_MACC.c **** *  is written or read, the field is flagged incoherent.
 361:.\Generated_Source\PSoC5/MultAcc_1_MACC.c **** *
 362:.\Generated_Source\PSoC5/MultAcc_1_MACC.c **** * Parameters:
 363:.\Generated_Source\PSoC5/MultAcc_1_MACC.c **** *  uint8 coherencyKeyByte: specifies bits in the DFB Coherency Register.
 364:.\Generated_Source\PSoC5/MultAcc_1_MACC.c **** *   Sets the Key Coherency Byte of the Staging A register
 365:.\Generated_Source\PSoC5/MultAcc_1_MACC.c **** *    Define                             Description
 366:.\Generated_Source\PSoC5/MultAcc_1_MACC.c **** *     MultAcc_1_MACC_STGA_KEY_LOW      Key Byte is low byte.
 367:.\Generated_Source\PSoC5/MultAcc_1_MACC.c **** *     MultAcc_1_MACC_STGA_KEY_MID      Key Byte is med byte.
 368:.\Generated_Source\PSoC5/MultAcc_1_MACC.c **** *     MultAcc_1_MACC_STGA_KEY_HIGH     Key Byte is high byte.
 369:.\Generated_Source\PSoC5/MultAcc_1_MACC.c **** *   Sets the Key Coherency Byte of the Staging B register
 370:.\Generated_Source\PSoC5/MultAcc_1_MACC.c **** *    Define                             Description
 371:.\Generated_Source\PSoC5/MultAcc_1_MACC.c **** *     MultAcc_1_MACC_STGB_KEY_LOW      Key Byte is low byte.
 372:.\Generated_Source\PSoC5/MultAcc_1_MACC.c **** *     MultAcc_1_MACC_STGB_KEY_MID      Key Byte is med byte.
 373:.\Generated_Source\PSoC5/MultAcc_1_MACC.c **** *     MultAcc_1_MACC_STGB_KEY_HIGH     Key Byte is high byte.
 374:.\Generated_Source\PSoC5/MultAcc_1_MACC.c **** *   Sets the Key Coherency Byte of the Holding A register
 375:.\Generated_Source\PSoC5/MultAcc_1_MACC.c **** *    Define                             Description
 376:.\Generated_Source\PSoC5/MultAcc_1_MACC.c **** *     MultAcc_1_MACC_HOLDA_KEY_LOW     Key Byte is low byte.
 377:.\Generated_Source\PSoC5/MultAcc_1_MACC.c **** *     MultAcc_1_MACC_HOLDA_KEY_MID     Key Byte is med byte.
 378:.\Generated_Source\PSoC5/MultAcc_1_MACC.c **** *     MultAcc_1_MACC_HOLDA_KEY_HIGH    Key Byte is high byte.
 379:.\Generated_Source\PSoC5/MultAcc_1_MACC.c **** *   Sets the Key Coherency Byte of the Holding B register
 380:.\Generated_Source\PSoC5/MultAcc_1_MACC.c **** *    Define                             Description
 381:.\Generated_Source\PSoC5/MultAcc_1_MACC.c **** *     MultAcc_1_MACC_HOLDB_KEY_LOW     Key Byte is low byte.
 382:.\Generated_Source\PSoC5/MultAcc_1_MACC.c **** *     MultAcc_1_MACC_HOLDB_KEY_MID     Key Byte is med byte.
 383:.\Generated_Source\PSoC5/MultAcc_1_MACC.c **** *     MultAcc_1_MACC_HOLDB_KEY_HIGH    Key Byte is high byte.
 384:.\Generated_Source\PSoC5/MultAcc_1_MACC.c **** *
 385:.\Generated_Source\PSoC5/MultAcc_1_MACC.c **** * Return:
ARM GAS  C:\Users\SCOTTC~1\AppData\Local\Temp\cckOy2jK.s 			page 18


 386:.\Generated_Source\PSoC5/MultAcc_1_MACC.c **** *  None.
 387:.\Generated_Source\PSoC5/MultAcc_1_MACC.c **** *
 388:.\Generated_Source\PSoC5/MultAcc_1_MACC.c **** * Note:
 389:.\Generated_Source\PSoC5/MultAcc_1_MACC.c **** *  Default key byte configuration for Staging A and B, and Holding A and B
 390:.\Generated_Source\PSoC5/MultAcc_1_MACC.c **** *  registers is high byte.
 391:.\Generated_Source\PSoC5/MultAcc_1_MACC.c **** *
 392:.\Generated_Source\PSoC5/MultAcc_1_MACC.c **** * Side Effects:
 393:.\Generated_Source\PSoC5/MultAcc_1_MACC.c **** *  Coherency affects data loading using the LoadInputValue() function and
 394:.\Generated_Source\PSoC5/MultAcc_1_MACC.c **** *  data retrieval using the GetOutputValue() function.
 395:.\Generated_Source\PSoC5/MultAcc_1_MACC.c **** *
 396:.\Generated_Source\PSoC5/MultAcc_1_MACC.c **** *******************************************************************************/
 397:.\Generated_Source\PSoC5/MultAcc_1_MACC.c **** void MultAcc_1_MACC_SetCoherency(uint8 coherencyKeyByte) 
 398:.\Generated_Source\PSoC5/MultAcc_1_MACC.c **** {
 583              		.loc 1 398 0
 584              		.cfi_startproc
 585              		@ args = 0, pretend = 0, frame = 8
 586              		@ frame_needed = 1, uses_anonymous_args = 0
 587              		@ link register save eliminated.
 588 0000 80B4     		push	{r7}
 589              		.cfi_def_cfa_offset 4
 590              		.cfi_offset 7, -4
 591 0002 83B0     		sub	sp, sp, #12
 592              		.cfi_def_cfa_offset 16
 593 0004 00AF     		add	r7, sp, #0
 594              		.cfi_def_cfa_register 7
 595 0006 0346     		mov	r3, r0
 596 0008 FB71     		strb	r3, [r7, #7]
 399:.\Generated_Source\PSoC5/MultAcc_1_MACC.c ****     MultAcc_1_MACC_COHER_REG = coherencyKeyByte;
 597              		.loc 1 399 0
 598 000a 044B     		ldr	r3, .L27
 599 000c FA79     		ldrb	r2, [r7, #7]
 600 000e 1A70     		strb	r2, [r3]
 400:.\Generated_Source\PSoC5/MultAcc_1_MACC.c **** }
 601              		.loc 1 400 0
 602 0010 0C37     		adds	r7, r7, #12
 603 0012 BD46     		mov	sp, r7
 604              		@ sp needed
 605 0014 5DF8047B 		ldr	r7, [sp], #4
 606 0018 7047     		bx	lr
 607              	.L28:
 608 001a 00BF     		.align	2
 609              	.L27:
 610 001c B0C70040 		.word	1073792944
 611              		.cfi_endproc
 612              	.LFE8:
 613              		.size	MultAcc_1_MACC_SetCoherency, .-MultAcc_1_MACC_SetCoherency
 614              		.section	.text.MultAcc_1_MACC_SetDalign,"ax",%progbits
 615              		.align	2
 616              		.global	MultAcc_1_MACC_SetDalign
 617              		.thumb
 618              		.thumb_func
 619              		.type	MultAcc_1_MACC_SetDalign, %function
 620              	MultAcc_1_MACC_SetDalign:
 621              	.LFB9:
 401:.\Generated_Source\PSoC5/MultAcc_1_MACC.c **** 
 402:.\Generated_Source\PSoC5/MultAcc_1_MACC.c **** 
 403:.\Generated_Source\PSoC5/MultAcc_1_MACC.c **** /*******************************************************************************
ARM GAS  C:\Users\SCOTTC~1\AppData\Local\Temp\cckOy2jK.s 			page 19


 404:.\Generated_Source\PSoC5/MultAcc_1_MACC.c **** * Function Name: MultAcc_1_MACC_SetDalign
 405:.\Generated_Source\PSoC5/MultAcc_1_MACC.c **** ********************************************************************************
 406:.\Generated_Source\PSoC5/MultAcc_1_MACC.c **** *
 407:.\Generated_Source\PSoC5/MultAcc_1_MACC.c **** * Summary:
 408:.\Generated_Source\PSoC5/MultAcc_1_MACC.c **** *  This feature allows 9- to 16-bit input and output samples to travel as 16-bit
 409:.\Generated_Source\PSoC5/MultAcc_1_MACC.c **** *  values on the AHB bus. These bits when set high cause an 8-bit shift in the
 410:.\Generated_Source\PSoC5/MultAcc_1_MACC.c **** *  data to all access of the corresponding Staging and Holding registers.
 411:.\Generated_Source\PSoC5/MultAcc_1_MACC.c **** *  Because the DFB datapath is inherently MSB aligned, it is convenient to the
 412:.\Generated_Source\PSoC5/MultAcc_1_MACC.c **** *  System SW to align values on bits 23:8 of the Staging and Holding register
 413:.\Generated_Source\PSoC5/MultAcc_1_MACC.c **** *  to bits 15:0 of the bus. A read of this register produces the last value
 414:.\Generated_Source\PSoC5/MultAcc_1_MACC.c **** *  written to this register.
 415:.\Generated_Source\PSoC5/MultAcc_1_MACC.c **** *
 416:.\Generated_Source\PSoC5/MultAcc_1_MACC.c **** * Parameters:
 417:.\Generated_Source\PSoC5/MultAcc_1_MACC.c **** *  uint8 dalignKeyByte: specifies bits in the DFB Data Alignment Register.
 418:.\Generated_Source\PSoC5/MultAcc_1_MACC.c **** *   Shifts the write left by a byte.
 419:.\Generated_Source\PSoC5/MultAcc_1_MACC.c **** *    Define                               Description
 420:.\Generated_Source\PSoC5/MultAcc_1_MACC.c **** *     MultAcc_1_MACC_STGA_DALIGN_LOW     Writes normally.
 421:.\Generated_Source\PSoC5/MultAcc_1_MACC.c **** *     MultAcc_1_MACC_STGA_DALIGN_HIGH    Writes shifted left by 8-bits.
 422:.\Generated_Source\PSoC5/MultAcc_1_MACC.c **** *   Shifts the write left by a byte.
 423:.\Generated_Source\PSoC5/MultAcc_1_MACC.c **** *    Define                               Description
 424:.\Generated_Source\PSoC5/MultAcc_1_MACC.c **** *     MultAcc_1_MACC_STGB_DALIGN_LOW     Writes normally.
 425:.\Generated_Source\PSoC5/MultAcc_1_MACC.c **** *     MultAcc_1_MACC_STGB_DALIGN_HIGH    Writes shifted left by 8-bits.
 426:.\Generated_Source\PSoC5/MultAcc_1_MACC.c **** *   Shifts the read right by a byte.
 427:.\Generated_Source\PSoC5/MultAcc_1_MACC.c **** *    Define                               Description
 428:.\Generated_Source\PSoC5/MultAcc_1_MACC.c **** *     MultAcc_1_MACC_HOLDA_DALIGN_LOW     Reads normally.
 429:.\Generated_Source\PSoC5/MultAcc_1_MACC.c **** *     MultAcc_1_MACC_HOLDA_DALIGN_HIGH    Reads shifted right by 8-bits.
 430:.\Generated_Source\PSoC5/MultAcc_1_MACC.c **** *   Shifts the read right by a byte.
 431:.\Generated_Source\PSoC5/MultAcc_1_MACC.c **** *    Define                               Description
 432:.\Generated_Source\PSoC5/MultAcc_1_MACC.c **** *     MultAcc_1_MACC_HOLDB_DALIGN_LOW     Reads normally.
 433:.\Generated_Source\PSoC5/MultAcc_1_MACC.c **** *     MultAcc_1_MACC_HOLDB_DALIGN_HIGH    Reads shifted right by 8-bits.
 434:.\Generated_Source\PSoC5/MultAcc_1_MACC.c **** *
 435:.\Generated_Source\PSoC5/MultAcc_1_MACC.c **** * Return:
 436:.\Generated_Source\PSoC5/MultAcc_1_MACC.c **** *  None.
 437:.\Generated_Source\PSoC5/MultAcc_1_MACC.c **** *
 438:.\Generated_Source\PSoC5/MultAcc_1_MACC.c **** *******************************************************************************/
 439:.\Generated_Source\PSoC5/MultAcc_1_MACC.c **** void MultAcc_1_MACC_SetDalign(uint8 dalignKeyByte) 
 440:.\Generated_Source\PSoC5/MultAcc_1_MACC.c **** {
 622              		.loc 1 440 0
 623              		.cfi_startproc
 624              		@ args = 0, pretend = 0, frame = 8
 625              		@ frame_needed = 1, uses_anonymous_args = 0
 626              		@ link register save eliminated.
 627 0000 80B4     		push	{r7}
 628              		.cfi_def_cfa_offset 4
 629              		.cfi_offset 7, -4
 630 0002 83B0     		sub	sp, sp, #12
 631              		.cfi_def_cfa_offset 16
 632 0004 00AF     		add	r7, sp, #0
 633              		.cfi_def_cfa_register 7
 634 0006 0346     		mov	r3, r0
 635 0008 FB71     		strb	r3, [r7, #7]
 441:.\Generated_Source\PSoC5/MultAcc_1_MACC.c ****     MultAcc_1_MACC_DALIGN_REG = dalignKeyByte;
 636              		.loc 1 441 0
 637 000a 044B     		ldr	r3, .L30
 638 000c FA79     		ldrb	r2, [r7, #7]
 639 000e 1A70     		strb	r2, [r3]
 442:.\Generated_Source\PSoC5/MultAcc_1_MACC.c **** }
ARM GAS  C:\Users\SCOTTC~1\AppData\Local\Temp\cckOy2jK.s 			page 20


 640              		.loc 1 442 0
 641 0010 0C37     		adds	r7, r7, #12
 642 0012 BD46     		mov	sp, r7
 643              		@ sp needed
 644 0014 5DF8047B 		ldr	r7, [sp], #4
 645 0018 7047     		bx	lr
 646              	.L31:
 647 001a 00BF     		.align	2
 648              	.L30:
 649 001c B4C70040 		.word	1073792948
 650              		.cfi_endproc
 651              	.LFE9:
 652              		.size	MultAcc_1_MACC_SetDalign, .-MultAcc_1_MACC_SetDalign
 653              		.section	.text.MultAcc_1_MACC_LoadDataRAMA,"ax",%progbits
 654              		.align	2
 655              		.global	MultAcc_1_MACC_LoadDataRAMA
 656              		.thumb
 657              		.thumb_func
 658              		.type	MultAcc_1_MACC_LoadDataRAMA, %function
 659              	MultAcc_1_MACC_LoadDataRAMA:
 660              	.LFB10:
 443:.\Generated_Source\PSoC5/MultAcc_1_MACC.c **** 
 444:.\Generated_Source\PSoC5/MultAcc_1_MACC.c **** 
 445:.\Generated_Source\PSoC5/MultAcc_1_MACC.c **** /*******************************************************************************
 446:.\Generated_Source\PSoC5/MultAcc_1_MACC.c **** * Function Name: MultAcc_1_MACC_LoadDataRAMA
 447:.\Generated_Source\PSoC5/MultAcc_1_MACC.c **** ********************************************************************************
 448:.\Generated_Source\PSoC5/MultAcc_1_MACC.c **** *
 449:.\Generated_Source\PSoC5/MultAcc_1_MACC.c **** * Summary:
 450:.\Generated_Source\PSoC5/MultAcc_1_MACC.c **** *  This function loads data to DFB RAM A memory.
 451:.\Generated_Source\PSoC5/MultAcc_1_MACC.c **** *
 452:.\Generated_Source\PSoC5/MultAcc_1_MACC.c **** * Parameters:
 453:.\Generated_Source\PSoC5/MultAcc_1_MACC.c **** *  const int32 ptr[]: pointer on data source for load;
 454:.\Generated_Source\PSoC5/MultAcc_1_MACC.c **** *  uint32     addr[]: start address for loading the data in DFB RAM A;
 455:.\Generated_Source\PSoC5/MultAcc_1_MACC.c **** *  uint8        size: number of data words to load.
 456:.\Generated_Source\PSoC5/MultAcc_1_MACC.c **** *
 457:.\Generated_Source\PSoC5/MultAcc_1_MACC.c **** * Return:
 458:.\Generated_Source\PSoC5/MultAcc_1_MACC.c **** *  MultAcc_1_MACC_SUCCESS - Loading data is successful.
 459:.\Generated_Source\PSoC5/MultAcc_1_MACC.c **** *  MultAcc_1_MACC_ADDRESS_OUT_OF_RANGE - error code, indicates that the
 460:.\Generated_Source\PSoC5/MultAcc_1_MACC.c **** *  address is out of range.
 461:.\Generated_Source\PSoC5/MultAcc_1_MACC.c **** *  MultAcc_1_MACC_DATA_OUT_OF_RANGE - error code, indicates a data overflow
 462:.\Generated_Source\PSoC5/MultAcc_1_MACC.c **** *  error.
 463:.\Generated_Source\PSoC5/MultAcc_1_MACC.c **** *
 464:.\Generated_Source\PSoC5/MultAcc_1_MACC.c **** * Side Effects:
 465:.\Generated_Source\PSoC5/MultAcc_1_MACC.c **** *  This API doesn't stop the DFB if it is already started. Hence, recommended
 466:.\Generated_Source\PSoC5/MultAcc_1_MACC.c **** *  method is to call Init() API, then LoadDataRAMA() API and then Enable() API.
 467:.\Generated_Source\PSoC5/MultAcc_1_MACC.c **** *
 468:.\Generated_Source\PSoC5/MultAcc_1_MACC.c **** *******************************************************************************/
 469:.\Generated_Source\PSoC5/MultAcc_1_MACC.c **** uint8 MultAcc_1_MACC_LoadDataRAMA(const int32 ptr[], uint32 addr[], uint8 size)
 470:.\Generated_Source\PSoC5/MultAcc_1_MACC.c ****      
 471:.\Generated_Source\PSoC5/MultAcc_1_MACC.c **** {
 661              		.loc 1 471 0
 662              		.cfi_startproc
 663              		@ args = 0, pretend = 0, frame = 24
 664              		@ frame_needed = 1, uses_anonymous_args = 0
 665              		@ link register save eliminated.
 666 0000 80B4     		push	{r7}
 667              		.cfi_def_cfa_offset 4
ARM GAS  C:\Users\SCOTTC~1\AppData\Local\Temp\cckOy2jK.s 			page 21


 668              		.cfi_offset 7, -4
 669 0002 87B0     		sub	sp, sp, #28
 670              		.cfi_def_cfa_offset 32
 671 0004 00AF     		add	r7, sp, #0
 672              		.cfi_def_cfa_register 7
 673 0006 F860     		str	r0, [r7, #12]
 674 0008 B960     		str	r1, [r7, #8]
 675 000a 1346     		mov	r3, r2
 676 000c FB71     		strb	r3, [r7, #7]
 472:.\Generated_Source\PSoC5/MultAcc_1_MACC.c ****     uint8 result = MultAcc_1_MACC_SUCCESS;
 677              		.loc 1 472 0
 678 000e 0023     		movs	r3, #0
 679 0010 FB75     		strb	r3, [r7, #23]
 473:.\Generated_Source\PSoC5/MultAcc_1_MACC.c ****     uint8 i = 0u;
 680              		.loc 1 473 0
 681 0012 0023     		movs	r3, #0
 682 0014 BB75     		strb	r3, [r7, #22]
 474:.\Generated_Source\PSoC5/MultAcc_1_MACC.c ****     
 475:.\Generated_Source\PSoC5/MultAcc_1_MACC.c ****     if (((& addr[0u]) < MultAcc_1_MACC_DA_RAM_PTR) || ((& addr[0u]) > MultAcc_1_MACC_DA_RAM_LAST_EL
 683              		.loc 1 475 0
 684 0016 BA68     		ldr	r2, [r7, #8]
 685 0018 224B     		ldr	r3, .L41
 686 001a 9A42     		cmp	r2, r3
 687 001c 03D9     		bls	.L33
 688              		.loc 1 475 0 is_stmt 0 discriminator 1
 689 001e BA68     		ldr	r2, [r7, #8]
 690 0020 214B     		ldr	r3, .L41+4
 691 0022 9A42     		cmp	r2, r3
 692 0024 02D9     		bls	.L34
 693              	.L33:
 476:.\Generated_Source\PSoC5/MultAcc_1_MACC.c ****     {
 477:.\Generated_Source\PSoC5/MultAcc_1_MACC.c ****         result = MultAcc_1_MACC_ADDRESS_OUT_OF_RANGE;
 694              		.loc 1 477 0 is_stmt 1
 695 0026 FF23     		movs	r3, #255
 696 0028 FB75     		strb	r3, [r7, #23]
 697 002a 33E0     		b	.L35
 698              	.L34:
 478:.\Generated_Source\PSoC5/MultAcc_1_MACC.c ****     }
 479:.\Generated_Source\PSoC5/MultAcc_1_MACC.c ****     else if ((size == 0u) || ((& addr[size - 1u]) > MultAcc_1_MACC_DA_RAM_LAST_ELEM_PTR))
 699              		.loc 1 479 0
 700 002c FB79     		ldrb	r3, [r7, #7]	@ zero_extendqisi2
 701 002e 002B     		cmp	r3, #0
 702 0030 09D0     		beq	.L36
 703              		.loc 1 479 0 is_stmt 0 discriminator 1
 704 0032 FB79     		ldrb	r3, [r7, #7]	@ zero_extendqisi2
 705 0034 03F18043 		add	r3, r3, #1073741824
 706 0038 013B     		subs	r3, r3, #1
 707 003a 9B00     		lsls	r3, r3, #2
 708 003c BA68     		ldr	r2, [r7, #8]
 709 003e 1A44     		add	r2, r2, r3
 710 0040 194B     		ldr	r3, .L41+4
 711 0042 9A42     		cmp	r2, r3
 712 0044 02D9     		bls	.L37
 713              	.L36:
 480:.\Generated_Source\PSoC5/MultAcc_1_MACC.c ****     {
 481:.\Generated_Source\PSoC5/MultAcc_1_MACC.c ****         result = MultAcc_1_MACC_DATA_OUT_OF_RANGE;
 714              		.loc 1 481 0 is_stmt 1
ARM GAS  C:\Users\SCOTTC~1\AppData\Local\Temp\cckOy2jK.s 			page 22


 715 0046 FE23     		movs	r3, #254
 716 0048 FB75     		strb	r3, [r7, #23]
 717 004a 23E0     		b	.L35
 718              	.L37:
 482:.\Generated_Source\PSoC5/MultAcc_1_MACC.c ****     }
 483:.\Generated_Source\PSoC5/MultAcc_1_MACC.c ****     else
 484:.\Generated_Source\PSoC5/MultAcc_1_MACC.c ****     {
 485:.\Generated_Source\PSoC5/MultAcc_1_MACC.c ****         /* Puts DFB RAM on the bus */
 486:.\Generated_Source\PSoC5/MultAcc_1_MACC.c ****         MultAcc_1_MACC_RAM_DIR_REG |= MultAcc_1_MACC_RAM_DPA_DIR;
 719              		.loc 1 486 0
 720 004c 174B     		ldr	r3, .L41+8
 721 004e 174A     		ldr	r2, .L41+8
 722 0050 1278     		ldrb	r2, [r2]
 723 0052 D2B2     		uxtb	r2, r2
 724 0054 42F01002 		orr	r2, r2, #16
 725 0058 D2B2     		uxtb	r2, r2
 726 005a 1A70     		strb	r2, [r3]
 487:.\Generated_Source\PSoC5/MultAcc_1_MACC.c ****         while (size > 0u)
 727              		.loc 1 487 0
 728 005c 0FE0     		b	.L38
 729              	.L39:
 488:.\Generated_Source\PSoC5/MultAcc_1_MACC.c ****         {
 489:.\Generated_Source\PSoC5/MultAcc_1_MACC.c ****             CY_SET_REG32((reg32 *) (& addr[i]), (uint32) ptr[i]);
 730              		.loc 1 489 0
 731 005e BB7D     		ldrb	r3, [r7, #22]	@ zero_extendqisi2
 732 0060 9B00     		lsls	r3, r3, #2
 733 0062 BA68     		ldr	r2, [r7, #8]
 734 0064 1344     		add	r3, r3, r2
 735 0066 BA7D     		ldrb	r2, [r7, #22]	@ zero_extendqisi2
 736 0068 9200     		lsls	r2, r2, #2
 737 006a F968     		ldr	r1, [r7, #12]
 738 006c 0A44     		add	r2, r2, r1
 739 006e 1268     		ldr	r2, [r2]
 740 0070 1A60     		str	r2, [r3]
 490:.\Generated_Source\PSoC5/MultAcc_1_MACC.c ****             size--;            
 741              		.loc 1 490 0
 742 0072 FB79     		ldrb	r3, [r7, #7]	@ zero_extendqisi2
 743 0074 013B     		subs	r3, r3, #1
 744 0076 FB71     		strb	r3, [r7, #7]
 491:.\Generated_Source\PSoC5/MultAcc_1_MACC.c ****             i++;
 745              		.loc 1 491 0
 746 0078 BB7D     		ldrb	r3, [r7, #22]	@ zero_extendqisi2
 747 007a 0133     		adds	r3, r3, #1
 748 007c BB75     		strb	r3, [r7, #22]
 749              	.L38:
 487:.\Generated_Source\PSoC5/MultAcc_1_MACC.c ****         while (size > 0u)
 750              		.loc 1 487 0 discriminator 1
 751 007e FB79     		ldrb	r3, [r7, #7]	@ zero_extendqisi2
 752 0080 002B     		cmp	r3, #0
 753 0082 ECD1     		bne	.L39
 492:.\Generated_Source\PSoC5/MultAcc_1_MACC.c ****         }
 493:.\Generated_Source\PSoC5/MultAcc_1_MACC.c ****         /* Takes DFB RAM off the bus */
 494:.\Generated_Source\PSoC5/MultAcc_1_MACC.c ****         MultAcc_1_MACC_RAM_DIR_REG &= (uint8) (~MultAcc_1_MACC_RAM_DPA_DIR);
 754              		.loc 1 494 0
 755 0084 094B     		ldr	r3, .L41+8
 756 0086 094A     		ldr	r2, .L41+8
 757 0088 1278     		ldrb	r2, [r2]
ARM GAS  C:\Users\SCOTTC~1\AppData\Local\Temp\cckOy2jK.s 			page 23


 758 008a D2B2     		uxtb	r2, r2
 759 008c 22F01002 		bic	r2, r2, #16
 760 0090 D2B2     		uxtb	r2, r2
 761 0092 1A70     		strb	r2, [r3]
 762              	.L35:
 495:.\Generated_Source\PSoC5/MultAcc_1_MACC.c ****     }
 496:.\Generated_Source\PSoC5/MultAcc_1_MACC.c **** 
 497:.\Generated_Source\PSoC5/MultAcc_1_MACC.c ****     return (result);
 763              		.loc 1 497 0
 764 0094 FB7D     		ldrb	r3, [r7, #23]	@ zero_extendqisi2
 498:.\Generated_Source\PSoC5/MultAcc_1_MACC.c **** }
 765              		.loc 1 498 0
 766 0096 1846     		mov	r0, r3
 767 0098 1C37     		adds	r7, r7, #28
 768 009a BD46     		mov	sp, r7
 769              		@ sp needed
 770 009c 5DF8047B 		ldr	r7, [sp], #4
 771 00a0 7047     		bx	lr
 772              	.L42:
 773 00a2 00BF     		.align	2
 774              	.L41:
 775 00a4 FFBF0040 		.word	1073790975
 776 00a8 FCC10040 		.word	1073791484
 777 00ac 8CC70040 		.word	1073792908
 778              		.cfi_endproc
 779              	.LFE10:
 780              		.size	MultAcc_1_MACC_LoadDataRAMA, .-MultAcc_1_MACC_LoadDataRAMA
 781              		.section	.text.MultAcc_1_MACC_LoadDataRAMB,"ax",%progbits
 782              		.align	2
 783              		.global	MultAcc_1_MACC_LoadDataRAMB
 784              		.thumb
 785              		.thumb_func
 786              		.type	MultAcc_1_MACC_LoadDataRAMB, %function
 787              	MultAcc_1_MACC_LoadDataRAMB:
 788              	.LFB11:
 499:.\Generated_Source\PSoC5/MultAcc_1_MACC.c **** 
 500:.\Generated_Source\PSoC5/MultAcc_1_MACC.c **** 
 501:.\Generated_Source\PSoC5/MultAcc_1_MACC.c **** /*******************************************************************************
 502:.\Generated_Source\PSoC5/MultAcc_1_MACC.c **** * Function Name: MultAcc_1_MACC_LoadDataRAMB
 503:.\Generated_Source\PSoC5/MultAcc_1_MACC.c **** ********************************************************************************
 504:.\Generated_Source\PSoC5/MultAcc_1_MACC.c **** *
 505:.\Generated_Source\PSoC5/MultAcc_1_MACC.c **** * Summary:
 506:.\Generated_Source\PSoC5/MultAcc_1_MACC.c **** *  This function loads data to DFB RAM B memory.
 507:.\Generated_Source\PSoC5/MultAcc_1_MACC.c **** *
 508:.\Generated_Source\PSoC5/MultAcc_1_MACC.c **** * Parameters:
 509:.\Generated_Source\PSoC5/MultAcc_1_MACC.c **** *  const int32 ptr[]: pointer on data source for load;
 510:.\Generated_Source\PSoC5/MultAcc_1_MACC.c **** *  uint32     addr[]: start addres for loading the data in DFB RAM B;
 511:.\Generated_Source\PSoC5/MultAcc_1_MACC.c **** *  uint8        size: number of data words to load.
 512:.\Generated_Source\PSoC5/MultAcc_1_MACC.c **** *
 513:.\Generated_Source\PSoC5/MultAcc_1_MACC.c **** * Return:
 514:.\Generated_Source\PSoC5/MultAcc_1_MACC.c **** *  MultAcc_1_MACC_SUCCESS - Loading data is successful.
 515:.\Generated_Source\PSoC5/MultAcc_1_MACC.c **** *  MultAcc_1_MACC_ADDRESS_OUT_OF_RANGE - error code, indicates that the
 516:.\Generated_Source\PSoC5/MultAcc_1_MACC.c **** *  address is out of range.
 517:.\Generated_Source\PSoC5/MultAcc_1_MACC.c **** *  MultAcc_1_MACC_DATA_OUT_OF_RANGE - error code, indicates data overflow
 518:.\Generated_Source\PSoC5/MultAcc_1_MACC.c **** *  error.
 519:.\Generated_Source\PSoC5/MultAcc_1_MACC.c **** *
 520:.\Generated_Source\PSoC5/MultAcc_1_MACC.c **** * Side Effects:
ARM GAS  C:\Users\SCOTTC~1\AppData\Local\Temp\cckOy2jK.s 			page 24


 521:.\Generated_Source\PSoC5/MultAcc_1_MACC.c **** *  This API doesn't stop the DFB if it is already started. Hence, recommended
 522:.\Generated_Source\PSoC5/MultAcc_1_MACC.c **** *  method is to call Init() API, then LoadDataRAMB() API and then Enable() API.
 523:.\Generated_Source\PSoC5/MultAcc_1_MACC.c **** *
 524:.\Generated_Source\PSoC5/MultAcc_1_MACC.c **** *******************************************************************************/
 525:.\Generated_Source\PSoC5/MultAcc_1_MACC.c **** uint8 MultAcc_1_MACC_LoadDataRAMB(const int32 ptr[], uint32 addr[], uint8 size)
 526:.\Generated_Source\PSoC5/MultAcc_1_MACC.c ****      
 527:.\Generated_Source\PSoC5/MultAcc_1_MACC.c **** {
 789              		.loc 1 527 0
 790              		.cfi_startproc
 791              		@ args = 0, pretend = 0, frame = 24
 792              		@ frame_needed = 1, uses_anonymous_args = 0
 793              		@ link register save eliminated.
 794 0000 80B4     		push	{r7}
 795              		.cfi_def_cfa_offset 4
 796              		.cfi_offset 7, -4
 797 0002 87B0     		sub	sp, sp, #28
 798              		.cfi_def_cfa_offset 32
 799 0004 00AF     		add	r7, sp, #0
 800              		.cfi_def_cfa_register 7
 801 0006 F860     		str	r0, [r7, #12]
 802 0008 B960     		str	r1, [r7, #8]
 803 000a 1346     		mov	r3, r2
 804 000c FB71     		strb	r3, [r7, #7]
 528:.\Generated_Source\PSoC5/MultAcc_1_MACC.c ****     uint8 result = MultAcc_1_MACC_SUCCESS;
 805              		.loc 1 528 0
 806 000e 0023     		movs	r3, #0
 807 0010 FB75     		strb	r3, [r7, #23]
 529:.\Generated_Source\PSoC5/MultAcc_1_MACC.c ****     uint8 i = 0u;
 808              		.loc 1 529 0
 809 0012 0023     		movs	r3, #0
 810 0014 BB75     		strb	r3, [r7, #22]
 530:.\Generated_Source\PSoC5/MultAcc_1_MACC.c ****     
 531:.\Generated_Source\PSoC5/MultAcc_1_MACC.c ****     if (((& addr[0u]) < MultAcc_1_MACC_DB_RAM_PTR) || ((& addr[0u]) > MultAcc_1_MACC_DB_RAM_LAST_EL
 811              		.loc 1 531 0
 812 0016 BA68     		ldr	r2, [r7, #8]
 813 0018 224B     		ldr	r3, .L52
 814 001a 9A42     		cmp	r2, r3
 815 001c 03D9     		bls	.L44
 816              		.loc 1 531 0 is_stmt 0 discriminator 1
 817 001e BA68     		ldr	r2, [r7, #8]
 818 0020 214B     		ldr	r3, .L52+4
 819 0022 9A42     		cmp	r2, r3
 820 0024 02D9     		bls	.L45
 821              	.L44:
 532:.\Generated_Source\PSoC5/MultAcc_1_MACC.c ****     {
 533:.\Generated_Source\PSoC5/MultAcc_1_MACC.c ****         result = MultAcc_1_MACC_ADDRESS_OUT_OF_RANGE;
 822              		.loc 1 533 0 is_stmt 1
 823 0026 FF23     		movs	r3, #255
 824 0028 FB75     		strb	r3, [r7, #23]
 825 002a 33E0     		b	.L46
 826              	.L45:
 534:.\Generated_Source\PSoC5/MultAcc_1_MACC.c ****     }
 535:.\Generated_Source\PSoC5/MultAcc_1_MACC.c ****     else if ((size == 0u) || ((& addr[size - 1u]) > MultAcc_1_MACC_DB_RAM_LAST_ELEM_PTR))
 827              		.loc 1 535 0
 828 002c FB79     		ldrb	r3, [r7, #7]	@ zero_extendqisi2
 829 002e 002B     		cmp	r3, #0
 830 0030 09D0     		beq	.L47
ARM GAS  C:\Users\SCOTTC~1\AppData\Local\Temp\cckOy2jK.s 			page 25


 831              		.loc 1 535 0 is_stmt 0 discriminator 1
 832 0032 FB79     		ldrb	r3, [r7, #7]	@ zero_extendqisi2
 833 0034 03F18043 		add	r3, r3, #1073741824
 834 0038 013B     		subs	r3, r3, #1
 835 003a 9B00     		lsls	r3, r3, #2
 836 003c BA68     		ldr	r2, [r7, #8]
 837 003e 1A44     		add	r2, r2, r3
 838 0040 194B     		ldr	r3, .L52+4
 839 0042 9A42     		cmp	r2, r3
 840 0044 02D9     		bls	.L48
 841              	.L47:
 536:.\Generated_Source\PSoC5/MultAcc_1_MACC.c ****     {
 537:.\Generated_Source\PSoC5/MultAcc_1_MACC.c ****         result = MultAcc_1_MACC_DATA_OUT_OF_RANGE;
 842              		.loc 1 537 0 is_stmt 1
 843 0046 FE23     		movs	r3, #254
 844 0048 FB75     		strb	r3, [r7, #23]
 845 004a 23E0     		b	.L46
 846              	.L48:
 538:.\Generated_Source\PSoC5/MultAcc_1_MACC.c ****     }
 539:.\Generated_Source\PSoC5/MultAcc_1_MACC.c ****     else
 540:.\Generated_Source\PSoC5/MultAcc_1_MACC.c ****     {
 541:.\Generated_Source\PSoC5/MultAcc_1_MACC.c ****         /* Puts DFB RAM on the bus */
 542:.\Generated_Source\PSoC5/MultAcc_1_MACC.c ****         MultAcc_1_MACC_RAM_DIR_REG |= MultAcc_1_MACC_RAM_DPB_DIR;
 847              		.loc 1 542 0
 848 004c 174B     		ldr	r3, .L52+8
 849 004e 174A     		ldr	r2, .L52+8
 850 0050 1278     		ldrb	r2, [r2]
 851 0052 D2B2     		uxtb	r2, r2
 852 0054 42F02002 		orr	r2, r2, #32
 853 0058 D2B2     		uxtb	r2, r2
 854 005a 1A70     		strb	r2, [r3]
 543:.\Generated_Source\PSoC5/MultAcc_1_MACC.c ****         while (size > 0u)
 855              		.loc 1 543 0
 856 005c 0FE0     		b	.L49
 857              	.L50:
 544:.\Generated_Source\PSoC5/MultAcc_1_MACC.c ****         {
 545:.\Generated_Source\PSoC5/MultAcc_1_MACC.c ****             CY_SET_REG32((reg32 *) (& addr[i]), (uint32) ptr[i]);
 858              		.loc 1 545 0
 859 005e BB7D     		ldrb	r3, [r7, #22]	@ zero_extendqisi2
 860 0060 9B00     		lsls	r3, r3, #2
 861 0062 BA68     		ldr	r2, [r7, #8]
 862 0064 1344     		add	r3, r3, r2
 863 0066 BA7D     		ldrb	r2, [r7, #22]	@ zero_extendqisi2
 864 0068 9200     		lsls	r2, r2, #2
 865 006a F968     		ldr	r1, [r7, #12]
 866 006c 0A44     		add	r2, r2, r1
 867 006e 1268     		ldr	r2, [r2]
 868 0070 1A60     		str	r2, [r3]
 546:.\Generated_Source\PSoC5/MultAcc_1_MACC.c ****             size--;
 869              		.loc 1 546 0
 870 0072 FB79     		ldrb	r3, [r7, #7]	@ zero_extendqisi2
 871 0074 013B     		subs	r3, r3, #1
 872 0076 FB71     		strb	r3, [r7, #7]
 547:.\Generated_Source\PSoC5/MultAcc_1_MACC.c ****             i++;
 873              		.loc 1 547 0
 874 0078 BB7D     		ldrb	r3, [r7, #22]	@ zero_extendqisi2
 875 007a 0133     		adds	r3, r3, #1
ARM GAS  C:\Users\SCOTTC~1\AppData\Local\Temp\cckOy2jK.s 			page 26


 876 007c BB75     		strb	r3, [r7, #22]
 877              	.L49:
 543:.\Generated_Source\PSoC5/MultAcc_1_MACC.c ****         while (size > 0u)
 878              		.loc 1 543 0 discriminator 1
 879 007e FB79     		ldrb	r3, [r7, #7]	@ zero_extendqisi2
 880 0080 002B     		cmp	r3, #0
 881 0082 ECD1     		bne	.L50
 548:.\Generated_Source\PSoC5/MultAcc_1_MACC.c ****         }
 549:.\Generated_Source\PSoC5/MultAcc_1_MACC.c ****         /* Takes DFB RAM off the bus */
 550:.\Generated_Source\PSoC5/MultAcc_1_MACC.c ****         MultAcc_1_MACC_RAM_DIR_REG &= (uint8) (~MultAcc_1_MACC_RAM_DPB_DIR);
 882              		.loc 1 550 0
 883 0084 094B     		ldr	r3, .L52+8
 884 0086 094A     		ldr	r2, .L52+8
 885 0088 1278     		ldrb	r2, [r2]
 886 008a D2B2     		uxtb	r2, r2
 887 008c 22F02002 		bic	r2, r2, #32
 888 0090 D2B2     		uxtb	r2, r2
 889 0092 1A70     		strb	r2, [r3]
 890              	.L46:
 551:.\Generated_Source\PSoC5/MultAcc_1_MACC.c ****     }
 552:.\Generated_Source\PSoC5/MultAcc_1_MACC.c **** 
 553:.\Generated_Source\PSoC5/MultAcc_1_MACC.c ****     return (result);
 891              		.loc 1 553 0
 892 0094 FB7D     		ldrb	r3, [r7, #23]	@ zero_extendqisi2
 554:.\Generated_Source\PSoC5/MultAcc_1_MACC.c **** }
 893              		.loc 1 554 0
 894 0096 1846     		mov	r0, r3
 895 0098 1C37     		adds	r7, r7, #28
 896 009a BD46     		mov	sp, r7
 897              		@ sp needed
 898 009c 5DF8047B 		ldr	r7, [sp], #4
 899 00a0 7047     		bx	lr
 900              	.L53:
 901 00a2 00BF     		.align	2
 902              	.L52:
 903 00a4 FFC10040 		.word	1073791487
 904 00a8 FCC30040 		.word	1073791996
 905 00ac 8CC70040 		.word	1073792908
 906              		.cfi_endproc
 907              	.LFE11:
 908              		.size	MultAcc_1_MACC_LoadDataRAMB, .-MultAcc_1_MACC_LoadDataRAMB
 909              		.section	.text.MultAcc_1_MACC_LoadInputValue,"ax",%progbits
 910              		.align	2
 911              		.global	MultAcc_1_MACC_LoadInputValue
 912              		.thumb
 913              		.thumb_func
 914              		.type	MultAcc_1_MACC_LoadInputValue, %function
 915              	MultAcc_1_MACC_LoadInputValue:
 916              	.LFB12:
 555:.\Generated_Source\PSoC5/MultAcc_1_MACC.c **** 
 556:.\Generated_Source\PSoC5/MultAcc_1_MACC.c **** 
 557:.\Generated_Source\PSoC5/MultAcc_1_MACC.c **** /*******************************************************************************
 558:.\Generated_Source\PSoC5/MultAcc_1_MACC.c **** * Function Name: MultAcc_1_MACC_LoadInputValue
 559:.\Generated_Source\PSoC5/MultAcc_1_MACC.c **** ********************************************************************************
 560:.\Generated_Source\PSoC5/MultAcc_1_MACC.c **** *
 561:.\Generated_Source\PSoC5/MultAcc_1_MACC.c **** * Summary:
 562:.\Generated_Source\PSoC5/MultAcc_1_MACC.c **** *  This function loads input value in selected channel.
ARM GAS  C:\Users\SCOTTC~1\AppData\Local\Temp\cckOy2jK.s 			page 27


 563:.\Generated_Source\PSoC5/MultAcc_1_MACC.c **** *
 564:.\Generated_Source\PSoC5/MultAcc_1_MACC.c **** * Parameters:
 565:.\Generated_Source\PSoC5/MultAcc_1_MACC.c **** *  channel: Use either MultAcc_1_MACC_CHANNEL_A (1) or
 566:.\Generated_Source\PSoC5/MultAcc_1_MACC.c **** *           MultAcc_1_MACC_CHANNEL_B (0) asarguments to the function;
 567:.\Generated_Source\PSoC5/MultAcc_1_MACC.c **** *  sample: The 24-bit, right justified input sample.
 568:.\Generated_Source\PSoC5/MultAcc_1_MACC.c **** *
 569:.\Generated_Source\PSoC5/MultAcc_1_MACC.c **** * Return:
 570:.\Generated_Source\PSoC5/MultAcc_1_MACC.c **** *  None.
 571:.\Generated_Source\PSoC5/MultAcc_1_MACC.c **** *
 572:.\Generated_Source\PSoC5/MultAcc_1_MACC.c **** * Note:
 573:.\Generated_Source\PSoC5/MultAcc_1_MACC.c **** *  The write order is important. When the high byte is loaded, the DFB sets
 574:.\Generated_Source\PSoC5/MultAcc_1_MACC.c **** *  the input ready bit. Pay attention to byte order if coherency or data
 575:.\Generated_Source\PSoC5/MultAcc_1_MACC.c **** *  alignment is changed.
 576:.\Generated_Source\PSoC5/MultAcc_1_MACC.c **** *
 577:.\Generated_Source\PSoC5/MultAcc_1_MACC.c **** *******************************************************************************/
 578:.\Generated_Source\PSoC5/MultAcc_1_MACC.c **** void MultAcc_1_MACC_LoadInputValue(uint8 channel, int32 sample) 
 579:.\Generated_Source\PSoC5/MultAcc_1_MACC.c **** {
 917              		.loc 1 579 0
 918              		.cfi_startproc
 919              		@ args = 0, pretend = 0, frame = 16
 920              		@ frame_needed = 1, uses_anonymous_args = 0
 921              		@ link register save eliminated.
 922 0000 80B4     		push	{r7}
 923              		.cfi_def_cfa_offset 4
 924              		.cfi_offset 7, -4
 925 0002 85B0     		sub	sp, sp, #20
 926              		.cfi_def_cfa_offset 24
 927 0004 00AF     		add	r7, sp, #0
 928              		.cfi_def_cfa_register 7
 929 0006 0346     		mov	r3, r0
 930 0008 3960     		str	r1, [r7]
 931 000a FB71     		strb	r3, [r7, #7]
 580:.\Generated_Source\PSoC5/MultAcc_1_MACC.c ****     uint32 value;
 581:.\Generated_Source\PSoC5/MultAcc_1_MACC.c **** 
 582:.\Generated_Source\PSoC5/MultAcc_1_MACC.c ****     value = (uint32) sample;
 932              		.loc 1 582 0
 933 000c 3B68     		ldr	r3, [r7]
 934 000e FB60     		str	r3, [r7, #12]
 583:.\Generated_Source\PSoC5/MultAcc_1_MACC.c **** 
 584:.\Generated_Source\PSoC5/MultAcc_1_MACC.c ****     /* Writes the STAGE-"H" reg last as it signals a complete wrote to the DFB.*/
 585:.\Generated_Source\PSoC5/MultAcc_1_MACC.c ****     if (channel == MultAcc_1_MACC_CHANNEL_A)
 935              		.loc 1 585 0
 936 0010 FB79     		ldrb	r3, [r7, #7]	@ zero_extendqisi2
 937 0012 012B     		cmp	r3, #1
 938 0014 0ED1     		bne	.L55
 586:.\Generated_Source\PSoC5/MultAcc_1_MACC.c ****     {
 587:.\Generated_Source\PSoC5/MultAcc_1_MACC.c ****         MultAcc_1_MACC_STAGEA_REG  = (uint8) value;
 939              		.loc 1 587 0
 940 0016 124B     		ldr	r3, .L57
 941 0018 FA68     		ldr	r2, [r7, #12]
 942 001a D2B2     		uxtb	r2, r2
 943 001c 1A70     		strb	r2, [r3]
 588:.\Generated_Source\PSoC5/MultAcc_1_MACC.c ****         MultAcc_1_MACC_STAGEAM_REG = (uint8) (value >> 8u);
 944              		.loc 1 588 0
 945 001e 114B     		ldr	r3, .L57+4
 946 0020 FA68     		ldr	r2, [r7, #12]
 947 0022 120A     		lsrs	r2, r2, #8
ARM GAS  C:\Users\SCOTTC~1\AppData\Local\Temp\cckOy2jK.s 			page 28


 948 0024 D2B2     		uxtb	r2, r2
 949 0026 1A70     		strb	r2, [r3]
 589:.\Generated_Source\PSoC5/MultAcc_1_MACC.c ****         MultAcc_1_MACC_STAGEAH_REG = (uint8) (value >> 16u);
 950              		.loc 1 589 0
 951 0028 0F4B     		ldr	r3, .L57+8
 952 002a FA68     		ldr	r2, [r7, #12]
 953 002c 120C     		lsrs	r2, r2, #16
 954 002e D2B2     		uxtb	r2, r2
 955 0030 1A70     		strb	r2, [r3]
 956 0032 10E0     		b	.L54
 957              	.L55:
 590:.\Generated_Source\PSoC5/MultAcc_1_MACC.c ****     }
 591:.\Generated_Source\PSoC5/MultAcc_1_MACC.c ****     else if (channel == MultAcc_1_MACC_CHANNEL_B)
 958              		.loc 1 591 0
 959 0034 FB79     		ldrb	r3, [r7, #7]	@ zero_extendqisi2
 960 0036 002B     		cmp	r3, #0
 961 0038 0DD1     		bne	.L54
 592:.\Generated_Source\PSoC5/MultAcc_1_MACC.c ****     {
 593:.\Generated_Source\PSoC5/MultAcc_1_MACC.c ****         MultAcc_1_MACC_STAGEB_REG  = (uint8) value;
 962              		.loc 1 593 0
 963 003a 0C4B     		ldr	r3, .L57+12
 964 003c FA68     		ldr	r2, [r7, #12]
 965 003e D2B2     		uxtb	r2, r2
 966 0040 1A70     		strb	r2, [r3]
 594:.\Generated_Source\PSoC5/MultAcc_1_MACC.c ****         MultAcc_1_MACC_STAGEBM_REG = (uint8) (value >> 8u);
 967              		.loc 1 594 0
 968 0042 0B4B     		ldr	r3, .L57+16
 969 0044 FA68     		ldr	r2, [r7, #12]
 970 0046 120A     		lsrs	r2, r2, #8
 971 0048 D2B2     		uxtb	r2, r2
 972 004a 1A70     		strb	r2, [r3]
 595:.\Generated_Source\PSoC5/MultAcc_1_MACC.c ****         MultAcc_1_MACC_STAGEBH_REG = (uint8) (value >> 16u);
 973              		.loc 1 595 0
 974 004c 094B     		ldr	r3, .L57+20
 975 004e FA68     		ldr	r2, [r7, #12]
 976 0050 120C     		lsrs	r2, r2, #16
 977 0052 D2B2     		uxtb	r2, r2
 978 0054 1A70     		strb	r2, [r3]
 979              	.L54:
 596:.\Generated_Source\PSoC5/MultAcc_1_MACC.c ****     }
 597:.\Generated_Source\PSoC5/MultAcc_1_MACC.c ****     else
 598:.\Generated_Source\PSoC5/MultAcc_1_MACC.c ****     {
 599:.\Generated_Source\PSoC5/MultAcc_1_MACC.c ****         /* No value is loaded on bad channel input */
 600:.\Generated_Source\PSoC5/MultAcc_1_MACC.c ****     }
 601:.\Generated_Source\PSoC5/MultAcc_1_MACC.c **** }
 980              		.loc 1 601 0
 981 0056 1437     		adds	r7, r7, #20
 982 0058 BD46     		mov	sp, r7
 983              		@ sp needed
 984 005a 5DF8047B 		ldr	r7, [sp], #4
 985 005e 7047     		bx	lr
 986              	.L58:
 987              		.align	2
 988              	.L57:
 989 0060 A0C70040 		.word	1073792928
 990 0064 A1C70040 		.word	1073792929
 991 0068 A2C70040 		.word	1073792930
ARM GAS  C:\Users\SCOTTC~1\AppData\Local\Temp\cckOy2jK.s 			page 29


 992 006c A4C70040 		.word	1073792932
 993 0070 A5C70040 		.word	1073792933
 994 0074 A6C70040 		.word	1073792934
 995              		.cfi_endproc
 996              	.LFE12:
 997              		.size	MultAcc_1_MACC_LoadInputValue, .-MultAcc_1_MACC_LoadInputValue
 998              		.section	.text.MultAcc_1_MACC_GetOutputValue,"ax",%progbits
 999              		.align	2
 1000              		.global	MultAcc_1_MACC_GetOutputValue
 1001              		.thumb
 1002              		.thumb_func
 1003              		.type	MultAcc_1_MACC_GetOutputValue, %function
 1004              	MultAcc_1_MACC_GetOutputValue:
 1005              	.LFB13:
 602:.\Generated_Source\PSoC5/MultAcc_1_MACC.c **** 
 603:.\Generated_Source\PSoC5/MultAcc_1_MACC.c **** 
 604:.\Generated_Source\PSoC5/MultAcc_1_MACC.c **** /*******************************************************************************
 605:.\Generated_Source\PSoC5/MultAcc_1_MACC.c **** * Function Name: MultAcc_1_MACC_GetOutputValue
 606:.\Generated_Source\PSoC5/MultAcc_1_MACC.c **** ********************************************************************************
 607:.\Generated_Source\PSoC5/MultAcc_1_MACC.c **** *
 608:.\Generated_Source\PSoC5/MultAcc_1_MACC.c **** * Summary:
 609:.\Generated_Source\PSoC5/MultAcc_1_MACC.c **** *  This function gets the value from one of the DFB Output Holding Registers.
 610:.\Generated_Source\PSoC5/MultAcc_1_MACC.c **** *
 611:.\Generated_Source\PSoC5/MultAcc_1_MACC.c **** * Parameters:
 612:.\Generated_Source\PSoC5/MultAcc_1_MACC.c **** *  channel: Use either MultAcc_1_MACC_CHANNEL_A (1) or
 613:.\Generated_Source\PSoC5/MultAcc_1_MACC.c **** *           MultAcc_1_MACC_CHANNEL_B (0) as arguments to the function.
 614:.\Generated_Source\PSoC5/MultAcc_1_MACC.c **** *
 615:.\Generated_Source\PSoC5/MultAcc_1_MACC.c **** * Return:
 616:.\Generated_Source\PSoC5/MultAcc_1_MACC.c **** *  The current output value in the chosen channel's holding register. This is
 617:.\Generated_Source\PSoC5/MultAcc_1_MACC.c **** *  a 24-bit number packed into the least-significant 3 bytes of the output word
 618:.\Generated_Source\PSoC5/MultAcc_1_MACC.c **** *  or 0xFF000000 for invalid channel numbers
 619:.\Generated_Source\PSoC5/MultAcc_1_MACC.c **** *
 620:.\Generated_Source\PSoC5/MultAcc_1_MACC.c **** * Note:
 621:.\Generated_Source\PSoC5/MultAcc_1_MACC.c **** *  Because of the architecture of the DFB, any value read from the Holding A or
 622:.\Generated_Source\PSoC5/MultAcc_1_MACC.c **** *  B registers will be MSB aligned unless shifted otherwise by the Datapath
 623:.\Generated_Source\PSoC5/MultAcc_1_MACC.c **** *  shifter. Pay attention to byte order if coherency or data alignment is
 624:.\Generated_Source\PSoC5/MultAcc_1_MACC.c **** *  changed.
 625:.\Generated_Source\PSoC5/MultAcc_1_MACC.c **** *
 626:.\Generated_Source\PSoC5/MultAcc_1_MACC.c **** *******************************************************************************/
 627:.\Generated_Source\PSoC5/MultAcc_1_MACC.c **** int32 MultAcc_1_MACC_GetOutputValue(uint8 channel) 
 628:.\Generated_Source\PSoC5/MultAcc_1_MACC.c **** {
 1006              		.loc 1 628 0
 1007              		.cfi_startproc
 1008              		@ args = 0, pretend = 0, frame = 16
 1009              		@ frame_needed = 1, uses_anonymous_args = 0
 1010              		@ link register save eliminated.
 1011 0000 80B4     		push	{r7}
 1012              		.cfi_def_cfa_offset 4
 1013              		.cfi_offset 7, -4
 1014 0002 85B0     		sub	sp, sp, #20
 1015              		.cfi_def_cfa_offset 24
 1016 0004 00AF     		add	r7, sp, #0
 1017              		.cfi_def_cfa_register 7
 1018 0006 0346     		mov	r3, r0
 1019 0008 FB71     		strb	r3, [r7, #7]
 629:.\Generated_Source\PSoC5/MultAcc_1_MACC.c ****     uint8 data0;
 630:.\Generated_Source\PSoC5/MultAcc_1_MACC.c ****     uint8 data1;
ARM GAS  C:\Users\SCOTTC~1\AppData\Local\Temp\cckOy2jK.s 			page 30


 631:.\Generated_Source\PSoC5/MultAcc_1_MACC.c ****     uint8 data2;
 632:.\Generated_Source\PSoC5/MultAcc_1_MACC.c ****     uint8 data3;
 633:.\Generated_Source\PSoC5/MultAcc_1_MACC.c ****     uint32 output;
 634:.\Generated_Source\PSoC5/MultAcc_1_MACC.c **** 
 635:.\Generated_Source\PSoC5/MultAcc_1_MACC.c ****     /* Reads the HOLD-"H" reg last as it signals a complete read to the DFB.*/
 636:.\Generated_Source\PSoC5/MultAcc_1_MACC.c ****     if (channel == MultAcc_1_MACC_CHANNEL_A)
 1020              		.loc 1 636 0
 1021 000a FB79     		ldrb	r3, [r7, #7]	@ zero_extendqisi2
 1022 000c 012B     		cmp	r3, #1
 1023 000e 11D1     		bne	.L60
 637:.\Generated_Source\PSoC5/MultAcc_1_MACC.c ****     {
 638:.\Generated_Source\PSoC5/MultAcc_1_MACC.c ****         data0 = MultAcc_1_MACC_HOLDA_REG;
 1024              		.loc 1 638 0
 1025 0010 204B     		ldr	r3, .L68
 1026 0012 1B78     		ldrb	r3, [r3]
 1027 0014 FB73     		strb	r3, [r7, #15]
 639:.\Generated_Source\PSoC5/MultAcc_1_MACC.c ****         data1 = MultAcc_1_MACC_HOLDAM_REG;
 1028              		.loc 1 639 0
 1029 0016 204B     		ldr	r3, .L68+4
 1030 0018 1B78     		ldrb	r3, [r3]
 1031 001a BB73     		strb	r3, [r7, #14]
 640:.\Generated_Source\PSoC5/MultAcc_1_MACC.c ****         data2 = MultAcc_1_MACC_HOLDAH_REG;
 1032              		.loc 1 640 0
 1033 001c 1F4B     		ldr	r3, .L68+8
 1034 001e 1B78     		ldrb	r3, [r3]
 1035 0020 7B73     		strb	r3, [r7, #13]
 641:.\Generated_Source\PSoC5/MultAcc_1_MACC.c ****         data3 = ((data2 & 0x80u) == 0x80u) ? 0xFFu : 0x00u;
 1036              		.loc 1 641 0
 1037 0022 7B7B     		ldrb	r3, [r7, #13]	@ zero_extendqisi2
 1038 0024 5BB2     		sxtb	r3, r3
 1039 0026 002B     		cmp	r3, #0
 1040 0028 01DA     		bge	.L61
 1041              		.loc 1 641 0 is_stmt 0 discriminator 1
 1042 002a FF23     		movs	r3, #255
 1043 002c 00E0     		b	.L62
 1044              	.L61:
 1045              		.loc 1 641 0 discriminator 2
 1046 002e 0023     		movs	r3, #0
 1047              	.L62:
 1048              		.loc 1 641 0 discriminator 1
 1049 0030 3B73     		strb	r3, [r7, #12]
 1050 0032 1CE0     		b	.L63
 1051              	.L60:
 642:.\Generated_Source\PSoC5/MultAcc_1_MACC.c ****     }
 643:.\Generated_Source\PSoC5/MultAcc_1_MACC.c ****     else if (channel == MultAcc_1_MACC_CHANNEL_B)
 1052              		.loc 1 643 0 is_stmt 1
 1053 0034 FB79     		ldrb	r3, [r7, #7]	@ zero_extendqisi2
 1054 0036 002B     		cmp	r3, #0
 1055 0038 11D1     		bne	.L64
 644:.\Generated_Source\PSoC5/MultAcc_1_MACC.c ****     {
 645:.\Generated_Source\PSoC5/MultAcc_1_MACC.c ****         data0 = MultAcc_1_MACC_HOLDB_REG;
 1056              		.loc 1 645 0
 1057 003a 194B     		ldr	r3, .L68+12
 1058 003c 1B78     		ldrb	r3, [r3]
 1059 003e FB73     		strb	r3, [r7, #15]
 646:.\Generated_Source\PSoC5/MultAcc_1_MACC.c ****         data1 = MultAcc_1_MACC_HOLDBM_REG;
 1060              		.loc 1 646 0
ARM GAS  C:\Users\SCOTTC~1\AppData\Local\Temp\cckOy2jK.s 			page 31


 1061 0040 184B     		ldr	r3, .L68+16
 1062 0042 1B78     		ldrb	r3, [r3]
 1063 0044 BB73     		strb	r3, [r7, #14]
 647:.\Generated_Source\PSoC5/MultAcc_1_MACC.c ****         data2 = MultAcc_1_MACC_HOLDBH_REG;
 1064              		.loc 1 647 0
 1065 0046 184B     		ldr	r3, .L68+20
 1066 0048 1B78     		ldrb	r3, [r3]
 1067 004a 7B73     		strb	r3, [r7, #13]
 648:.\Generated_Source\PSoC5/MultAcc_1_MACC.c ****         data3 = ((data2 & 0x80u) == 0x80u) ? 0xFFu : 0x00u;
 1068              		.loc 1 648 0
 1069 004c 7B7B     		ldrb	r3, [r7, #13]	@ zero_extendqisi2
 1070 004e 5BB2     		sxtb	r3, r3
 1071 0050 002B     		cmp	r3, #0
 1072 0052 01DA     		bge	.L65
 1073              		.loc 1 648 0 is_stmt 0 discriminator 1
 1074 0054 FF23     		movs	r3, #255
 1075 0056 00E0     		b	.L66
 1076              	.L65:
 1077              		.loc 1 648 0 discriminator 2
 1078 0058 0023     		movs	r3, #0
 1079              	.L66:
 1080 005a 3B73     		strb	r3, [r7, #12]
 1081 005c 07E0     		b	.L63
 1082              	.L64:
 649:.\Generated_Source\PSoC5/MultAcc_1_MACC.c ****     }
 650:.\Generated_Source\PSoC5/MultAcc_1_MACC.c ****     else
 651:.\Generated_Source\PSoC5/MultAcc_1_MACC.c ****     {
 652:.\Generated_Source\PSoC5/MultAcc_1_MACC.c ****         data0 = 0x00u;
 1083              		.loc 1 652 0 is_stmt 1
 1084 005e 0023     		movs	r3, #0
 1085 0060 FB73     		strb	r3, [r7, #15]
 653:.\Generated_Source\PSoC5/MultAcc_1_MACC.c ****         data1 = 0x00u;
 1086              		.loc 1 653 0
 1087 0062 0023     		movs	r3, #0
 1088 0064 BB73     		strb	r3, [r7, #14]
 654:.\Generated_Source\PSoC5/MultAcc_1_MACC.c ****         data2 = 0x00u;
 1089              		.loc 1 654 0
 1090 0066 0023     		movs	r3, #0
 1091 0068 7B73     		strb	r3, [r7, #13]
 655:.\Generated_Source\PSoC5/MultAcc_1_MACC.c ****         data3 = 0xFFu;
 1092              		.loc 1 655 0
 1093 006a FF23     		movs	r3, #255
 1094 006c 3B73     		strb	r3, [r7, #12]
 1095              	.L63:
 656:.\Generated_Source\PSoC5/MultAcc_1_MACC.c ****     }
 657:.\Generated_Source\PSoC5/MultAcc_1_MACC.c **** 
 658:.\Generated_Source\PSoC5/MultAcc_1_MACC.c ****     output = ((((((uint32) data3 << 8u) | data2) << 8u) | data1) << 8u) | data0;
 1096              		.loc 1 658 0
 1097 006e 3B7B     		ldrb	r3, [r7, #12]	@ zero_extendqisi2
 1098 0070 1A02     		lsls	r2, r3, #8
 1099 0072 7B7B     		ldrb	r3, [r7, #13]	@ zero_extendqisi2
 1100 0074 1343     		orrs	r3, r3, r2
 1101 0076 1A02     		lsls	r2, r3, #8
 1102 0078 BB7B     		ldrb	r3, [r7, #14]	@ zero_extendqisi2
 1103 007a 1343     		orrs	r3, r3, r2
 1104 007c 1A02     		lsls	r2, r3, #8
 1105 007e FB7B     		ldrb	r3, [r7, #15]	@ zero_extendqisi2
ARM GAS  C:\Users\SCOTTC~1\AppData\Local\Temp\cckOy2jK.s 			page 32


 1106 0080 1343     		orrs	r3, r3, r2
 1107 0082 BB60     		str	r3, [r7, #8]
 659:.\Generated_Source\PSoC5/MultAcc_1_MACC.c **** 
 660:.\Generated_Source\PSoC5/MultAcc_1_MACC.c ****     return ((int32) output);
 1108              		.loc 1 660 0
 1109 0084 BB68     		ldr	r3, [r7, #8]
 661:.\Generated_Source\PSoC5/MultAcc_1_MACC.c **** }
 1110              		.loc 1 661 0
 1111 0086 1846     		mov	r0, r3
 1112 0088 1437     		adds	r7, r7, #20
 1113 008a BD46     		mov	sp, r7
 1114              		@ sp needed
 1115 008c 5DF8047B 		ldr	r7, [sp], #4
 1116 0090 7047     		bx	lr
 1117              	.L69:
 1118 0092 00BF     		.align	2
 1119              	.L68:
 1120 0094 A8C70040 		.word	1073792936
 1121 0098 A9C70040 		.word	1073792937
 1122 009c AAC70040 		.word	1073792938
 1123 00a0 ACC70040 		.word	1073792940
 1124 00a4 ADC70040 		.word	1073792941
 1125 00a8 AEC70040 		.word	1073792942
 1126              		.cfi_endproc
 1127              	.LFE13:
 1128              		.size	MultAcc_1_MACC_GetOutputValue, .-MultAcc_1_MACC_GetOutputValue
 1129              		.section	.text.MultAcc_1_MACC_SetInterruptMode,"ax",%progbits
 1130              		.align	2
 1131              		.global	MultAcc_1_MACC_SetInterruptMode
 1132              		.thumb
 1133              		.thumb_func
 1134              		.type	MultAcc_1_MACC_SetInterruptMode, %function
 1135              	MultAcc_1_MACC_SetInterruptMode:
 1136              	.LFB14:
 662:.\Generated_Source\PSoC5/MultAcc_1_MACC.c **** 
 663:.\Generated_Source\PSoC5/MultAcc_1_MACC.c **** 
 664:.\Generated_Source\PSoC5/MultAcc_1_MACC.c **** /*******************************************************************************
 665:.\Generated_Source\PSoC5/MultAcc_1_MACC.c **** * Function Name: MultAcc_1_MACC_SetInterruptMode
 666:.\Generated_Source\PSoC5/MultAcc_1_MACC.c **** ********************************************************************************
 667:.\Generated_Source\PSoC5/MultAcc_1_MACC.c **** *
 668:.\Generated_Source\PSoC5/MultAcc_1_MACC.c **** * Summary:
 669:.\Generated_Source\PSoC5/MultAcc_1_MACC.c **** *  This function assigns the events which will trigger a DFB interrupt to be
 670:.\Generated_Source\PSoC5/MultAcc_1_MACC.c **** *  triggered.
 671:.\Generated_Source\PSoC5/MultAcc_1_MACC.c **** *
 672:.\Generated_Source\PSoC5/MultAcc_1_MACC.c **** * Parameters:
 673:.\Generated_Source\PSoC5/MultAcc_1_MACC.c **** *  events: Bits [0:5] of events represent the events that trigger DFB
 674:.\Generated_Source\PSoC5/MultAcc_1_MACC.c **** *          interrupts.
 675:.\Generated_Source\PSoC5/MultAcc_1_MACC.c **** *    Define                    Description
 676:.\Generated_Source\PSoC5/MultAcc_1_MACC.c **** *     MultAcc_1_MACC_HOLDA    Interrupt is generated each time new valid data
 677:.\Generated_Source\PSoC5/MultAcc_1_MACC.c **** *                               is written into the output Holding register A;
 678:.\Generated_Source\PSoC5/MultAcc_1_MACC.c **** *     MultAcc_1_MACC_HOLDB    Interrupt is generated each time new valid data
 679:.\Generated_Source\PSoC5/MultAcc_1_MACC.c **** *                               is written into the output Holding register B;
 680:.\Generated_Source\PSoC5/MultAcc_1_MACC.c **** *     MultAcc_1_MACC_SEMA0    Interrupt is generated each time a '1' is
 681:.\Generated_Source\PSoC5/MultAcc_1_MACC.c **** *                               written into the semaphore register bit 0;
 682:.\Generated_Source\PSoC5/MultAcc_1_MACC.c **** *     MultAcc_1_MACC_SEMA1    Interrupt is generated each time a '1' is
 683:.\Generated_Source\PSoC5/MultAcc_1_MACC.c **** *                               written into the semaphore register bit 1;
 684:.\Generated_Source\PSoC5/MultAcc_1_MACC.c **** *     MultAcc_1_MACC_SEMA2    Interrupt is generated each time a '1' is
ARM GAS  C:\Users\SCOTTC~1\AppData\Local\Temp\cckOy2jK.s 			page 33


 685:.\Generated_Source\PSoC5/MultAcc_1_MACC.c **** *                               written into the semaphore register bit 2.
 686:.\Generated_Source\PSoC5/MultAcc_1_MACC.c **** *
 687:.\Generated_Source\PSoC5/MultAcc_1_MACC.c **** * Return:
 688:.\Generated_Source\PSoC5/MultAcc_1_MACC.c **** *  None.
 689:.\Generated_Source\PSoC5/MultAcc_1_MACC.c **** *
 690:.\Generated_Source\PSoC5/MultAcc_1_MACC.c **** * Note:
 691:.\Generated_Source\PSoC5/MultAcc_1_MACC.c **** *  Do not configure semaphore 0 and semaphore 1 for both a DMA request and for
 692:.\Generated_Source\PSoC5/MultAcc_1_MACC.c **** *  an interrupt event. This is because, after one clock cycle, the system
 693:.\Generated_Source\PSoC5/MultAcc_1_MACC.c **** *  automatically clears any semaphore that triggered a DMA request.
 694:.\Generated_Source\PSoC5/MultAcc_1_MACC.c **** *
 695:.\Generated_Source\PSoC5/MultAcc_1_MACC.c **** *******************************************************************************/
 696:.\Generated_Source\PSoC5/MultAcc_1_MACC.c **** void MultAcc_1_MACC_SetInterruptMode(uint8 events) 
 697:.\Generated_Source\PSoC5/MultAcc_1_MACC.c **** {
 1137              		.loc 1 697 0
 1138              		.cfi_startproc
 1139              		@ args = 0, pretend = 0, frame = 8
 1140              		@ frame_needed = 1, uses_anonymous_args = 0
 1141              		@ link register save eliminated.
 1142 0000 80B4     		push	{r7}
 1143              		.cfi_def_cfa_offset 4
 1144              		.cfi_offset 7, -4
 1145 0002 83B0     		sub	sp, sp, #12
 1146              		.cfi_def_cfa_offset 16
 1147 0004 00AF     		add	r7, sp, #0
 1148              		.cfi_def_cfa_register 7
 1149 0006 0346     		mov	r3, r0
 1150 0008 FB71     		strb	r3, [r7, #7]
 698:.\Generated_Source\PSoC5/MultAcc_1_MACC.c ****     MultAcc_1_MACC_INT_CTRL_REG = events & MultAcc_1_MACC_EVENT_MASK;
 1151              		.loc 1 698 0
 1152 000a 054B     		ldr	r3, .L71
 1153 000c FA79     		ldrb	r2, [r7, #7]
 1154 000e 02F01F02 		and	r2, r2, #31
 1155 0012 D2B2     		uxtb	r2, r2
 1156 0014 1A70     		strb	r2, [r3]
 699:.\Generated_Source\PSoC5/MultAcc_1_MACC.c **** }
 1157              		.loc 1 699 0
 1158 0016 0C37     		adds	r7, r7, #12
 1159 0018 BD46     		mov	sp, r7
 1160              		@ sp needed
 1161 001a 5DF8047B 		ldr	r7, [sp], #4
 1162 001e 7047     		bx	lr
 1163              	.L72:
 1164              		.align	2
 1165              	.L71:
 1166 0020 98C70040 		.word	1073792920
 1167              		.cfi_endproc
 1168              	.LFE14:
 1169              		.size	MultAcc_1_MACC_SetInterruptMode, .-MultAcc_1_MACC_SetInterruptMode
 1170              		.section	.text.MultAcc_1_MACC_GetInterruptSource,"ax",%progbits
 1171              		.align	2
 1172              		.global	MultAcc_1_MACC_GetInterruptSource
 1173              		.thumb
 1174              		.thumb_func
 1175              		.type	MultAcc_1_MACC_GetInterruptSource, %function
 1176              	MultAcc_1_MACC_GetInterruptSource:
 1177              	.LFB15:
 700:.\Generated_Source\PSoC5/MultAcc_1_MACC.c **** 
ARM GAS  C:\Users\SCOTTC~1\AppData\Local\Temp\cckOy2jK.s 			page 34


 701:.\Generated_Source\PSoC5/MultAcc_1_MACC.c **** 
 702:.\Generated_Source\PSoC5/MultAcc_1_MACC.c **** /*******************************************************************************
 703:.\Generated_Source\PSoC5/MultAcc_1_MACC.c **** * Function Name: MultAcc_1_MACC_GetInterruptSource
 704:.\Generated_Source\PSoC5/MultAcc_1_MACC.c **** ********************************************************************************
 705:.\Generated_Source\PSoC5/MultAcc_1_MACC.c **** *
 706:.\Generated_Source\PSoC5/MultAcc_1_MACC.c **** * Summary:
 707:.\Generated_Source\PSoC5/MultAcc_1_MACC.c **** *  This function looks at the MultAcc_1_MACC_SR register to see which
 708:.\Generated_Source\PSoC5/MultAcc_1_MACC.c **** *  interrupt sources have been triggered.
 709:.\Generated_Source\PSoC5/MultAcc_1_MACC.c **** *
 710:.\Generated_Source\PSoC5/MultAcc_1_MACC.c **** * Parameters:
 711:.\Generated_Source\PSoC5/MultAcc_1_MACC.c **** *  None.
 712:.\Generated_Source\PSoC5/MultAcc_1_MACC.c **** *
 713:.\Generated_Source\PSoC5/MultAcc_1_MACC.c **** * Return:
 714:.\Generated_Source\PSoC5/MultAcc_1_MACC.c **** *  uint8 value in which bits [0:5] of represent the events that triggered the
 715:.\Generated_Source\PSoC5/MultAcc_1_MACC.c **** *  DFB interrupt.
 716:.\Generated_Source\PSoC5/MultAcc_1_MACC.c **** *    Define                    Description
 717:.\Generated_Source\PSoC5/MultAcc_1_MACC.c **** *     MultAcc_1_MACC_HOLDA    Holding register A is a source of the current
 718:.\Generated_Source\PSoC5/MultAcc_1_MACC.c **** *                               interrupt;
 719:.\Generated_Source\PSoC5/MultAcc_1_MACC.c **** *     MultAcc_1_MACC_HOLDB    Holding register B is a source of the current
 720:.\Generated_Source\PSoC5/MultAcc_1_MACC.c **** *                               interrupt;
 721:.\Generated_Source\PSoC5/MultAcc_1_MACC.c **** *     MultAcc_1_MACC_SEMA0    Semaphore register bit 0 is a source of the
 722:.\Generated_Source\PSoC5/MultAcc_1_MACC.c **** *                               current interrupt;
 723:.\Generated_Source\PSoC5/MultAcc_1_MACC.c **** *     MultAcc_1_MACC_SEMA1    Semaphore register bit 1 is a source of the
 724:.\Generated_Source\PSoC5/MultAcc_1_MACC.c **** *                               current interrupt;
 725:.\Generated_Source\PSoC5/MultAcc_1_MACC.c **** *     MultAcc_1_MACC_SEMA2    Semaphore register bit 2 is a source of the
 726:.\Generated_Source\PSoC5/MultAcc_1_MACC.c **** *                               current interrupt.
 727:.\Generated_Source\PSoC5/MultAcc_1_MACC.c **** *
 728:.\Generated_Source\PSoC5/MultAcc_1_MACC.c **** *******************************************************************************/
 729:.\Generated_Source\PSoC5/MultAcc_1_MACC.c **** uint8 MultAcc_1_MACC_GetInterruptSource(void) 
 730:.\Generated_Source\PSoC5/MultAcc_1_MACC.c **** {
 1178              		.loc 1 730 0
 1179              		.cfi_startproc
 1180              		@ args = 0, pretend = 0, frame = 0
 1181              		@ frame_needed = 1, uses_anonymous_args = 0
 1182              		@ link register save eliminated.
 1183 0000 80B4     		push	{r7}
 1184              		.cfi_def_cfa_offset 4
 1185              		.cfi_offset 7, -4
 1186 0002 00AF     		add	r7, sp, #0
 1187              		.cfi_def_cfa_register 7
 731:.\Generated_Source\PSoC5/MultAcc_1_MACC.c ****     /* Shifts the event bits down to [0:5] */
 732:.\Generated_Source\PSoC5/MultAcc_1_MACC.c ****     return ((uint8) (MultAcc_1_MACC_SR_REG >> MultAcc_1_MACC_SR_EVENT_SHIFT));
 1188              		.loc 1 732 0
 1189 0004 044B     		ldr	r3, .L75
 1190 0006 1B78     		ldrb	r3, [r3]
 1191 0008 DBB2     		uxtb	r3, r3
 1192 000a DB08     		lsrs	r3, r3, #3
 1193 000c DBB2     		uxtb	r3, r3
 733:.\Generated_Source\PSoC5/MultAcc_1_MACC.c **** }
 1194              		.loc 1 733 0
 1195 000e 1846     		mov	r0, r3
 1196 0010 BD46     		mov	sp, r7
 1197              		@ sp needed
 1198 0012 5DF8047B 		ldr	r7, [sp], #4
 1199 0016 7047     		bx	lr
 1200              	.L76:
 1201              		.align	2
ARM GAS  C:\Users\SCOTTC~1\AppData\Local\Temp\cckOy2jK.s 			page 35


 1202              	.L75:
 1203 0018 84C70040 		.word	1073792900
 1204              		.cfi_endproc
 1205              	.LFE15:
 1206              		.size	MultAcc_1_MACC_GetInterruptSource, .-MultAcc_1_MACC_GetInterruptSource
 1207              		.section	.text.MultAcc_1_MACC_ClearInterrupt,"ax",%progbits
 1208              		.align	2
 1209              		.global	MultAcc_1_MACC_ClearInterrupt
 1210              		.thumb
 1211              		.thumb_func
 1212              		.type	MultAcc_1_MACC_ClearInterrupt, %function
 1213              	MultAcc_1_MACC_ClearInterrupt:
 1214              	.LFB16:
 734:.\Generated_Source\PSoC5/MultAcc_1_MACC.c **** 
 735:.\Generated_Source\PSoC5/MultAcc_1_MACC.c **** 
 736:.\Generated_Source\PSoC5/MultAcc_1_MACC.c **** /*******************************************************************************
 737:.\Generated_Source\PSoC5/MultAcc_1_MACC.c **** * Function Name: MultAcc_1_MACC_ClearInterrupt
 738:.\Generated_Source\PSoC5/MultAcc_1_MACC.c **** ********************************************************************************
 739:.\Generated_Source\PSoC5/MultAcc_1_MACC.c **** *
 740:.\Generated_Source\PSoC5/MultAcc_1_MACC.c **** * Summary:
 741:.\Generated_Source\PSoC5/MultAcc_1_MACC.c **** *  This function clears the interrupt request.
 742:.\Generated_Source\PSoC5/MultAcc_1_MACC.c **** *
 743:.\Generated_Source\PSoC5/MultAcc_1_MACC.c **** * Parameters:
 744:.\Generated_Source\PSoC5/MultAcc_1_MACC.c **** *  interruptMask: Mask of interrupts to clear.
 745:.\Generated_Source\PSoC5/MultAcc_1_MACC.c **** *    Define                    Description
 746:.\Generated_Source\PSoC5/MultAcc_1_MACC.c **** *     MultAcc_1_MACC_HOLDA    Clear interrupt from Holding register A.
 747:.\Generated_Source\PSoC5/MultAcc_1_MACC.c **** *                               (Reading the Holding register A also clears this
 748:.\Generated_Source\PSoC5/MultAcc_1_MACC.c **** *                                bit);
 749:.\Generated_Source\PSoC5/MultAcc_1_MACC.c **** *     MultAcc_1_MACC_HOLDB    Clear interrupt from Holding register B.
 750:.\Generated_Source\PSoC5/MultAcc_1_MACC.c **** *                               (Reading the Holding register B also clears this
 751:.\Generated_Source\PSoC5/MultAcc_1_MACC.c **** *                                bit);
 752:.\Generated_Source\PSoC5/MultAcc_1_MACC.c **** *     MultAcc_1_MACC_SEMA0    Clear interrupt from semaphore register bit 0;
 753:.\Generated_Source\PSoC5/MultAcc_1_MACC.c **** *     MultAcc_1_MACC_SEMA1    Clear interrupt from semaphore register bit 1;
 754:.\Generated_Source\PSoC5/MultAcc_1_MACC.c **** *     MultAcc_1_MACC_SEMA2    Clear interrupt from semaphore register bit 2.
 755:.\Generated_Source\PSoC5/MultAcc_1_MACC.c **** *
 756:.\Generated_Source\PSoC5/MultAcc_1_MACC.c **** * Return:
 757:.\Generated_Source\PSoC5/MultAcc_1_MACC.c **** *  None.
 758:.\Generated_Source\PSoC5/MultAcc_1_MACC.c **** *
 759:.\Generated_Source\PSoC5/MultAcc_1_MACC.c **** * Note:
 760:.\Generated_Source\PSoC5/MultAcc_1_MACC.c **** *  Clearing semaphore interrupts also clears semaphore bits.
 761:.\Generated_Source\PSoC5/MultAcc_1_MACC.c **** *
 762:.\Generated_Source\PSoC5/MultAcc_1_MACC.c **** *******************************************************************************/
 763:.\Generated_Source\PSoC5/MultAcc_1_MACC.c **** void MultAcc_1_MACC_ClearInterrupt(uint8 interruptMask) 
 764:.\Generated_Source\PSoC5/MultAcc_1_MACC.c **** {
 1215              		.loc 1 764 0
 1216              		.cfi_startproc
 1217              		@ args = 0, pretend = 0, frame = 8
 1218              		@ frame_needed = 1, uses_anonymous_args = 0
 1219              		@ link register save eliminated.
 1220 0000 80B4     		push	{r7}
 1221              		.cfi_def_cfa_offset 4
 1222              		.cfi_offset 7, -4
 1223 0002 83B0     		sub	sp, sp, #12
 1224              		.cfi_def_cfa_offset 16
 1225 0004 00AF     		add	r7, sp, #0
 1226              		.cfi_def_cfa_register 7
 1227 0006 0346     		mov	r3, r0
ARM GAS  C:\Users\SCOTTC~1\AppData\Local\Temp\cckOy2jK.s 			page 36


 1228 0008 FB71     		strb	r3, [r7, #7]
 765:.\Generated_Source\PSoC5/MultAcc_1_MACC.c ****     MultAcc_1_MACC_SR_REG &= (uint8) (interruptMask << MultAcc_1_MACC_SR_EVENT_SHIFT);
 1229              		.loc 1 765 0
 1230 000a 074B     		ldr	r3, .L78
 1231 000c 064A     		ldr	r2, .L78
 1232 000e 1278     		ldrb	r2, [r2]
 1233 0010 D1B2     		uxtb	r1, r2
 1234 0012 FA79     		ldrb	r2, [r7, #7]
 1235 0014 D200     		lsls	r2, r2, #3
 1236 0016 D2B2     		uxtb	r2, r2
 1237 0018 0A40     		ands	r2, r2, r1
 1238 001a D2B2     		uxtb	r2, r2
 1239 001c 1A70     		strb	r2, [r3]
 766:.\Generated_Source\PSoC5/MultAcc_1_MACC.c **** }
 1240              		.loc 1 766 0
 1241 001e 0C37     		adds	r7, r7, #12
 1242 0020 BD46     		mov	sp, r7
 1243              		@ sp needed
 1244 0022 5DF8047B 		ldr	r7, [sp], #4
 1245 0026 7047     		bx	lr
 1246              	.L79:
 1247              		.align	2
 1248              	.L78:
 1249 0028 84C70040 		.word	1073792900
 1250              		.cfi_endproc
 1251              	.LFE16:
 1252              		.size	MultAcc_1_MACC_ClearInterrupt, .-MultAcc_1_MACC_ClearInterrupt
 1253              		.section	.text.MultAcc_1_MACC_SetDMAMode,"ax",%progbits
 1254              		.align	2
 1255              		.global	MultAcc_1_MACC_SetDMAMode
 1256              		.thumb
 1257              		.thumb_func
 1258              		.type	MultAcc_1_MACC_SetDMAMode, %function
 1259              	MultAcc_1_MACC_SetDMAMode:
 1260              	.LFB17:
 767:.\Generated_Source\PSoC5/MultAcc_1_MACC.c **** 
 768:.\Generated_Source\PSoC5/MultAcc_1_MACC.c **** 
 769:.\Generated_Source\PSoC5/MultAcc_1_MACC.c **** /*******************************************************************************
 770:.\Generated_Source\PSoC5/MultAcc_1_MACC.c **** * Function Name: MultAcc_1_MACC_SetDMAMode
 771:.\Generated_Source\PSoC5/MultAcc_1_MACC.c **** ********************************************************************************
 772:.\Generated_Source\PSoC5/MultAcc_1_MACC.c **** *
 773:.\Generated_Source\PSoC5/MultAcc_1_MACC.c **** * Summary:
 774:.\Generated_Source\PSoC5/MultAcc_1_MACC.c **** *  This function assigns the events that trigger a DMA request for the DFB.
 775:.\Generated_Source\PSoC5/MultAcc_1_MACC.c **** *  Two different DMA requests that can be triggered.
 776:.\Generated_Source\PSoC5/MultAcc_1_MACC.c **** *
 777:.\Generated_Source\PSoC5/MultAcc_1_MACC.c **** * Parameters:
 778:.\Generated_Source\PSoC5/MultAcc_1_MACC.c **** *  events: A set of 4 bits which configure what event, if any, triggers a DMA
 779:.\Generated_Source\PSoC5/MultAcc_1_MACC.c **** *          request for the DFB.
 780:.\Generated_Source\PSoC5/MultAcc_1_MACC.c **** *   DMA Request 1:
 781:.\Generated_Source\PSoC5/MultAcc_1_MACC.c **** *    Define                                 Description
 782:.\Generated_Source\PSoC5/MultAcc_1_MACC.c **** *    MultAcc_1_MACC_DMAREQ1_DISABLED       No request will be generated;
 783:.\Generated_Source\PSoC5/MultAcc_1_MACC.c **** *    MultAcc_1_MACC_DMAREQ1_HOLDA          Output value ready in the holding
 784:.\Generated_Source\PSoC5/MultAcc_1_MACC.c ****                                              register on channel A;
 785:.\Generated_Source\PSoC5/MultAcc_1_MACC.c **** *    MultAcc_1_MACC_DMAREQ1_SEM0           Semaphore 0;
 786:.\Generated_Source\PSoC5/MultAcc_1_MACC.c **** *    MultAcc_1_MACC_DMAREQ1_SEM1           Sempahore 1.
 787:.\Generated_Source\PSoC5/MultAcc_1_MACC.c **** *   DMA Request 2:
 788:.\Generated_Source\PSoC5/MultAcc_1_MACC.c **** *    Define                                 Description
ARM GAS  C:\Users\SCOTTC~1\AppData\Local\Temp\cckOy2jK.s 			page 37


 789:.\Generated_Source\PSoC5/MultAcc_1_MACC.c **** *    MultAcc_1_MACC_DMAREQ2_DISABLED       No request will be generated;
 790:.\Generated_Source\PSoC5/MultAcc_1_MACC.c **** *    MultAcc_1_MACC_DMAREQ2_HOLDB          Output value ready in the holding
 791:.\Generated_Source\PSoC5/MultAcc_1_MACC.c ****                                              register on channel B;
 792:.\Generated_Source\PSoC5/MultAcc_1_MACC.c **** *    MultAcc_1_MACC_DMAREQ2_SEM0           Semaphore 0;
 793:.\Generated_Source\PSoC5/MultAcc_1_MACC.c **** *    MultAcc_1_MACC_DMAREQ2_SEM1           Sempahore 1.
 794:.\Generated_Source\PSoC5/MultAcc_1_MACC.c **** *
 795:.\Generated_Source\PSoC5/MultAcc_1_MACC.c **** * Return:
 796:.\Generated_Source\PSoC5/MultAcc_1_MACC.c **** *  None.
 797:.\Generated_Source\PSoC5/MultAcc_1_MACC.c **** *
 798:.\Generated_Source\PSoC5/MultAcc_1_MACC.c **** * Note:
 799:.\Generated_Source\PSoC5/MultAcc_1_MACC.c **** *  Do not configure semaphore 0 and semaphore 1 for both a DMA request and for
 800:.\Generated_Source\PSoC5/MultAcc_1_MACC.c **** *  an interrupt event. This is because, after one clock cycle, the system
 801:.\Generated_Source\PSoC5/MultAcc_1_MACC.c **** *  automatically clears any semaphore that triggered a DMA request.
 802:.\Generated_Source\PSoC5/MultAcc_1_MACC.c **** *
 803:.\Generated_Source\PSoC5/MultAcc_1_MACC.c **** *******************************************************************************/
 804:.\Generated_Source\PSoC5/MultAcc_1_MACC.c **** void MultAcc_1_MACC_SetDMAMode(uint8 events) 
 805:.\Generated_Source\PSoC5/MultAcc_1_MACC.c **** {
 1261              		.loc 1 805 0
 1262              		.cfi_startproc
 1263              		@ args = 0, pretend = 0, frame = 8
 1264              		@ frame_needed = 1, uses_anonymous_args = 0
 1265              		@ link register save eliminated.
 1266 0000 80B4     		push	{r7}
 1267              		.cfi_def_cfa_offset 4
 1268              		.cfi_offset 7, -4
 1269 0002 83B0     		sub	sp, sp, #12
 1270              		.cfi_def_cfa_offset 16
 1271 0004 00AF     		add	r7, sp, #0
 1272              		.cfi_def_cfa_register 7
 1273 0006 0346     		mov	r3, r0
 1274 0008 FB71     		strb	r3, [r7, #7]
 806:.\Generated_Source\PSoC5/MultAcc_1_MACC.c ****     MultAcc_1_MACC_DMA_CTRL_REG = events & MultAcc_1_MACC_DMA_CTRL_MASK;
 1275              		.loc 1 806 0
 1276 000a 054B     		ldr	r3, .L81
 1277 000c FA79     		ldrb	r2, [r7, #7]
 1278 000e 02F00F02 		and	r2, r2, #15
 1279 0012 D2B2     		uxtb	r2, r2
 1280 0014 1A70     		strb	r2, [r3]
 807:.\Generated_Source\PSoC5/MultAcc_1_MACC.c **** }
 1281              		.loc 1 807 0
 1282 0016 0C37     		adds	r7, r7, #12
 1283 0018 BD46     		mov	sp, r7
 1284              		@ sp needed
 1285 001a 5DF8047B 		ldr	r7, [sp], #4
 1286 001e 7047     		bx	lr
 1287              	.L82:
 1288              		.align	2
 1289              	.L81:
 1290 0020 9CC70040 		.word	1073792924
 1291              		.cfi_endproc
 1292              	.LFE17:
 1293              		.size	MultAcc_1_MACC_SetDMAMode, .-MultAcc_1_MACC_SetDMAMode
 1294              		.section	.text.MultAcc_1_MACC_SetSemaphores,"ax",%progbits
 1295              		.align	2
 1296              		.global	MultAcc_1_MACC_SetSemaphores
 1297              		.thumb
 1298              		.thumb_func
ARM GAS  C:\Users\SCOTTC~1\AppData\Local\Temp\cckOy2jK.s 			page 38


 1299              		.type	MultAcc_1_MACC_SetSemaphores, %function
 1300              	MultAcc_1_MACC_SetSemaphores:
 1301              	.LFB18:
 808:.\Generated_Source\PSoC5/MultAcc_1_MACC.c **** 
 809:.\Generated_Source\PSoC5/MultAcc_1_MACC.c **** 
 810:.\Generated_Source\PSoC5/MultAcc_1_MACC.c **** /*******************************************************************************
 811:.\Generated_Source\PSoC5/MultAcc_1_MACC.c **** * Function Name: MultAcc_1_MACC_SetSemaphore
 812:.\Generated_Source\PSoC5/MultAcc_1_MACC.c **** ********************************************************************************
 813:.\Generated_Source\PSoC5/MultAcc_1_MACC.c **** *
 814:.\Generated_Source\PSoC5/MultAcc_1_MACC.c **** * Summary:
 815:.\Generated_Source\PSoC5/MultAcc_1_MACC.c **** *  This function sets semaphores specified with a 1.
 816:.\Generated_Source\PSoC5/MultAcc_1_MACC.c **** *
 817:.\Generated_Source\PSoC5/MultAcc_1_MACC.c **** * Parameters:
 818:.\Generated_Source\PSoC5/MultAcc_1_MACC.c **** *  mask: mask specifying the bits to set.
 819:.\Generated_Source\PSoC5/MultAcc_1_MACC.c **** *    Define                          Description
 820:.\Generated_Source\PSoC5/MultAcc_1_MACC.c **** *     MultAcc_1_MACC_SEMAPHORE0     Semaphore 0;
 821:.\Generated_Source\PSoC5/MultAcc_1_MACC.c **** *     MultAcc_1_MACC_SEMAPHORE1     Semaphore 1;
 822:.\Generated_Source\PSoC5/MultAcc_1_MACC.c **** *     MultAcc_1_MACC_SEMAPHORE2     Semaphore 2.
 823:.\Generated_Source\PSoC5/MultAcc_1_MACC.c **** *
 824:.\Generated_Source\PSoC5/MultAcc_1_MACC.c **** * Return:
 825:.\Generated_Source\PSoC5/MultAcc_1_MACC.c **** *  None.
 826:.\Generated_Source\PSoC5/MultAcc_1_MACC.c **** *
 827:.\Generated_Source\PSoC5/MultAcc_1_MACC.c **** *******************************************************************************/
 828:.\Generated_Source\PSoC5/MultAcc_1_MACC.c **** void MultAcc_1_MACC_SetSemaphores(uint8 mask) 
 829:.\Generated_Source\PSoC5/MultAcc_1_MACC.c **** {
 1302              		.loc 1 829 0
 1303              		.cfi_startproc
 1304              		@ args = 0, pretend = 0, frame = 8
 1305              		@ frame_needed = 1, uses_anonymous_args = 0
 1306              		@ link register save eliminated.
 1307 0000 80B4     		push	{r7}
 1308              		.cfi_def_cfa_offset 4
 1309              		.cfi_offset 7, -4
 1310 0002 83B0     		sub	sp, sp, #12
 1311              		.cfi_def_cfa_offset 16
 1312 0004 00AF     		add	r7, sp, #0
 1313              		.cfi_def_cfa_register 7
 1314 0006 0346     		mov	r3, r0
 1315 0008 FB71     		strb	r3, [r7, #7]
 830:.\Generated_Source\PSoC5/MultAcc_1_MACC.c ****     MultAcc_1_MACC_SEM_REG = (uint8) ((mask & MultAcc_1_MACC_SEM_MASK) << MultAcc_1_MACC_SEM_ENABLE
 1316              		.loc 1 830 0
 1317 000a 084B     		ldr	r3, .L84
 1318 000c FA79     		ldrb	r2, [r7, #7]
 1319 000e 02F00702 		and	r2, r2, #7
 1320 0012 D2B2     		uxtb	r2, r2
 1321 0014 1201     		lsls	r2, r2, #4
 1322 0016 D2B2     		uxtb	r2, r2
 1323 0018 42F00702 		orr	r2, r2, #7
 1324 001c D2B2     		uxtb	r2, r2
 1325 001e 1A70     		strb	r2, [r3]
 831:.\Generated_Source\PSoC5/MultAcc_1_MACC.c ****                                  MultAcc_1_MACC_SEM_MASK;
 832:.\Generated_Source\PSoC5/MultAcc_1_MACC.c **** }
 1326              		.loc 1 832 0
 1327 0020 0C37     		adds	r7, r7, #12
 1328 0022 BD46     		mov	sp, r7
 1329              		@ sp needed
 1330 0024 5DF8047B 		ldr	r7, [sp], #4
ARM GAS  C:\Users\SCOTTC~1\AppData\Local\Temp\cckOy2jK.s 			page 39


 1331 0028 7047     		bx	lr
 1332              	.L85:
 1333 002a 00BF     		.align	2
 1334              	.L84:
 1335 002c 90C70040 		.word	1073792912
 1336              		.cfi_endproc
 1337              	.LFE18:
 1338              		.size	MultAcc_1_MACC_SetSemaphores, .-MultAcc_1_MACC_SetSemaphores
 1339              		.section	.text.MultAcc_1_MACC_GetSemaphores,"ax",%progbits
 1340              		.align	2
 1341              		.global	MultAcc_1_MACC_GetSemaphores
 1342              		.thumb
 1343              		.thumb_func
 1344              		.type	MultAcc_1_MACC_GetSemaphores, %function
 1345              	MultAcc_1_MACC_GetSemaphores:
 1346              	.LFB19:
 833:.\Generated_Source\PSoC5/MultAcc_1_MACC.c **** 
 834:.\Generated_Source\PSoC5/MultAcc_1_MACC.c **** 
 835:.\Generated_Source\PSoC5/MultAcc_1_MACC.c **** /*******************************************************************************
 836:.\Generated_Source\PSoC5/MultAcc_1_MACC.c **** *  Function Name: MultAcc_1_MACC_GetSempahores
 837:.\Generated_Source\PSoC5/MultAcc_1_MACC.c **** ********************************************************************************
 838:.\Generated_Source\PSoC5/MultAcc_1_MACC.c **** *
 839:.\Generated_Source\PSoC5/MultAcc_1_MACC.c **** * Summary:
 840:.\Generated_Source\PSoC5/MultAcc_1_MACC.c **** *  This function checks the current status of the DFB semaphores and return that
 841:.\Generated_Source\PSoC5/MultAcc_1_MACC.c **** *  value.
 842:.\Generated_Source\PSoC5/MultAcc_1_MACC.c **** *
 843:.\Generated_Source\PSoC5/MultAcc_1_MACC.c **** * Parameters:
 844:.\Generated_Source\PSoC5/MultAcc_1_MACC.c **** *  None.
 845:.\Generated_Source\PSoC5/MultAcc_1_MACC.c **** *
 846:.\Generated_Source\PSoC5/MultAcc_1_MACC.c **** * Return:
 847:.\Generated_Source\PSoC5/MultAcc_1_MACC.c **** *  uint8 value between 0 and 7 where bit 0 represents semaphore 0 and so on.
 848:.\Generated_Source\PSoC5/MultAcc_1_MACC.c **** *    Define                          Description
 849:.\Generated_Source\PSoC5/MultAcc_1_MACC.c **** *     MultAcc_1_MACC_SEMAPHORE0     Semaphore 0;
 850:.\Generated_Source\PSoC5/MultAcc_1_MACC.c **** *     MultAcc_1_MACC_SEMAPHORE1     Semaphore 1;
 851:.\Generated_Source\PSoC5/MultAcc_1_MACC.c **** *     MultAcc_1_MACC_SEMAPHORE2     Semaphore 2.
 852:.\Generated_Source\PSoC5/MultAcc_1_MACC.c **** *
 853:.\Generated_Source\PSoC5/MultAcc_1_MACC.c **** *******************************************************************************/
 854:.\Generated_Source\PSoC5/MultAcc_1_MACC.c **** uint8 MultAcc_1_MACC_GetSemaphores(void) 
 855:.\Generated_Source\PSoC5/MultAcc_1_MACC.c **** {
 1347              		.loc 1 855 0
 1348              		.cfi_startproc
 1349              		@ args = 0, pretend = 0, frame = 0
 1350              		@ frame_needed = 1, uses_anonymous_args = 0
 1351              		@ link register save eliminated.
 1352 0000 80B4     		push	{r7}
 1353              		.cfi_def_cfa_offset 4
 1354              		.cfi_offset 7, -4
 1355 0002 00AF     		add	r7, sp, #0
 1356              		.cfi_def_cfa_register 7
 856:.\Generated_Source\PSoC5/MultAcc_1_MACC.c ****     /* Masked the valide bits in case the reserved bits in SEM_REG [4 and 7] get used for something
 857:.\Generated_Source\PSoC5/MultAcc_1_MACC.c ****     return (MultAcc_1_MACC_SEM_REG & MultAcc_1_MACC_SEM_MASK);
 1357              		.loc 1 857 0
 1358 0004 054B     		ldr	r3, .L88
 1359 0006 1B78     		ldrb	r3, [r3]
 1360 0008 DBB2     		uxtb	r3, r3
 1361 000a 03F00703 		and	r3, r3, #7
 1362 000e DBB2     		uxtb	r3, r3
ARM GAS  C:\Users\SCOTTC~1\AppData\Local\Temp\cckOy2jK.s 			page 40


 858:.\Generated_Source\PSoC5/MultAcc_1_MACC.c **** }
 1363              		.loc 1 858 0
 1364 0010 1846     		mov	r0, r3
 1365 0012 BD46     		mov	sp, r7
 1366              		@ sp needed
 1367 0014 5DF8047B 		ldr	r7, [sp], #4
 1368 0018 7047     		bx	lr
 1369              	.L89:
 1370 001a 00BF     		.align	2
 1371              	.L88:
 1372 001c 90C70040 		.word	1073792912
 1373              		.cfi_endproc
 1374              	.LFE19:
 1375              		.size	MultAcc_1_MACC_GetSemaphores, .-MultAcc_1_MACC_GetSemaphores
 1376              		.section	.text.MultAcc_1_MACC_ClearSemaphores,"ax",%progbits
 1377              		.align	2
 1378              		.global	MultAcc_1_MACC_ClearSemaphores
 1379              		.thumb
 1380              		.thumb_func
 1381              		.type	MultAcc_1_MACC_ClearSemaphores, %function
 1382              	MultAcc_1_MACC_ClearSemaphores:
 1383              	.LFB20:
 859:.\Generated_Source\PSoC5/MultAcc_1_MACC.c **** 
 860:.\Generated_Source\PSoC5/MultAcc_1_MACC.c **** 
 861:.\Generated_Source\PSoC5/MultAcc_1_MACC.c **** /*******************************************************************************
 862:.\Generated_Source\PSoC5/MultAcc_1_MACC.c **** *  Function Name: MultAcc_1_MACC_ClearSemaphore
 863:.\Generated_Source\PSoC5/MultAcc_1_MACC.c **** ********************************************************************************
 864:.\Generated_Source\PSoC5/MultAcc_1_MACC.c **** *
 865:.\Generated_Source\PSoC5/MultAcc_1_MACC.c **** * Summary:
 866:.\Generated_Source\PSoC5/MultAcc_1_MACC.c **** *  This function clears semaphore bits specified with a 1.
 867:.\Generated_Source\PSoC5/MultAcc_1_MACC.c **** *
 868:.\Generated_Source\PSoC5/MultAcc_1_MACC.c **** * Parameters:
 869:.\Generated_Source\PSoC5/MultAcc_1_MACC.c **** *  mask: mask specifying the bits to clear.
 870:.\Generated_Source\PSoC5/MultAcc_1_MACC.c **** *    Define                          Description
 871:.\Generated_Source\PSoC5/MultAcc_1_MACC.c **** *     MultAcc_1_MACC_SEMAPHORE0     Semaphore 0;
 872:.\Generated_Source\PSoC5/MultAcc_1_MACC.c **** *     MultAcc_1_MACC_SEMAPHORE1     Semaphore 1;
 873:.\Generated_Source\PSoC5/MultAcc_1_MACC.c **** *     MultAcc_1_MACC_SEMAPHORE2     Semaphore 2.
 874:.\Generated_Source\PSoC5/MultAcc_1_MACC.c **** *
 875:.\Generated_Source\PSoC5/MultAcc_1_MACC.c **** * Return:
 876:.\Generated_Source\PSoC5/MultAcc_1_MACC.c **** *  None.
 877:.\Generated_Source\PSoC5/MultAcc_1_MACC.c **** *
 878:.\Generated_Source\PSoC5/MultAcc_1_MACC.c **** *******************************************************************************/
 879:.\Generated_Source\PSoC5/MultAcc_1_MACC.c **** void MultAcc_1_MACC_ClearSemaphores(uint8 mask) 
 880:.\Generated_Source\PSoC5/MultAcc_1_MACC.c **** {
 1384              		.loc 1 880 0
 1385              		.cfi_startproc
 1386              		@ args = 0, pretend = 0, frame = 8
 1387              		@ frame_needed = 1, uses_anonymous_args = 0
 1388              		@ link register save eliminated.
 1389 0000 80B4     		push	{r7}
 1390              		.cfi_def_cfa_offset 4
 1391              		.cfi_offset 7, -4
 1392 0002 83B0     		sub	sp, sp, #12
 1393              		.cfi_def_cfa_offset 16
 1394 0004 00AF     		add	r7, sp, #0
 1395              		.cfi_def_cfa_register 7
 1396 0006 0346     		mov	r3, r0
ARM GAS  C:\Users\SCOTTC~1\AppData\Local\Temp\cckOy2jK.s 			page 41


 1397 0008 FB71     		strb	r3, [r7, #7]
 881:.\Generated_Source\PSoC5/MultAcc_1_MACC.c ****     /* Writes the semaphore register: Clears the semaphores masked */
 882:.\Generated_Source\PSoC5/MultAcc_1_MACC.c ****     MultAcc_1_MACC_SEM_REG = (uint8) ((mask & MultAcc_1_MACC_SEM_MASK) << MultAcc_1_MACC_SEM_ENABLE
 1398              		.loc 1 882 0
 1399 000a 064B     		ldr	r3, .L91
 1400 000c FA79     		ldrb	r2, [r7, #7]
 1401 000e 02F00702 		and	r2, r2, #7
 1402 0012 D2B2     		uxtb	r2, r2
 1403 0014 1201     		lsls	r2, r2, #4
 1404 0016 D2B2     		uxtb	r2, r2
 1405 0018 1A70     		strb	r2, [r3]
 883:.\Generated_Source\PSoC5/MultAcc_1_MACC.c **** }
 1406              		.loc 1 883 0
 1407 001a 0C37     		adds	r7, r7, #12
 1408 001c BD46     		mov	sp, r7
 1409              		@ sp needed
 1410 001e 5DF8047B 		ldr	r7, [sp], #4
 1411 0022 7047     		bx	lr
 1412              	.L92:
 1413              		.align	2
 1414              	.L91:
 1415 0024 90C70040 		.word	1073792912
 1416              		.cfi_endproc
 1417              	.LFE20:
 1418              		.size	MultAcc_1_MACC_ClearSemaphores, .-MultAcc_1_MACC_ClearSemaphores
 1419              		.section	.text.MultAcc_1_MACC_SetOutput1Source,"ax",%progbits
 1420              		.align	2
 1421              		.global	MultAcc_1_MACC_SetOutput1Source
 1422              		.thumb
 1423              		.thumb_func
 1424              		.type	MultAcc_1_MACC_SetOutput1Source, %function
 1425              	MultAcc_1_MACC_SetOutput1Source:
 1426              	.LFB21:
 884:.\Generated_Source\PSoC5/MultAcc_1_MACC.c **** 
 885:.\Generated_Source\PSoC5/MultAcc_1_MACC.c **** 
 886:.\Generated_Source\PSoC5/MultAcc_1_MACC.c **** /*******************************************************************************
 887:.\Generated_Source\PSoC5/MultAcc_1_MACC.c **** * Function Name: MultAcc_1_MACC_SetOutput1Source
 888:.\Generated_Source\PSoC5/MultAcc_1_MACC.c **** ********************************************************************************
 889:.\Generated_Source\PSoC5/MultAcc_1_MACC.c **** *
 890:.\Generated_Source\PSoC5/MultAcc_1_MACC.c **** * Summary:
 891:.\Generated_Source\PSoC5/MultAcc_1_MACC.c **** *  This function allows you to choose which internal signal will be mapped to
 892:.\Generated_Source\PSoC5/MultAcc_1_MACC.c **** *  the DSI output 1.
 893:.\Generated_Source\PSoC5/MultAcc_1_MACC.c **** *
 894:.\Generated_Source\PSoC5/MultAcc_1_MACC.c **** * Parameters:
 895:.\Generated_Source\PSoC5/MultAcc_1_MACC.c **** *  source: internal signal which is mapped to the output global signal 1.
 896:.\Generated_Source\PSoC5/MultAcc_1_MACC.c **** *   Signal                      Description
 897:.\Generated_Source\PSoC5/MultAcc_1_MACC.c **** *    MultAcc_1_MACC_DFB_RUN    DFB RUN Bit. This is the same bit as the RUN
 898:.\Generated_Source\PSoC5/MultAcc_1_MACC.c **** *                                bit in the DFB_CR register.
 899:.\Generated_Source\PSoC5/MultAcc_1_MACC.c **** *    MultAcc_1_MACC_SEM0       Semaphore Bit 0.
 900:.\Generated_Source\PSoC5/MultAcc_1_MACC.c **** *    MultAcc_1_MACC_SEM1       Semaphore Bit 1.
 901:.\Generated_Source\PSoC5/MultAcc_1_MACC.c **** *    MultAcc_1_MACC_DFB_INTR   DFB Interrupt. This is the same signal as the
 902:.\Generated_Source\PSoC5/MultAcc_1_MACC.c **** *                                primary DFB Interrupt output signal.
 903:.\Generated_Source\PSoC5/MultAcc_1_MACC.c **** *
 904:.\Generated_Source\PSoC5/MultAcc_1_MACC.c **** * Return:
 905:.\Generated_Source\PSoC5/MultAcc_1_MACC.c **** *  None.
 906:.\Generated_Source\PSoC5/MultAcc_1_MACC.c **** *
 907:.\Generated_Source\PSoC5/MultAcc_1_MACC.c **** *******************************************************************************/
ARM GAS  C:\Users\SCOTTC~1\AppData\Local\Temp\cckOy2jK.s 			page 42


 908:.\Generated_Source\PSoC5/MultAcc_1_MACC.c **** void MultAcc_1_MACC_SetOutput1Source(uint8 source) 
 909:.\Generated_Source\PSoC5/MultAcc_1_MACC.c **** {
 1427              		.loc 1 909 0
 1428              		.cfi_startproc
 1429              		@ args = 0, pretend = 0, frame = 8
 1430              		@ frame_needed = 1, uses_anonymous_args = 0
 1431              		@ link register save eliminated.
 1432 0000 80B4     		push	{r7}
 1433              		.cfi_def_cfa_offset 4
 1434              		.cfi_offset 7, -4
 1435 0002 83B0     		sub	sp, sp, #12
 1436              		.cfi_def_cfa_offset 16
 1437 0004 00AF     		add	r7, sp, #0
 1438              		.cfi_def_cfa_register 7
 1439 0006 0346     		mov	r3, r0
 1440 0008 FB71     		strb	r3, [r7, #7]
 910:.\Generated_Source\PSoC5/MultAcc_1_MACC.c ****     MultAcc_1_MACC_DSI_CTRL_REG = (MultAcc_1_MACC_DSI_CTRL_REG & MultAcc_1_MACC_DFB_GBL1_OUT_MASK) 
 1441              		.loc 1 910 0
 1442 000a 084B     		ldr	r3, .L94
 1443 000c 074A     		ldr	r2, .L94
 1444 000e 1278     		ldrb	r2, [r2]
 1445 0010 D2B2     		uxtb	r2, r2
 1446 0012 22F00302 		bic	r2, r2, #3
 1447 0016 D1B2     		uxtb	r1, r2
 1448 0018 FA79     		ldrb	r2, [r7, #7]
 1449 001a 0A43     		orrs	r2, r2, r1
 1450 001c D2B2     		uxtb	r2, r2
 1451 001e 1A70     		strb	r2, [r3]
 911:.\Generated_Source\PSoC5/MultAcc_1_MACC.c **** }
 1452              		.loc 1 911 0
 1453 0020 0C37     		adds	r7, r7, #12
 1454 0022 BD46     		mov	sp, r7
 1455              		@ sp needed
 1456 0024 5DF8047B 		ldr	r7, [sp], #4
 1457 0028 7047     		bx	lr
 1458              	.L95:
 1459 002a 00BF     		.align	2
 1460              	.L94:
 1461 002c 94C70040 		.word	1073792916
 1462              		.cfi_endproc
 1463              	.LFE21:
 1464              		.size	MultAcc_1_MACC_SetOutput1Source, .-MultAcc_1_MACC_SetOutput1Source
 1465              		.section	.text.MultAcc_1_MACC_SetOutput2Source,"ax",%progbits
 1466              		.align	2
 1467              		.global	MultAcc_1_MACC_SetOutput2Source
 1468              		.thumb
 1469              		.thumb_func
 1470              		.type	MultAcc_1_MACC_SetOutput2Source, %function
 1471              	MultAcc_1_MACC_SetOutput2Source:
 1472              	.LFB22:
 912:.\Generated_Source\PSoC5/MultAcc_1_MACC.c **** 
 913:.\Generated_Source\PSoC5/MultAcc_1_MACC.c **** 
 914:.\Generated_Source\PSoC5/MultAcc_1_MACC.c **** /*******************************************************************************
 915:.\Generated_Source\PSoC5/MultAcc_1_MACC.c **** * Function Name: MultAcc_1_MACC_SetOutput2Source
 916:.\Generated_Source\PSoC5/MultAcc_1_MACC.c **** ********************************************************************************
 917:.\Generated_Source\PSoC5/MultAcc_1_MACC.c **** *
 918:.\Generated_Source\PSoC5/MultAcc_1_MACC.c **** * Summary:
ARM GAS  C:\Users\SCOTTC~1\AppData\Local\Temp\cckOy2jK.s 			page 43


 919:.\Generated_Source\PSoC5/MultAcc_1_MACC.c **** *  This function allows you to choose which internal signal will be mapped to
 920:.\Generated_Source\PSoC5/MultAcc_1_MACC.c **** *  the DSI output 2.
 921:.\Generated_Source\PSoC5/MultAcc_1_MACC.c **** *
 922:.\Generated_Source\PSoC5/MultAcc_1_MACC.c **** * Parameters:
 923:.\Generated_Source\PSoC5/MultAcc_1_MACC.c **** *  source: internal signal which is mapped to the output global signal 2.
 924:.\Generated_Source\PSoC5/MultAcc_1_MACC.c **** *   Signal                      Description
 925:.\Generated_Source\PSoC5/MultAcc_1_MACC.c **** *    MultAcc_1_MACC_SEM2       Semaphore Bit 2.
 926:.\Generated_Source\PSoC5/MultAcc_1_MACC.c **** *    MultAcc_1_MACC_DPSIGN     Datapath Sign. This signal asserts anytime the
 927:.\Generated_Source\PSoC5/MultAcc_1_MACC.c **** *                                 output of the ALU in the Datapath unit is
 928:.\Generated_Source\PSoC5/MultAcc_1_MACC.c **** *                                 negative. It will remain high for each cycle
 929:.\Generated_Source\PSoC5/MultAcc_1_MACC.c **** *                                 this condition is true.
 930:.\Generated_Source\PSoC5/MultAcc_1_MACC.c **** *    MultAcc_1_MACC_DPTHRESH   Datapath Threshold Crossed. This signal
 931:.\Generated_Source\PSoC5/MultAcc_1_MACC.c **** *                                 asserts anytime the threshold of 0 is crossed
 932:.\Generated_Source\PSoC5/MultAcc_1_MACC.c **** *                                 in the ALU when one of the following
 933:.\Generated_Source\PSoC5/MultAcc_1_MACC.c **** *                                 instructions is executing: TDECA, TSUBA,
 934:.\Generated_Source\PSoC5/MultAcc_1_MACC.c **** *                                 TSUBB, TADDABSA, TADDABSB. It will remain high
 935:.\Generated_Source\PSoC5/MultAcc_1_MACC.c **** *                                 for each cycle this condition is true.
 936:.\Generated_Source\PSoC5/MultAcc_1_MACC.c **** *    MultAcc_1_MACC_DPEQ       Datapath ALU=0. This signal asserts high when
 937:.\Generated_Source\PSoC5/MultAcc_1_MACC.c **** *                                 the output of the ALU in the Datapath unit
 938:.\Generated_Source\PSoC5/MultAcc_1_MACC.c **** *                                 equals 0 and one of the following ALU commands
 939:.\Generated_Source\PSoC5/MultAcc_1_MACC.c **** *                                 is executing: TDECA, TSUBA, TSUBB, TADDABSA,
 940:.\Generated_Source\PSoC5/MultAcc_1_MACC.c **** *                                 TADDABSB. It will remain high for each cycle
 941:.\Generated_Source\PSoC5/MultAcc_1_MACC.c **** *                                 this condition is true.
 942:.\Generated_Source\PSoC5/MultAcc_1_MACC.c **** *
 943:.\Generated_Source\PSoC5/MultAcc_1_MACC.c **** * Return:
 944:.\Generated_Source\PSoC5/MultAcc_1_MACC.c **** *  None.
 945:.\Generated_Source\PSoC5/MultAcc_1_MACC.c **** *
 946:.\Generated_Source\PSoC5/MultAcc_1_MACC.c **** *******************************************************************************/
 947:.\Generated_Source\PSoC5/MultAcc_1_MACC.c **** void MultAcc_1_MACC_SetOutput2Source(uint8 source) 
 948:.\Generated_Source\PSoC5/MultAcc_1_MACC.c **** {
 1473              		.loc 1 948 0
 1474              		.cfi_startproc
 1475              		@ args = 0, pretend = 0, frame = 8
 1476              		@ frame_needed = 1, uses_anonymous_args = 0
 1477              		@ link register save eliminated.
 1478 0000 80B4     		push	{r7}
 1479              		.cfi_def_cfa_offset 4
 1480              		.cfi_offset 7, -4
 1481 0002 83B0     		sub	sp, sp, #12
 1482              		.cfi_def_cfa_offset 16
 1483 0004 00AF     		add	r7, sp, #0
 1484              		.cfi_def_cfa_register 7
 1485 0006 0346     		mov	r3, r0
 1486 0008 FB71     		strb	r3, [r7, #7]
 949:.\Generated_Source\PSoC5/MultAcc_1_MACC.c ****     MultAcc_1_MACC_DSI_CTRL_REG = (MultAcc_1_MACC_DSI_CTRL_REG & MultAcc_1_MACC_DFB_GBL2_OUT_MASK) 
 1487              		.loc 1 949 0
 1488 000a 084B     		ldr	r3, .L97
 1489 000c 074A     		ldr	r2, .L97
 1490 000e 1278     		ldrb	r2, [r2]
 1491 0010 D2B2     		uxtb	r2, r2
 1492 0012 22F00C02 		bic	r2, r2, #12
 1493 0016 D1B2     		uxtb	r1, r2
 1494 0018 FA79     		ldrb	r2, [r7, #7]
 1495 001a 0A43     		orrs	r2, r2, r1
 1496 001c D2B2     		uxtb	r2, r2
 1497 001e 1A70     		strb	r2, [r3]
 950:.\Generated_Source\PSoC5/MultAcc_1_MACC.c **** }
ARM GAS  C:\Users\SCOTTC~1\AppData\Local\Temp\cckOy2jK.s 			page 44


 1498              		.loc 1 950 0
 1499 0020 0C37     		adds	r7, r7, #12
 1500 0022 BD46     		mov	sp, r7
 1501              		@ sp needed
 1502 0024 5DF8047B 		ldr	r7, [sp], #4
 1503 0028 7047     		bx	lr
 1504              	.L98:
 1505 002a 00BF     		.align	2
 1506              	.L97:
 1507 002c 94C70040 		.word	1073792916
 1508              		.cfi_endproc
 1509              	.LFE22:
 1510              		.size	MultAcc_1_MACC_SetOutput2Source, .-MultAcc_1_MACC_SetOutput2Source
 1511              		.text
 1512              	.Letext0:
 1513              		.file 2 ".\\Generated_Source\\PSoC5\\cytypes.h"
 1514              		.file 3 ".\\Generated_Source\\PSoC5\\MultAcc_1_MACC.h"