ARM GAS  C:\Users\SCOTTC~1\AppData\Local\Temp\ccpC76d0.s 			page 1


   1              		.syntax unified
   2              		.cpu cortex-m3
   3              		.fpu softvfp
   4              		.eabi_attribute 20, 1
   5              		.eabi_attribute 21, 1
   6              		.eabi_attribute 23, 3
   7              		.eabi_attribute 24, 1
   8              		.eabi_attribute 25, 1
   9              		.eabi_attribute 26, 1
  10              		.eabi_attribute 30, 6
  11              		.eabi_attribute 34, 1
  12              		.eabi_attribute 18, 4
  13              		.thumb
  14              		.file	"MultAcc_1_MACC_PM.c"
  15              		.text
  16              	.Ltext0:
  17              		.cfi_sections	.debug_frame
  18              		.bss
  19              		.align	2
  20              	MultAcc_1_MACC_backup:
  21 0000 00000000 		.space	8
  21      00000000 
  22              		.section	.text.MultAcc_1_MACC_SaveConfig,"ax",%progbits
  23              		.align	2
  24              		.global	MultAcc_1_MACC_SaveConfig
  25              		.thumb
  26              		.thumb_func
  27              		.type	MultAcc_1_MACC_SaveConfig, %function
  28              	MultAcc_1_MACC_SaveConfig:
  29              	.LFB0:
  30              		.file 1 ".\\Generated_Source\\PSoC5\\MultAcc_1_MACC_PM.c"
   1:.\Generated_Source\PSoC5/MultAcc_1_MACC_PM.c **** /*******************************************************************************
   2:.\Generated_Source\PSoC5/MultAcc_1_MACC_PM.c **** * File Name: MultAcc_1_MACC_PM.c
   3:.\Generated_Source\PSoC5/MultAcc_1_MACC_PM.c **** * Version 1.30
   4:.\Generated_Source\PSoC5/MultAcc_1_MACC_PM.c **** *
   5:.\Generated_Source\PSoC5/MultAcc_1_MACC_PM.c **** * Description:
   6:.\Generated_Source\PSoC5/MultAcc_1_MACC_PM.c **** *  This file contains the setup, control and status commands to support
   7:.\Generated_Source\PSoC5/MultAcc_1_MACC_PM.c **** *  component operations in low power mode.
   8:.\Generated_Source\PSoC5/MultAcc_1_MACC_PM.c **** *
   9:.\Generated_Source\PSoC5/MultAcc_1_MACC_PM.c **** * Note:
  10:.\Generated_Source\PSoC5/MultAcc_1_MACC_PM.c **** *
  11:.\Generated_Source\PSoC5/MultAcc_1_MACC_PM.c **** ********************************************************************************
  12:.\Generated_Source\PSoC5/MultAcc_1_MACC_PM.c **** * Copyright 2011-2013, Cypress Semiconductor Corporation.  All rights reserved.
  13:.\Generated_Source\PSoC5/MultAcc_1_MACC_PM.c **** * You may use this file only in accordance with the license, terms, conditions,
  14:.\Generated_Source\PSoC5/MultAcc_1_MACC_PM.c **** * disclaimers, and limitations in the end user license agreement accompanying
  15:.\Generated_Source\PSoC5/MultAcc_1_MACC_PM.c **** * the software package with which this file was provided.
  16:.\Generated_Source\PSoC5/MultAcc_1_MACC_PM.c **** *******************************************************************************/
  17:.\Generated_Source\PSoC5/MultAcc_1_MACC_PM.c **** 
  18:.\Generated_Source\PSoC5/MultAcc_1_MACC_PM.c **** #include "MultAcc_1_MACC.h"
  19:.\Generated_Source\PSoC5/MultAcc_1_MACC_PM.c **** 
  20:.\Generated_Source\PSoC5/MultAcc_1_MACC_PM.c **** static MultAcc_1_MACC_BACKUP_STRUCT MultAcc_1_MACC_backup = { 0u };
  21:.\Generated_Source\PSoC5/MultAcc_1_MACC_PM.c **** 
  22:.\Generated_Source\PSoC5/MultAcc_1_MACC_PM.c **** 
  23:.\Generated_Source\PSoC5/MultAcc_1_MACC_PM.c **** /*******************************************************************************
  24:.\Generated_Source\PSoC5/MultAcc_1_MACC_PM.c **** * Function Name: MultAcc_1_MACC_SaveConfig
  25:.\Generated_Source\PSoC5/MultAcc_1_MACC_PM.c **** ********************************************************************************
  26:.\Generated_Source\PSoC5/MultAcc_1_MACC_PM.c **** *
ARM GAS  C:\Users\SCOTTC~1\AppData\Local\Temp\ccpC76d0.s 			page 2


  27:.\Generated_Source\PSoC5/MultAcc_1_MACC_PM.c **** * Summary:
  28:.\Generated_Source\PSoC5/MultAcc_1_MACC_PM.c **** *  Saves the user configuration of the DFB non-retention registers. This routine
  29:.\Generated_Source\PSoC5/MultAcc_1_MACC_PM.c **** *  is called by DFB_Sleep() to save the component configuration before entering
  30:.\Generated_Source\PSoC5/MultAcc_1_MACC_PM.c **** *  sleep.
  31:.\Generated_Source\PSoC5/MultAcc_1_MACC_PM.c **** *
  32:.\Generated_Source\PSoC5/MultAcc_1_MACC_PM.c **** * Parameters:
  33:.\Generated_Source\PSoC5/MultAcc_1_MACC_PM.c **** *  None.
  34:.\Generated_Source\PSoC5/MultAcc_1_MACC_PM.c **** *
  35:.\Generated_Source\PSoC5/MultAcc_1_MACC_PM.c **** * Return:
  36:.\Generated_Source\PSoC5/MultAcc_1_MACC_PM.c **** *  None.
  37:.\Generated_Source\PSoC5/MultAcc_1_MACC_PM.c **** *
  38:.\Generated_Source\PSoC5/MultAcc_1_MACC_PM.c **** *******************************************************************************/
  39:.\Generated_Source\PSoC5/MultAcc_1_MACC_PM.c **** void MultAcc_1_MACC_SaveConfig(void) 
  40:.\Generated_Source\PSoC5/MultAcc_1_MACC_PM.c **** {
  31              		.loc 1 40 0
  32              		.cfi_startproc
  33              		@ args = 0, pretend = 0, frame = 8
  34              		@ frame_needed = 1, uses_anonymous_args = 0
  35              		@ link register save eliminated.
  36 0000 80B4     		push	{r7}
  37              		.cfi_def_cfa_offset 4
  38              		.cfi_offset 7, -4
  39 0002 83B0     		sub	sp, sp, #12
  40              		.cfi_def_cfa_offset 16
  41 0004 00AF     		add	r7, sp, #0
  42              		.cfi_def_cfa_register 7
  41:.\Generated_Source\PSoC5/MultAcc_1_MACC_PM.c ****     uint8 count;
  42:.\Generated_Source\PSoC5/MultAcc_1_MACC_PM.c ****     uint8 i = 0u;
  43              		.loc 1 42 0
  44 0006 0023     		movs	r3, #0
  45 0008 BB71     		strb	r3, [r7, #6]
  43:.\Generated_Source\PSoC5/MultAcc_1_MACC_PM.c **** 	
  44:.\Generated_Source\PSoC5/MultAcc_1_MACC_PM.c ****     MultAcc_1_MACC_backup.cr = MultAcc_1_MACC_CR_REG;
  46              		.loc 1 44 0
  47 000a 194B     		ldr	r3, .L4
  48 000c 1B78     		ldrb	r3, [r3]
  49 000e DAB2     		uxtb	r2, r3
  50 0010 184B     		ldr	r3, .L4+4
  51 0012 5A70     		strb	r2, [r3, #1]
  45:.\Generated_Source\PSoC5/MultAcc_1_MACC_PM.c ****     MultAcc_1_MACC_backup.sr = MultAcc_1_MACC_SR_REG;
  52              		.loc 1 45 0
  53 0014 184B     		ldr	r3, .L4+8
  54 0016 1B78     		ldrb	r3, [r3]
  55 0018 DAB2     		uxtb	r2, r3
  56 001a 164B     		ldr	r3, .L4+4
  57 001c 9A70     		strb	r2, [r3, #2]
  46:.\Generated_Source\PSoC5/MultAcc_1_MACC_PM.c ****     MultAcc_1_MACC_backup.sem = MultAcc_1_MACC_SEM_REG;
  58              		.loc 1 46 0
  59 001e 174B     		ldr	r3, .L4+12
  60 0020 1B78     		ldrb	r3, [r3]
  61 0022 DAB2     		uxtb	r2, r3
  62 0024 134B     		ldr	r3, .L4+4
  63 0026 DA70     		strb	r2, [r3, #3]
  47:.\Generated_Source\PSoC5/MultAcc_1_MACC_PM.c **** 	
  48:.\Generated_Source\PSoC5/MultAcc_1_MACC_PM.c ****     /* Put DFB RAM on the bus */
  49:.\Generated_Source\PSoC5/MultAcc_1_MACC_PM.c ****     MultAcc_1_MACC_RAM_DIR_REG = MultAcc_1_MACC_RAM_DIR_BUS;
  64              		.loc 1 49 0
ARM GAS  C:\Users\SCOTTC~1\AppData\Local\Temp\ccpC76d0.s 			page 3


  65 0028 154B     		ldr	r3, .L4+16
  66 002a 3F22     		movs	r2, #63
  67 002c 1A70     		strb	r2, [r3]
  50:.\Generated_Source\PSoC5/MultAcc_1_MACC_PM.c **** 
  51:.\Generated_Source\PSoC5/MultAcc_1_MACC_PM.c ****     /* ACU RAM */
  52:.\Generated_Source\PSoC5/MultAcc_1_MACC_PM.c ****     count = MultAcc_1_MACC_ACU_RAM_SIZE_CUR;
  68              		.loc 1 52 0
  69 002e 0123     		movs	r3, #1
  70 0030 FB71     		strb	r3, [r7, #7]
  53:.\Generated_Source\PSoC5/MultAcc_1_MACC_PM.c ****     while (count > 0u)
  71              		.loc 1 53 0
  72 0032 11E0     		b	.L2
  73              	.L3:
  54:.\Generated_Source\PSoC5/MultAcc_1_MACC_PM.c ****     {
  55:.\Generated_Source\PSoC5/MultAcc_1_MACC_PM.c ****         MultAcc_1_MACC_backup.acu[i] = CY_GET_REG32(& MultAcc_1_MACC_ACU_RAM_PTR[i]);
  74              		.loc 1 55 0
  75 0034 B879     		ldrb	r0, [r7, #6]	@ zero_extendqisi2
  76 0036 BB79     		ldrb	r3, [r7, #6]	@ zero_extendqisi2
  77 0038 9B00     		lsls	r3, r3, #2
  78 003a 03F18043 		add	r3, r3, #1073741824
  79 003e 03F54743 		add	r3, r3, #50944
  80 0042 1A68     		ldr	r2, [r3]
  81 0044 0B49     		ldr	r1, .L4+4
  82 0046 8300     		lsls	r3, r0, #2
  83 0048 0B44     		add	r3, r3, r1
  84 004a 5A60     		str	r2, [r3, #4]
  56:.\Generated_Source\PSoC5/MultAcc_1_MACC_PM.c ****         count--;
  85              		.loc 1 56 0
  86 004c FB79     		ldrb	r3, [r7, #7]	@ zero_extendqisi2
  87 004e 013B     		subs	r3, r3, #1
  88 0050 FB71     		strb	r3, [r7, #7]
  57:.\Generated_Source\PSoC5/MultAcc_1_MACC_PM.c ****         i++;
  89              		.loc 1 57 0
  90 0052 BB79     		ldrb	r3, [r7, #6]	@ zero_extendqisi2
  91 0054 0133     		adds	r3, r3, #1
  92 0056 BB71     		strb	r3, [r7, #6]
  93              	.L2:
  53:.\Generated_Source\PSoC5/MultAcc_1_MACC_PM.c ****     while (count > 0u)
  94              		.loc 1 53 0 discriminator 1
  95 0058 FB79     		ldrb	r3, [r7, #7]	@ zero_extendqisi2
  96 005a 002B     		cmp	r3, #0
  97 005c EAD1     		bne	.L3
  58:.\Generated_Source\PSoC5/MultAcc_1_MACC_PM.c ****     }
  59:.\Generated_Source\PSoC5/MultAcc_1_MACC_PM.c **** 	
  60:.\Generated_Source\PSoC5/MultAcc_1_MACC_PM.c ****     /* Take DFB RAM off the bus */
  61:.\Generated_Source\PSoC5/MultAcc_1_MACC_PM.c ****     MultAcc_1_MACC_RAM_DIR_REG = MultAcc_1_MACC_RAM_DIR_DFB;
  98              		.loc 1 61 0
  99 005e 084B     		ldr	r3, .L4+16
 100 0060 0022     		movs	r2, #0
 101 0062 1A70     		strb	r2, [r3]
  62:.\Generated_Source\PSoC5/MultAcc_1_MACC_PM.c **** }
 102              		.loc 1 62 0
 103 0064 0C37     		adds	r7, r7, #12
 104 0066 BD46     		mov	sp, r7
 105              		@ sp needed
 106 0068 5DF8047B 		ldr	r7, [sp], #4
 107 006c 7047     		bx	lr
ARM GAS  C:\Users\SCOTTC~1\AppData\Local\Temp\ccpC76d0.s 			page 4


 108              	.L5:
 109 006e 00BF     		.align	2
 110              	.L4:
 111 0070 80C70040 		.word	1073792896
 112 0074 00000000 		.word	MultAcc_1_MACC_backup
 113 0078 84C70040 		.word	1073792900
 114 007c 90C70040 		.word	1073792912
 115 0080 8CC70040 		.word	1073792908
 116              		.cfi_endproc
 117              	.LFE0:
 118              		.size	MultAcc_1_MACC_SaveConfig, .-MultAcc_1_MACC_SaveConfig
 119              		.section	.text.MultAcc_1_MACC_RestoreConfig,"ax",%progbits
 120              		.align	2
 121              		.global	MultAcc_1_MACC_RestoreConfig
 122              		.thumb
 123              		.thumb_func
 124              		.type	MultAcc_1_MACC_RestoreConfig, %function
 125              	MultAcc_1_MACC_RestoreConfig:
 126              	.LFB1:
  63:.\Generated_Source\PSoC5/MultAcc_1_MACC_PM.c **** 
  64:.\Generated_Source\PSoC5/MultAcc_1_MACC_PM.c **** 
  65:.\Generated_Source\PSoC5/MultAcc_1_MACC_PM.c **** /*******************************************************************************
  66:.\Generated_Source\PSoC5/MultAcc_1_MACC_PM.c **** * Function Name: MultAcc_1_MACC_RestoreConfig
  67:.\Generated_Source\PSoC5/MultAcc_1_MACC_PM.c **** ********************************************************************************
  68:.\Generated_Source\PSoC5/MultAcc_1_MACC_PM.c **** *
  69:.\Generated_Source\PSoC5/MultAcc_1_MACC_PM.c **** * Summary:
  70:.\Generated_Source\PSoC5/MultAcc_1_MACC_PM.c **** *  Restores the user configuration of the DFB non-retention registers. This
  71:.\Generated_Source\PSoC5/MultAcc_1_MACC_PM.c **** *  routine is called by DFB_Wakeup() to restore the component configuration when
  72:.\Generated_Source\PSoC5/MultAcc_1_MACC_PM.c **** *  exiting sleep.
  73:.\Generated_Source\PSoC5/MultAcc_1_MACC_PM.c **** *
  74:.\Generated_Source\PSoC5/MultAcc_1_MACC_PM.c **** * Parameters:
  75:.\Generated_Source\PSoC5/MultAcc_1_MACC_PM.c **** *  None.
  76:.\Generated_Source\PSoC5/MultAcc_1_MACC_PM.c **** *
  77:.\Generated_Source\PSoC5/MultAcc_1_MACC_PM.c **** * Return:
  78:.\Generated_Source\PSoC5/MultAcc_1_MACC_PM.c **** *  None.
  79:.\Generated_Source\PSoC5/MultAcc_1_MACC_PM.c **** *
  80:.\Generated_Source\PSoC5/MultAcc_1_MACC_PM.c **** *******************************************************************************/
  81:.\Generated_Source\PSoC5/MultAcc_1_MACC_PM.c **** void MultAcc_1_MACC_RestoreConfig(void) 
  82:.\Generated_Source\PSoC5/MultAcc_1_MACC_PM.c **** {
 127              		.loc 1 82 0
 128              		.cfi_startproc
 129              		@ args = 0, pretend = 0, frame = 8
 130              		@ frame_needed = 1, uses_anonymous_args = 0
 131              		@ link register save eliminated.
 132 0000 80B4     		push	{r7}
 133              		.cfi_def_cfa_offset 4
 134              		.cfi_offset 7, -4
 135 0002 83B0     		sub	sp, sp, #12
 136              		.cfi_def_cfa_offset 16
 137 0004 00AF     		add	r7, sp, #0
 138              		.cfi_def_cfa_register 7
  83:.\Generated_Source\PSoC5/MultAcc_1_MACC_PM.c ****     uint8 count;
  84:.\Generated_Source\PSoC5/MultAcc_1_MACC_PM.c ****     uint8 i = 0u;
 139              		.loc 1 84 0
 140 0006 0023     		movs	r3, #0
 141 0008 BB71     		strb	r3, [r7, #6]
  85:.\Generated_Source\PSoC5/MultAcc_1_MACC_PM.c **** 		
ARM GAS  C:\Users\SCOTTC~1\AppData\Local\Temp\ccpC76d0.s 			page 5


  86:.\Generated_Source\PSoC5/MultAcc_1_MACC_PM.c ****     MultAcc_1_MACC_CR_REG = MultAcc_1_MACC_backup.cr;
 142              		.loc 1 86 0
 143 000a 1F4B     		ldr	r3, .L9
 144 000c 1F4A     		ldr	r2, .L9+4
 145 000e 5278     		ldrb	r2, [r2, #1]	@ zero_extendqisi2
 146 0010 1A70     		strb	r2, [r3]
  87:.\Generated_Source\PSoC5/MultAcc_1_MACC_PM.c ****     MultAcc_1_MACC_SR_REG = MultAcc_1_MACC_backup.sr;
 147              		.loc 1 87 0
 148 0012 1F4B     		ldr	r3, .L9+8
 149 0014 1D4A     		ldr	r2, .L9+4
 150 0016 9278     		ldrb	r2, [r2, #2]	@ zero_extendqisi2
 151 0018 1A70     		strb	r2, [r3]
  88:.\Generated_Source\PSoC5/MultAcc_1_MACC_PM.c ****     MultAcc_1_MACC_SEM_REG = MultAcc_1_MACC_backup.sem;
 152              		.loc 1 88 0
 153 001a 1E4B     		ldr	r3, .L9+12
 154 001c 1B4A     		ldr	r2, .L9+4
 155 001e D278     		ldrb	r2, [r2, #3]	@ zero_extendqisi2
 156 0020 1A70     		strb	r2, [r3]
  89:.\Generated_Source\PSoC5/MultAcc_1_MACC_PM.c ****     
  90:.\Generated_Source\PSoC5/MultAcc_1_MACC_PM.c ****     /* Power on DFB before initializing the RAMs */
  91:.\Generated_Source\PSoC5/MultAcc_1_MACC_PM.c ****     MultAcc_1_MACC_PM_ACT_CFG_REG |= MultAcc_1_MACC_PM_ACT_MSK;
 157              		.loc 1 91 0
 158 0022 1D4B     		ldr	r3, .L9+16
 159 0024 1C4A     		ldr	r2, .L9+16
 160 0026 1278     		ldrb	r2, [r2]
 161 0028 D2B2     		uxtb	r2, r2
 162 002a 42F01002 		orr	r2, r2, #16
 163 002e D2B2     		uxtb	r2, r2
 164 0030 1A70     		strb	r2, [r3]
  92:.\Generated_Source\PSoC5/MultAcc_1_MACC_PM.c ****     /* Enables DFB block in Alternate Active (Standby) mode */
  93:.\Generated_Source\PSoC5/MultAcc_1_MACC_PM.c ****     MultAcc_1_MACC_PM_STBY_CFG_REG |= MultAcc_1_MACC_PM_STBY_MSK;
 165              		.loc 1 93 0
 166 0032 1A4B     		ldr	r3, .L9+20
 167 0034 194A     		ldr	r2, .L9+20
 168 0036 1278     		ldrb	r2, [r2]
 169 0038 D2B2     		uxtb	r2, r2
 170 003a 42F01002 		orr	r2, r2, #16
 171 003e D2B2     		uxtb	r2, r2
 172 0040 1A70     		strb	r2, [r3]
  94:.\Generated_Source\PSoC5/MultAcc_1_MACC_PM.c ****     
  95:.\Generated_Source\PSoC5/MultAcc_1_MACC_PM.c ****     /* Put DFB RAM on the bus */
  96:.\Generated_Source\PSoC5/MultAcc_1_MACC_PM.c ****     MultAcc_1_MACC_RAM_DIR_REG = MultAcc_1_MACC_RAM_DIR_BUS;
 173              		.loc 1 96 0
 174 0042 174B     		ldr	r3, .L9+24
 175 0044 3F22     		movs	r2, #63
 176 0046 1A70     		strb	r2, [r3]
  97:.\Generated_Source\PSoC5/MultAcc_1_MACC_PM.c **** 
  98:.\Generated_Source\PSoC5/MultAcc_1_MACC_PM.c ****     /* ACU RAM */
  99:.\Generated_Source\PSoC5/MultAcc_1_MACC_PM.c ****     count = MultAcc_1_MACC_ACU_RAM_SIZE_CUR;
 177              		.loc 1 99 0
 178 0048 0123     		movs	r3, #1
 179 004a FB71     		strb	r3, [r7, #7]
 100:.\Generated_Source\PSoC5/MultAcc_1_MACC_PM.c ****     while (count > 0u)
 180              		.loc 1 100 0
 181 004c 11E0     		b	.L7
 182              	.L8:
 101:.\Generated_Source\PSoC5/MultAcc_1_MACC_PM.c ****     {
ARM GAS  C:\Users\SCOTTC~1\AppData\Local\Temp\ccpC76d0.s 			page 6


 102:.\Generated_Source\PSoC5/MultAcc_1_MACC_PM.c ****         CY_SET_REG32(& MultAcc_1_MACC_ACU_RAM_PTR[i], MultAcc_1_MACC_backup.acu[i]);
 183              		.loc 1 102 0
 184 004e BB79     		ldrb	r3, [r7, #6]	@ zero_extendqisi2
 185 0050 9B00     		lsls	r3, r3, #2
 186 0052 03F18043 		add	r3, r3, #1073741824
 187 0056 03F54743 		add	r3, r3, #50944
 188 005a BA79     		ldrb	r2, [r7, #6]	@ zero_extendqisi2
 189 005c 0B49     		ldr	r1, .L9+4
 190 005e 9200     		lsls	r2, r2, #2
 191 0060 0A44     		add	r2, r2, r1
 192 0062 5268     		ldr	r2, [r2, #4]
 193 0064 1A60     		str	r2, [r3]
 103:.\Generated_Source\PSoC5/MultAcc_1_MACC_PM.c ****         count--;
 194              		.loc 1 103 0
 195 0066 FB79     		ldrb	r3, [r7, #7]	@ zero_extendqisi2
 196 0068 013B     		subs	r3, r3, #1
 197 006a FB71     		strb	r3, [r7, #7]
 104:.\Generated_Source\PSoC5/MultAcc_1_MACC_PM.c ****         i++;
 198              		.loc 1 104 0
 199 006c BB79     		ldrb	r3, [r7, #6]	@ zero_extendqisi2
 200 006e 0133     		adds	r3, r3, #1
 201 0070 BB71     		strb	r3, [r7, #6]
 202              	.L7:
 100:.\Generated_Source\PSoC5/MultAcc_1_MACC_PM.c ****     while (count > 0u)
 203              		.loc 1 100 0 discriminator 1
 204 0072 FB79     		ldrb	r3, [r7, #7]	@ zero_extendqisi2
 205 0074 002B     		cmp	r3, #0
 206 0076 EAD1     		bne	.L8
 105:.\Generated_Source\PSoC5/MultAcc_1_MACC_PM.c ****     }
 106:.\Generated_Source\PSoC5/MultAcc_1_MACC_PM.c **** 
 107:.\Generated_Source\PSoC5/MultAcc_1_MACC_PM.c ****     /* Take DFB RAM off the bus */
 108:.\Generated_Source\PSoC5/MultAcc_1_MACC_PM.c ****     MultAcc_1_MACC_RAM_DIR_REG = MultAcc_1_MACC_RAM_DIR_DFB;
 207              		.loc 1 108 0
 208 0078 094B     		ldr	r3, .L9+24
 209 007a 0022     		movs	r2, #0
 210 007c 1A70     		strb	r2, [r3]
 109:.\Generated_Source\PSoC5/MultAcc_1_MACC_PM.c **** }
 211              		.loc 1 109 0
 212 007e 0C37     		adds	r7, r7, #12
 213 0080 BD46     		mov	sp, r7
 214              		@ sp needed
 215 0082 5DF8047B 		ldr	r7, [sp], #4
 216 0086 7047     		bx	lr
 217              	.L10:
 218              		.align	2
 219              	.L9:
 220 0088 80C70040 		.word	1073792896
 221 008c 00000000 		.word	MultAcc_1_MACC_backup
 222 0090 84C70040 		.word	1073792900
 223 0094 90C70040 		.word	1073792912
 224 0098 A6430040 		.word	1073759142
 225 009c B6430040 		.word	1073759158
 226 00a0 8CC70040 		.word	1073792908
 227              		.cfi_endproc
 228              	.LFE1:
 229              		.size	MultAcc_1_MACC_RestoreConfig, .-MultAcc_1_MACC_RestoreConfig
 230              		.section	.text.MultAcc_1_MACC_Sleep,"ax",%progbits
ARM GAS  C:\Users\SCOTTC~1\AppData\Local\Temp\ccpC76d0.s 			page 7


 231              		.align	2
 232              		.global	MultAcc_1_MACC_Sleep
 233              		.thumb
 234              		.thumb_func
 235              		.type	MultAcc_1_MACC_Sleep, %function
 236              	MultAcc_1_MACC_Sleep:
 237              	.LFB2:
 110:.\Generated_Source\PSoC5/MultAcc_1_MACC_PM.c **** 
 111:.\Generated_Source\PSoC5/MultAcc_1_MACC_PM.c **** 
 112:.\Generated_Source\PSoC5/MultAcc_1_MACC_PM.c **** /*******************************************************************************
 113:.\Generated_Source\PSoC5/MultAcc_1_MACC_PM.c **** * Function Name: MultAcc_1_MACC_Sleep
 114:.\Generated_Source\PSoC5/MultAcc_1_MACC_PM.c **** ********************************************************************************
 115:.\Generated_Source\PSoC5/MultAcc_1_MACC_PM.c **** *
 116:.\Generated_Source\PSoC5/MultAcc_1_MACC_PM.c **** * Summary:
 117:.\Generated_Source\PSoC5/MultAcc_1_MACC_PM.c **** *  This is the preferred routine to prepare the component for sleep. The
 118:.\Generated_Source\PSoC5/MultAcc_1_MACC_PM.c **** *  MultAcc_1_MACC_Sleep() routine saves the current component state. Then it
 119:.\Generated_Source\PSoC5/MultAcc_1_MACC_PM.c **** *  calls the DFB_Stop() function and calls MultAcc_1_MACC_SaveConfig() to save
 120:.\Generated_Source\PSoC5/MultAcc_1_MACC_PM.c **** *  the hardware configuration. Call the MultAcc_1_MACC_Sleep() function before
 121:.\Generated_Source\PSoC5/MultAcc_1_MACC_PM.c **** *  calling the CyPmSleep() or the CyPmHibernate() function. Refer to the PSoC
 122:.\Generated_Source\PSoC5/MultAcc_1_MACC_PM.c **** *  Creator System Reference Guide for more information about power management
 123:.\Generated_Source\PSoC5/MultAcc_1_MACC_PM.c **** *  functions.
 124:.\Generated_Source\PSoC5/MultAcc_1_MACC_PM.c **** *
 125:.\Generated_Source\PSoC5/MultAcc_1_MACC_PM.c **** * Parameters:
 126:.\Generated_Source\PSoC5/MultAcc_1_MACC_PM.c **** *  None.
 127:.\Generated_Source\PSoC5/MultAcc_1_MACC_PM.c **** *
 128:.\Generated_Source\PSoC5/MultAcc_1_MACC_PM.c **** * Return:
 129:.\Generated_Source\PSoC5/MultAcc_1_MACC_PM.c **** *  None.
 130:.\Generated_Source\PSoC5/MultAcc_1_MACC_PM.c **** *
 131:.\Generated_Source\PSoC5/MultAcc_1_MACC_PM.c **** * Reentrant:
 132:.\Generated_Source\PSoC5/MultAcc_1_MACC_PM.c **** *  No.
 133:.\Generated_Source\PSoC5/MultAcc_1_MACC_PM.c **** *
 134:.\Generated_Source\PSoC5/MultAcc_1_MACC_PM.c **** *******************************************************************************/
 135:.\Generated_Source\PSoC5/MultAcc_1_MACC_PM.c **** void MultAcc_1_MACC_Sleep(void) 
 136:.\Generated_Source\PSoC5/MultAcc_1_MACC_PM.c **** {
 238              		.loc 1 136 0
 239              		.cfi_startproc
 240              		@ args = 0, pretend = 0, frame = 0
 241              		@ frame_needed = 1, uses_anonymous_args = 0
 242 0000 80B5     		push	{r7, lr}
 243              		.cfi_def_cfa_offset 8
 244              		.cfi_offset 7, -8
 245              		.cfi_offset 14, -4
 246 0002 00AF     		add	r7, sp, #0
 247              		.cfi_def_cfa_register 7
 137:.\Generated_Source\PSoC5/MultAcc_1_MACC_PM.c ****     if (0u != (MultAcc_1_MACC_CR_REG & MultAcc_1_MACC_RUN_MASK))
 248              		.loc 1 137 0
 249 0004 0D4B     		ldr	r3, .L14
 250 0006 1B78     		ldrb	r3, [r3]
 251 0008 DBB2     		uxtb	r3, r3
 252 000a 03F00103 		and	r3, r3, #1
 253 000e 002B     		cmp	r3, #0
 254 0010 03D0     		beq	.L12
 138:.\Generated_Source\PSoC5/MultAcc_1_MACC_PM.c ****     {
 139:.\Generated_Source\PSoC5/MultAcc_1_MACC_PM.c ****         MultAcc_1_MACC_backup.enableState = 1u;
 255              		.loc 1 139 0
 256 0012 0B4B     		ldr	r3, .L14+4
 257 0014 0122     		movs	r2, #1
ARM GAS  C:\Users\SCOTTC~1\AppData\Local\Temp\ccpC76d0.s 			page 8


 258 0016 1A70     		strb	r2, [r3]
 259 0018 02E0     		b	.L13
 260              	.L12:
 140:.\Generated_Source\PSoC5/MultAcc_1_MACC_PM.c ****     }
 141:.\Generated_Source\PSoC5/MultAcc_1_MACC_PM.c ****     else /* The DFB block is disabled */
 142:.\Generated_Source\PSoC5/MultAcc_1_MACC_PM.c ****     {
 143:.\Generated_Source\PSoC5/MultAcc_1_MACC_PM.c ****         MultAcc_1_MACC_backup.enableState = 0u;
 261              		.loc 1 143 0
 262 001a 094B     		ldr	r3, .L14+4
 263 001c 0022     		movs	r2, #0
 264 001e 1A70     		strb	r2, [r3]
 265              	.L13:
 144:.\Generated_Source\PSoC5/MultAcc_1_MACC_PM.c ****     }
 145:.\Generated_Source\PSoC5/MultAcc_1_MACC_PM.c **** 
 146:.\Generated_Source\PSoC5/MultAcc_1_MACC_PM.c ****     /* Save the configuration */
 147:.\Generated_Source\PSoC5/MultAcc_1_MACC_PM.c ****     MultAcc_1_MACC_SaveConfig();
 266              		.loc 1 147 0
 267 0020 FFF7FEFF 		bl	MultAcc_1_MACC_SaveConfig
 148:.\Generated_Source\PSoC5/MultAcc_1_MACC_PM.c ****     
 149:.\Generated_Source\PSoC5/MultAcc_1_MACC_PM.c ****     /* Disables the clock to the entire core of the block */
 150:.\Generated_Source\PSoC5/MultAcc_1_MACC_PM.c ****     MultAcc_1_MACC_CR_REG |= MultAcc_1_MACC_CORECLK_DISABLE;
 268              		.loc 1 150 0
 269 0024 054B     		ldr	r3, .L14
 270 0026 054A     		ldr	r2, .L14
 271 0028 1278     		ldrb	r2, [r2]
 272 002a D2B2     		uxtb	r2, r2
 273 002c 42F00402 		orr	r2, r2, #4
 274 0030 D2B2     		uxtb	r2, r2
 275 0032 1A70     		strb	r2, [r3]
 151:.\Generated_Source\PSoC5/MultAcc_1_MACC_PM.c ****     
 152:.\Generated_Source\PSoC5/MultAcc_1_MACC_PM.c ****     /* Turn off the run bit */
 153:.\Generated_Source\PSoC5/MultAcc_1_MACC_PM.c ****     MultAcc_1_MACC_Pause();
 276              		.loc 1 153 0
 277 0034 FFF7FEFF 		bl	MultAcc_1_MACC_Pause
 154:.\Generated_Source\PSoC5/MultAcc_1_MACC_PM.c **** }
 278              		.loc 1 154 0
 279 0038 80BD     		pop	{r7, pc}
 280              	.L15:
 281 003a 00BF     		.align	2
 282              	.L14:
 283 003c 80C70040 		.word	1073792896
 284 0040 00000000 		.word	MultAcc_1_MACC_backup
 285              		.cfi_endproc
 286              	.LFE2:
 287              		.size	MultAcc_1_MACC_Sleep, .-MultAcc_1_MACC_Sleep
 288              		.section	.text.MultAcc_1_MACC_Wakeup,"ax",%progbits
 289              		.align	2
 290              		.global	MultAcc_1_MACC_Wakeup
 291              		.thumb
 292              		.thumb_func
 293              		.type	MultAcc_1_MACC_Wakeup, %function
 294              	MultAcc_1_MACC_Wakeup:
 295              	.LFB3:
 155:.\Generated_Source\PSoC5/MultAcc_1_MACC_PM.c **** 
 156:.\Generated_Source\PSoC5/MultAcc_1_MACC_PM.c **** 
 157:.\Generated_Source\PSoC5/MultAcc_1_MACC_PM.c **** /*******************************************************************************
 158:.\Generated_Source\PSoC5/MultAcc_1_MACC_PM.c **** * Function Name: MultAcc_1_MACC_Wakeup
ARM GAS  C:\Users\SCOTTC~1\AppData\Local\Temp\ccpC76d0.s 			page 9


 159:.\Generated_Source\PSoC5/MultAcc_1_MACC_PM.c **** ********************************************************************************
 160:.\Generated_Source\PSoC5/MultAcc_1_MACC_PM.c **** *
 161:.\Generated_Source\PSoC5/MultAcc_1_MACC_PM.c **** * Summary:
 162:.\Generated_Source\PSoC5/MultAcc_1_MACC_PM.c **** *  This is the preferred routine to restore the component to the state when
 163:.\Generated_Source\PSoC5/MultAcc_1_MACC_PM.c **** *  MultAcc_1_MACC_Sleep() was called. The MultAcc_1_MACC_Wakeup() function
 164:.\Generated_Source\PSoC5/MultAcc_1_MACC_PM.c **** *  calls the MultAcc_1_MACC_RestoreConfig() function to restore the
 165:.\Generated_Source\PSoC5/MultAcc_1_MACC_PM.c **** *  configuration. If the component was enabled before the
 166:.\Generated_Source\PSoC5/MultAcc_1_MACC_PM.c **** *  MultAcc_1_MACC_Sleep() function was called, the MultAcc_1_MACC_Wakeup()
 167:.\Generated_Source\PSoC5/MultAcc_1_MACC_PM.c **** *  function will also re-enable the component.
 168:.\Generated_Source\PSoC5/MultAcc_1_MACC_PM.c **** *
 169:.\Generated_Source\PSoC5/MultAcc_1_MACC_PM.c **** * Parameters:
 170:.\Generated_Source\PSoC5/MultAcc_1_MACC_PM.c **** *  None.
 171:.\Generated_Source\PSoC5/MultAcc_1_MACC_PM.c **** *
 172:.\Generated_Source\PSoC5/MultAcc_1_MACC_PM.c **** * Return:
 173:.\Generated_Source\PSoC5/MultAcc_1_MACC_PM.c **** *  None.
 174:.\Generated_Source\PSoC5/MultAcc_1_MACC_PM.c **** *
 175:.\Generated_Source\PSoC5/MultAcc_1_MACC_PM.c **** * Side Effects:
 176:.\Generated_Source\PSoC5/MultAcc_1_MACC_PM.c **** *  Calling the MultAcc_1_MACC_Wakeup() function without first calling the
 177:.\Generated_Source\PSoC5/MultAcc_1_MACC_PM.c **** *  MultAcc_1_MACC_Sleep() or MultAcc_1_MACC_SaveConfig() function may
 178:.\Generated_Source\PSoC5/MultAcc_1_MACC_PM.c **** *  produce unexpected behavior.
 179:.\Generated_Source\PSoC5/MultAcc_1_MACC_PM.c **** *
 180:.\Generated_Source\PSoC5/MultAcc_1_MACC_PM.c **** *******************************************************************************/
 181:.\Generated_Source\PSoC5/MultAcc_1_MACC_PM.c **** void MultAcc_1_MACC_Wakeup(void) 
 182:.\Generated_Source\PSoC5/MultAcc_1_MACC_PM.c **** {
 296              		.loc 1 182 0
 297              		.cfi_startproc
 298              		@ args = 0, pretend = 0, frame = 0
 299              		@ frame_needed = 1, uses_anonymous_args = 0
 300 0000 80B5     		push	{r7, lr}
 301              		.cfi_def_cfa_offset 8
 302              		.cfi_offset 7, -8
 303              		.cfi_offset 14, -4
 304 0002 00AF     		add	r7, sp, #0
 305              		.cfi_def_cfa_register 7
 183:.\Generated_Source\PSoC5/MultAcc_1_MACC_PM.c ****     MultAcc_1_MACC_RestoreConfig();
 306              		.loc 1 183 0
 307 0004 FFF7FEFF 		bl	MultAcc_1_MACC_RestoreConfig
 184:.\Generated_Source\PSoC5/MultAcc_1_MACC_PM.c **** 
 185:.\Generated_Source\PSoC5/MultAcc_1_MACC_PM.c ****     /* Enables the clock to the entire core of the block */
 186:.\Generated_Source\PSoC5/MultAcc_1_MACC_PM.c ****     MultAcc_1_MACC_CR_REG &= (uint8) (~MultAcc_1_MACC_CORECLK_DISABLE);
 308              		.loc 1 186 0
 309 0008 0A4B     		ldr	r3, .L19
 310 000a 0A4A     		ldr	r2, .L19
 311 000c 1278     		ldrb	r2, [r2]
 312 000e D2B2     		uxtb	r2, r2
 313 0010 22F00402 		bic	r2, r2, #4
 314 0014 D2B2     		uxtb	r2, r2
 315 0016 1A70     		strb	r2, [r3]
 187:.\Generated_Source\PSoC5/MultAcc_1_MACC_PM.c **** 
 188:.\Generated_Source\PSoC5/MultAcc_1_MACC_PM.c ****     if (MultAcc_1_MACC_backup.enableState != 0u)
 316              		.loc 1 188 0
 317 0018 074B     		ldr	r3, .L19+4
 318 001a 1B78     		ldrb	r3, [r3]	@ zero_extendqisi2
 319 001c 002B     		cmp	r3, #0
 320 001e 02D0     		beq	.L17
 189:.\Generated_Source\PSoC5/MultAcc_1_MACC_PM.c ****     {
 190:.\Generated_Source\PSoC5/MultAcc_1_MACC_PM.c ****         /* Enables component's operation */
ARM GAS  C:\Users\SCOTTC~1\AppData\Local\Temp\ccpC76d0.s 			page 10


 191:.\Generated_Source\PSoC5/MultAcc_1_MACC_PM.c ****         MultAcc_1_MACC_Resume();
 321              		.loc 1 191 0
 322 0020 FFF7FEFF 		bl	MultAcc_1_MACC_Resume
 323 0024 05E0     		b	.L16
 324              	.L17:
 192:.\Generated_Source\PSoC5/MultAcc_1_MACC_PM.c ****     } /* Left Run Bit in off state if component's block was disabled before */
 193:.\Generated_Source\PSoC5/MultAcc_1_MACC_PM.c ****     else
 194:.\Generated_Source\PSoC5/MultAcc_1_MACC_PM.c ****     {
 195:.\Generated_Source\PSoC5/MultAcc_1_MACC_PM.c ****         /* Takes DFB RAM off the bus */
 196:.\Generated_Source\PSoC5/MultAcc_1_MACC_PM.c ****         MultAcc_1_MACC_RAM_DIR_REG = MultAcc_1_MACC_RAM_DIR_DFB;
 325              		.loc 1 196 0
 326 0026 054B     		ldr	r3, .L19+8
 327 0028 0022     		movs	r2, #0
 328 002a 1A70     		strb	r2, [r3]
 197:.\Generated_Source\PSoC5/MultAcc_1_MACC_PM.c ****         /* Clears any pending interrupts */
 198:.\Generated_Source\PSoC5/MultAcc_1_MACC_PM.c ****         MultAcc_1_MACC_SR_REG = 0xFFu;
 329              		.loc 1 198 0
 330 002c 044B     		ldr	r3, .L19+12
 331 002e FF22     		movs	r2, #255
 332 0030 1A70     		strb	r2, [r3]
 333              	.L16:
 199:.\Generated_Source\PSoC5/MultAcc_1_MACC_PM.c ****     }
 200:.\Generated_Source\PSoC5/MultAcc_1_MACC_PM.c **** }
 334              		.loc 1 200 0
 335 0032 80BD     		pop	{r7, pc}
 336              	.L20:
 337              		.align	2
 338              	.L19:
 339 0034 80C70040 		.word	1073792896
 340 0038 00000000 		.word	MultAcc_1_MACC_backup
 341 003c 8CC70040 		.word	1073792908
 342 0040 84C70040 		.word	1073792900
 343              		.cfi_endproc
 344              	.LFE3:
 345              		.size	MultAcc_1_MACC_Wakeup, .-MultAcc_1_MACC_Wakeup
 346              		.text
 347              	.Letext0:
 348              		.file 2 ".\\Generated_Source\\PSoC5\\cytypes.h"
 349              		.file 3 ".\\Generated_Source\\PSoC5\\MultAcc_1_MACC.h"