ARM GAS  C:\Users\SCOTTC~1\AppData\Local\Temp\ccczbWf8.s 			page 1


   1              		.syntax unified
   2              		.cpu cortex-m3
   3              		.fpu softvfp
   4              		.eabi_attribute 20, 1
   5              		.eabi_attribute 21, 1
   6              		.eabi_attribute 23, 3
   7              		.eabi_attribute 24, 1
   8              		.eabi_attribute 25, 1
   9              		.eabi_attribute 26, 1
  10              		.eabi_attribute 30, 6
  11              		.eabi_attribute 34, 1
  12              		.eabi_attribute 18, 4
  13              		.thumb
  14              		.file	"SpectralFlux_q15.c"
  15              		.text
  16              	.Ltext0:
  17              		.cfi_sections	.debug_frame
  18              		.global	isr_BC_flag
  19              		.bss
  20              		.type	isr_BC_flag, %object
  21              		.size	isr_BC_flag, 1
  22              	isr_BC_flag:
  23 0000 00       		.space	1
  24              		.section	.text.SpectralFlux_q15,"ax",%progbits
  25              		.align	2
  26              		.global	SpectralFlux_q15
  27              		.thumb
  28              		.thumb_func
  29              		.type	SpectralFlux_q15, %function
  30              	SpectralFlux_q15:
  31              	.LFB118:
  32              		.file 1 "..\\..\\CMSIS_project\\CMSIS_project.cydsn\\SpectralFlux_q15.c"
   1:..\..\CMSIS_project\CMSIS_project.cydsn/SpectralFlux_q15.c **** /* ----------------------------------------------------------------------
   2:..\..\CMSIS_project\CMSIS_project.cydsn/SpectralFlux_q15.c **** *	Author: Scott Carlson 	Date:07/14/2015
   3:..\..\CMSIS_project\CMSIS_project.cydsn/SpectralFlux_q15.c **** *	Purpose: This code models an onset detector that uses the Spectral Flux.
   4:..\..\CMSIS_project\CMSIS_project.cydsn/SpectralFlux_q15.c **** *		 The spectral flux is calculated from 4 moving windows and the
   5:..\..\CMSIS_project\CMSIS_project.cydsn/SpectralFlux_q15.c **** *		 Onset is determined by looking for the peak in the middle of
   6:..\..\CMSIS_project\CMSIS_project.cydsn/SpectralFlux_q15.c **** *		 the 3 spectral flux values.
   7:..\..\CMSIS_project\CMSIS_project.cydsn/SpectralFlux_q15.c **** *
   8:..\..\CMSIS_project\CMSIS_project.cydsn/SpectralFlux_q15.c **** * Below are the meanings for the status codes:
   9:..\..\CMSIS_project\CMSIS_project.cydsn/SpectralFlux_q15.c **** *   typedef enum
  10:..\..\CMSIS_project\CMSIS_project.cydsn/SpectralFlux_q15.c **** *     {
  11:..\..\CMSIS_project\CMSIS_project.cydsn/SpectralFlux_q15.c **** *       ARM_MATH_SUCCESS = 0,                No error 
  12:..\..\CMSIS_project\CMSIS_project.cydsn/SpectralFlux_q15.c **** *       ARM_MATH_ARGUMENT_ERROR = -1,        One or more arguments are incorrect 
  13:..\..\CMSIS_project\CMSIS_project.cydsn/SpectralFlux_q15.c **** *       ARM_MATH_LENGTH_ERROR = -2,          Length of data buffer is incorrect 
  14:..\..\CMSIS_project\CMSIS_project.cydsn/SpectralFlux_q15.c **** *       ARM_MATH_SIZE_MISMATCH = -3,         Size of matrices is not compatible with the operation.
  15:..\..\CMSIS_project\CMSIS_project.cydsn/SpectralFlux_q15.c **** *       ARM_MATH_NANINF = -4,                Not-a-number (NaN) or infinity is generated 
  16:..\..\CMSIS_project\CMSIS_project.cydsn/SpectralFlux_q15.c **** *       ARM_MATH_SINGULAR = -5,              Generated by matrix inversion if the input matrix is s
  17:..\..\CMSIS_project\CMSIS_project.cydsn/SpectralFlux_q15.c **** *       ARM_MATH_TEST_FAILURE = -6           Test Failed  
  18:..\..\CMSIS_project\CMSIS_project.cydsn/SpectralFlux_q15.c **** *     } arm_status;
  19:..\..\CMSIS_project\CMSIS_project.cydsn/SpectralFlux_q15.c **** *
  20:..\..\CMSIS_project\CMSIS_project.cydsn/SpectralFlux_q15.c **** *
  21:..\..\CMSIS_project\CMSIS_project.cydsn/SpectralFlux_q15.c **** *
  22:..\..\CMSIS_project\CMSIS_project.cydsn/SpectralFlux_q15.c **** *
  23:..\..\CMSIS_project\CMSIS_project.cydsn/SpectralFlux_q15.c **** *
  24:..\..\CMSIS_project\CMSIS_project.cydsn/SpectralFlux_q15.c **** *
  25:..\..\CMSIS_project\CMSIS_project.cydsn/SpectralFlux_q15.c **** *------------------------------------------------------------------------
ARM GAS  C:\Users\SCOTTC~1\AppData\Local\Temp\ccczbWf8.s 			page 2


  26:..\..\CMSIS_project\CMSIS_project.cydsn/SpectralFlux_q15.c **** */
  27:..\..\CMSIS_project\CMSIS_project.cydsn/SpectralFlux_q15.c **** 
  28:..\..\CMSIS_project\CMSIS_project.cydsn/SpectralFlux_q15.c **** 
  29:..\..\CMSIS_project\CMSIS_project.cydsn/SpectralFlux_q15.c **** #include <arm_math.h>
  30:..\..\CMSIS_project\CMSIS_project.cydsn/SpectralFlux_q15.c **** #include <arm_const_structs.h>
  31:..\..\CMSIS_project\CMSIS_project.cydsn/SpectralFlux_q15.c **** #include "InterruptRoutines.h"
  32:..\..\CMSIS_project\CMSIS_project.cydsn/SpectralFlux_q15.c **** 
  33:..\..\CMSIS_project\CMSIS_project.cydsn/SpectralFlux_q15.c **** #define TEST_LENGTH_SAMPLES 1024
  34:..\..\CMSIS_project\CMSIS_project.cydsn/SpectralFlux_q15.c **** 
  35:..\..\CMSIS_project\CMSIS_project.cydsn/SpectralFlux_q15.c **** 
  36:..\..\CMSIS_project\CMSIS_project.cydsn/SpectralFlux_q15.c **** /* ------------------------------------------------------------------
  37:..\..\CMSIS_project\CMSIS_project.cydsn/SpectralFlux_q15.c **** * Global variables for Spectral Flux
  38:..\..\CMSIS_project\CMSIS_project.cydsn/SpectralFlux_q15.c **** * ------------------------------------------------------------------- */
  39:..\..\CMSIS_project\CMSIS_project.cydsn/SpectralFlux_q15.c **** 
  40:..\..\CMSIS_project\CMSIS_project.cydsn/SpectralFlux_q15.c **** 
  41:..\..\CMSIS_project\CMSIS_project.cydsn/SpectralFlux_q15.c **** 
  42:..\..\CMSIS_project\CMSIS_project.cydsn/SpectralFlux_q15.c **** /* ----------------------------------------------------------------------
  43:..\..\CMSIS_project\CMSIS_project.cydsn/SpectralFlux_q15.c **** * Max magnitude Spectral Flux
  44:..\..\CMSIS_project\CMSIS_project.cydsn/SpectralFlux_q15.c **** * ------------------------------------------------------------------- */
  45:..\..\CMSIS_project\CMSIS_project.cydsn/SpectralFlux_q15.c **** 
  46:..\..\CMSIS_project\CMSIS_project.cydsn/SpectralFlux_q15.c **** int8 SpectralFlux_q15(
  47:..\..\CMSIS_project\CMSIS_project.cydsn/SpectralFlux_q15.c **** 	q15_t * testInput0,//current  input
  48:..\..\CMSIS_project\CMSIS_project.cydsn/SpectralFlux_q15.c **** 	q15_t * testInput1,//previous input
  49:..\..\CMSIS_project\CMSIS_project.cydsn/SpectralFlux_q15.c **** 	q15_t * SpectralFlux//outputssss
  50:..\..\CMSIS_project\CMSIS_project.cydsn/SpectralFlux_q15.c **** 	)
  51:..\..\CMSIS_project\CMSIS_project.cydsn/SpectralFlux_q15.c **** {
  33              		.loc 1 51 0
  34              		.cfi_startproc
  35              		@ args = 0, pretend = 0, frame = 4152
  36              		@ frame_needed = 1, uses_anonymous_args = 0
  37 0000 80B5     		push	{r7, lr}
  38              		.cfi_def_cfa_offset 8
  39              		.cfi_offset 7, -8
  40              		.cfi_offset 14, -4
  41 0002 ADF5815D 		sub	sp, sp, #4128
  42              		.cfi_def_cfa_offset 4136
  43 0006 86B0     		sub	sp, sp, #24
  44              		.cfi_def_cfa_offset 4160
  45 0008 00AF     		add	r7, sp, #0
  46              		.cfi_def_cfa_register 7
  47 000a 07F11803 		add	r3, r7, #24
  48 000e 0C3B     		subs	r3, r3, #12
  49 0010 1860     		str	r0, [r3]
  50 0012 07F11803 		add	r3, r7, #24
  51 0016 103B     		subs	r3, r3, #16
  52 0018 1960     		str	r1, [r3]
  53 001a 07F11803 		add	r3, r7, #24
  54 001e 143B     		subs	r3, r3, #20
  55 0020 1A60     		str	r2, [r3]
  52:..\..\CMSIS_project\CMSIS_project.cydsn/SpectralFlux_q15.c ****   //initialize variables used in loop
  53:..\..\CMSIS_project\CMSIS_project.cydsn/SpectralFlux_q15.c ****   uint16 i=0;
  56              		.loc 1 53 0
  57 0022 0023     		movs	r3, #0
  58 0024 07F58152 		add	r2, r7, #4128
  59 0028 02F11602 		add	r2, r2, #22
  60 002c 1380     		strh	r3, [r2]	@ movhi
  54:..\..\CMSIS_project\CMSIS_project.cydsn/SpectralFlux_q15.c ****   arm_status mat_status;
ARM GAS  C:\Users\SCOTTC~1\AppData\Local\Temp\ccczbWf8.s 			page 3


  55:..\..\CMSIS_project\CMSIS_project.cydsn/SpectralFlux_q15.c ****   arm_status fft_status;
  56:..\..\CMSIS_project\CMSIS_project.cydsn/SpectralFlux_q15.c ****   mat_status = ARM_MATH_SUCCESS;
  61              		.loc 1 56 0
  62 002e 0023     		movs	r3, #0
  63 0030 07F58152 		add	r2, r7, #4128
  64 0034 02F11502 		add	r2, r2, #21
  65 0038 1370     		strb	r3, [r2]
  57:..\..\CMSIS_project\CMSIS_project.cydsn/SpectralFlux_q15.c ****   fft_status = ARM_MATH_SUCCESS;
  66              		.loc 1 57 0
  67 003a 0023     		movs	r3, #0
  68 003c 07F58152 		add	r2, r7, #4128
  69 0040 02F11402 		add	r2, r2, #20
  70 0044 1370     		strb	r3, [r2]
  58:..\..\CMSIS_project\CMSIS_project.cydsn/SpectralFlux_q15.c ****   uint32_t srcRows, srcColumns; 
  59:..\..\CMSIS_project\CMSIS_project.cydsn/SpectralFlux_q15.c ****   uint16_t fftSize = 1024;
  71              		.loc 1 59 0
  72 0046 4FF48063 		mov	r3, #1024
  73 004a 07F58152 		add	r2, r7, #4128
  74 004e 02F11202 		add	r2, r2, #18
  75 0052 1380     		strh	r3, [r2]	@ movhi
  60:..\..\CMSIS_project\CMSIS_project.cydsn/SpectralFlux_q15.c ****   uint8_t ifftFlag = 0;
  76              		.loc 1 60 0
  77 0054 0023     		movs	r3, #0
  78 0056 07F58152 		add	r2, r7, #4128
  79 005a 02F11102 		add	r2, r2, #17
  80 005e 1370     		strb	r3, [r2]
  61:..\..\CMSIS_project\CMSIS_project.cydsn/SpectralFlux_q15.c ****   uint8_t doBitReverse = 1;
  81              		.loc 1 61 0
  82 0060 0123     		movs	r3, #1
  83 0062 07F58152 		add	r2, r7, #4128
  84 0066 02F11002 		add	r2, r2, #16
  85 006a 1370     		strb	r3, [r2]
  62:..\..\CMSIS_project\CMSIS_project.cydsn/SpectralFlux_q15.c ****   q15_t testOutput0[TEST_LENGTH_SAMPLES/2];
  63:..\..\CMSIS_project\CMSIS_project.cydsn/SpectralFlux_q15.c ****   q15_t testOutput1[TEST_LENGTH_SAMPLES/2];
  64:..\..\CMSIS_project\CMSIS_project.cydsn/SpectralFlux_q15.c ****     
  65:..\..\CMSIS_project\CMSIS_project.cydsn/SpectralFlux_q15.c **** /**************************************************************************************************
  66:..\..\CMSIS_project\CMSIS_project.cydsn/SpectralFlux_q15.c **** *   In this section there are two paths that can be taken                                          
  67:..\..\CMSIS_project\CMSIS_project.cydsn/SpectralFlux_q15.c **** *       1)  The CMSIS library has a table of predifined initialization definitions in ARM_CONST_STR
  68:..\..\CMSIS_project\CMSIS_project.cydsn/SpectralFlux_q15.c **** *           These can directly be used with the arm_cfft_q15 function found in ARM_CFFT_Q15.c.     
  69:..\..\CMSIS_project\CMSIS_project.cydsn/SpectralFlux_q15.c **** *           Using this method allows the arm_cfft_q15 function to determine whether or not to use r
  70:..\..\CMSIS_project\CMSIS_project.cydsn/SpectralFlux_q15.c **** *       2)  The CMSIS library also allows access to the different radix-2, radix-4, etc. functions 
  71:..\..\CMSIS_project\CMSIS_project.cydsn/SpectralFlux_q15.c **** *           This can be done first by selecting the type of operation you desire (radix-2,-4,etc.) 
  72:..\..\CMSIS_project\CMSIS_project.cydsn/SpectralFlux_q15.c **** *           such as arm_cfft_radix4_init_q15 found in ARM_CFFT_RADIX4_INIT_Q15.c to initialize an a
  73:..\..\CMSIS_project\CMSIS_project.cydsn/SpectralFlux_q15.c **** *           the arm_cfft_radix4_q15 function found in ARM_CFFT_RADIX4_Q15.c with the initialization
  74:..\..\CMSIS_project\CMSIS_project.cydsn/SpectralFlux_q15.c **** *                                                                                                  
  75:..\..\CMSIS_project\CMSIS_project.cydsn/SpectralFlux_q15.c **** *   Both of the above methods can result in the same outcome.                                      
  76:..\..\CMSIS_project\CMSIS_project.cydsn/SpectralFlux_q15.c **** *   For practical purposes it may be simpler to use the first method so there is no need to do any 
  77:..\..\CMSIS_project\CMSIS_project.cydsn/SpectralFlux_q15.c **** *   Throughout this code the first method is used.                                                 
  78:..\..\CMSIS_project\CMSIS_project.cydsn/SpectralFlux_q15.c **** *                                                                                                  
  79:..\..\CMSIS_project\CMSIS_project.cydsn/SpectralFlux_q15.c **** ***************************************************************************************************
  80:..\..\CMSIS_project\CMSIS_project.cydsn/SpectralFlux_q15.c **** * @details                                                                                         
  81:..\..\CMSIS_project\CMSIS_project.cydsn/SpectralFlux_q15.c **** * @brief       Processing function for the Q15 complex FFT.                                        
  82:..\..\CMSIS_project\CMSIS_project.cydsn/SpectralFlux_q15.c **** * @param[in]      const     *S              points to an instance of the Q15 CFFT structure.       
  83:..\..\CMSIS_project\CMSIS_project.cydsn/SpectralFlux_q15.c **** * @param[in, out] q15_t     *p1             points to the complex data buffer of size <code>2*fftLe
  84:..\..\CMSIS_project\CMSIS_project.cydsn/SpectralFlux_q15.c **** * @param[in]      uint8_t   ifftFlag        flag that selects forward (ifftFlag=0) or inverse (ifft
  85:..\..\CMSIS_project\CMSIS_project.cydsn/SpectralFlux_q15.c **** * @param[in]      uint8_t   bitReverseFlag  flag that enables (bitReverseFlag=1) or disables (bitRe
  86:..\..\CMSIS_project\CMSIS_project.cydsn/SpectralFlux_q15.c **** * @return none.                                                                                    
ARM GAS  C:\Users\SCOTTC~1\AppData\Local\Temp\ccczbWf8.s 			page 4


  87:..\..\CMSIS_project\CMSIS_project.cydsn/SpectralFlux_q15.c **** ***************************************************************************************************
  88:..\..\CMSIS_project\CMSIS_project.cydsn/SpectralFlux_q15.c **** *  typedef struct                                                                                  
  89:..\..\CMSIS_project\CMSIS_project.cydsn/SpectralFlux_q15.c **** *  {                                                                                               
  90:..\..\CMSIS_project\CMSIS_project.cydsn/SpectralFlux_q15.c **** *    uint16_t fftLen;                   length of the FFT.                                         
  91:..\..\CMSIS_project\CMSIS_project.cydsn/SpectralFlux_q15.c **** *    const q15_t *pTwiddle;             points to the Twiddle factor table.                        
  92:..\..\CMSIS_project\CMSIS_project.cydsn/SpectralFlux_q15.c **** *    const uint16_t *pBitRevTable;      points to the bit reversal table.                          
  93:..\..\CMSIS_project\CMSIS_project.cydsn/SpectralFlux_q15.c **** *    uint16_t bitRevLength;             bit reversal table length.                                 
  94:..\..\CMSIS_project\CMSIS_project.cydsn/SpectralFlux_q15.c **** *  } arm_cfft_instance_q15;                                                                        
  95:..\..\CMSIS_project\CMSIS_project.cydsn/SpectralFlux_q15.c **** ***************************************************************************************************
  96:..\..\CMSIS_project\CMSIS_project.cydsn/SpectralFlux_q15.c **** * @brief  Q15 complex magnitude                                                                    
  97:..\..\CMSIS_project\CMSIS_project.cydsn/SpectralFlux_q15.c **** * @param  q15_t    *pSrc       points to the complex input vector                                  
  98:..\..\CMSIS_project\CMSIS_project.cydsn/SpectralFlux_q15.c **** * @param  q15_t    *pDst       points to the real output vector                                    
  99:..\..\CMSIS_project\CMSIS_project.cydsn/SpectralFlux_q15.c **** * @param  uint32_t numSamples  number of complex samples in the input vector                       
 100:..\..\CMSIS_project\CMSIS_project.cydsn/SpectralFlux_q15.c **** * @return none.                                                                                    
 101:..\..\CMSIS_project\CMSIS_project.cydsn/SpectralFlux_q15.c **** *                                                                                                  
 102:..\..\CMSIS_project\CMSIS_project.cydsn/SpectralFlux_q15.c **** * Scaling and Overflow Behavior:                                                                   
 103:..\..\CMSIS_project\CMSIS_project.cydsn/SpectralFlux_q15.c **** * The function implements 1.15 by 1.15 multiplications and finally output is converted into 2.14 fo
 104:..\..\CMSIS_project\CMSIS_project.cydsn/SpectralFlux_q15.c **** ***************************************************************************************************
 105:..\..\CMSIS_project\CMSIS_project.cydsn/SpectralFlux_q15.c **** 
 106:..\..\CMSIS_project\CMSIS_project.cydsn/SpectralFlux_q15.c **** //calculate the cfft of the testInput0 and take the absolute value   
 107:..\..\CMSIS_project\CMSIS_project.cydsn/SpectralFlux_q15.c ****     arm_cfft_q15(&arm_cfft_sR_q15_len1024, testInput0, 0, 1); 
  86              		.loc 1 107 0
  87 006c 07F11803 		add	r3, r7, #24
  88 0070 0C3B     		subs	r3, r3, #12
  89 0072 6548     		ldr	r0, .L5
  90 0074 1968     		ldr	r1, [r3]
  91 0076 0022     		movs	r2, #0
  92 0078 0123     		movs	r3, #1
  93 007a FFF7FEFF 		bl	arm_cfft_q15
 108:..\..\CMSIS_project\CMSIS_project.cydsn/SpectralFlux_q15.c ****     arm_cmplx_mag_q15(testInput0, testOutput0, 1024);   
  94              		.loc 1 108 0
  95 007e 07F11803 		add	r3, r7, #24
  96 0082 0C3B     		subs	r3, r3, #12
  97 0084 07F62842 		addw	r2, r7, #3112
  98 0088 1868     		ldr	r0, [r3]
  99 008a 1146     		mov	r1, r2
 100 008c 4FF48062 		mov	r2, #1024
 101 0090 FFF7FEFF 		bl	arm_cmplx_mag_q15
 109:..\..\CMSIS_project\CMSIS_project.cydsn/SpectralFlux_q15.c ****     
 110:..\..\CMSIS_project\CMSIS_project.cydsn/SpectralFlux_q15.c **** //calculate the cfft of the testInput1 and take the absolute value   
 111:..\..\CMSIS_project\CMSIS_project.cydsn/SpectralFlux_q15.c ****     arm_cfft_q15(&arm_cfft_sR_q15_len1024, testInput1, 0, 1); 
 102              		.loc 1 111 0
 103 0094 07F11803 		add	r3, r7, #24
 104 0098 103B     		subs	r3, r3, #16
 105 009a 5B48     		ldr	r0, .L5
 106 009c 1968     		ldr	r1, [r3]
 107 009e 0022     		movs	r2, #0
 108 00a0 0123     		movs	r3, #1
 109 00a2 FFF7FEFF 		bl	arm_cfft_q15
 112:..\..\CMSIS_project\CMSIS_project.cydsn/SpectralFlux_q15.c ****     arm_cmplx_mag_q15(testInput1, testOutput1, 1024); 
 110              		.loc 1 112 0
 111 00a6 07F11803 		add	r3, r7, #24
 112 00aa 103B     		subs	r3, r3, #16
 113 00ac 07F62802 		addw	r2, r7, #2088
 114 00b0 1868     		ldr	r0, [r3]
 115 00b2 1146     		mov	r1, r2
 116 00b4 4FF48062 		mov	r2, #1024
ARM GAS  C:\Users\SCOTTC~1\AppData\Local\Temp\ccczbWf8.s 			page 5


 117 00b8 FFF7FEFF 		bl	arm_cmplx_mag_q15
 113:..\..\CMSIS_project\CMSIS_project.cydsn/SpectralFlux_q15.c ****     
 114:..\..\CMSIS_project\CMSIS_project.cydsn/SpectralFlux_q15.c **** /**************************************************************************************************
 115:..\..\CMSIS_project\CMSIS_project.cydsn/SpectralFlux_q15.c **** *    Create the Matrix initialization structs.                                                     
 116:..\..\CMSIS_project\CMSIS_project.cydsn/SpectralFlux_q15.c **** *    Setting up and using the matrix functions are almost identical to using the cfft functions.   
 117:..\..\CMSIS_project\CMSIS_project.cydsn/SpectralFlux_q15.c **** *    The main difference is the CMSIS library does not have any pre-defined structs in it's ARM_CON
 118:..\..\CMSIS_project\CMSIS_project.cydsn/SpectralFlux_q15.c **** *    file for the matrix functions, this means we will be following the second path as definied abo
 119:..\..\CMSIS_project\CMSIS_project.cydsn/SpectralFlux_q15.c **** *    functions.                                                                                    
 120:..\..\CMSIS_project\CMSIS_project.cydsn/SpectralFlux_q15.c **** *    They are not predefined because rather than defining initilization structs that only contain i
 121:..\..\CMSIS_project\CMSIS_project.cydsn/SpectralFlux_q15.c **** *    what type of operation to perform, the matrix initilization structs contain the actual matrix 
 122:..\..\CMSIS_project\CMSIS_project.cydsn/SpectralFlux_q15.c **** *    the data will be accessed slightly differently. We will be using the arm_mat_init_q15 function
 123:..\..\CMSIS_project\CMSIS_project.cydsn/SpectralFlux_q15.c **** *    to create the initialization structs that are used in the arm_mat_sub_q15 found in ARM_MAT_SUB
 124:..\..\CMSIS_project\CMSIS_project.cydsn/SpectralFlux_q15.c **** *                                                                                                  
 125:..\..\CMSIS_project\CMSIS_project.cydsn/SpectralFlux_q15.c **** *   NOTE:                                                                                          
 126:..\..\CMSIS_project\CMSIS_project.cydsn/SpectralFlux_q15.c **** *   Since we are using the arm_mat_sub_q15 function and it requires const we must manually initiali
 127:..\..\CMSIS_project\CMSIS_project.cydsn/SpectralFlux_q15.c **** *   This method is breifly talked about below and is gone into some detail in the ARM_MATH.h file. 
 128:..\..\CMSIS_project\CMSIS_project.cydsn/SpectralFlux_q15.c **** ***************************************************************************************************
 129:..\..\CMSIS_project\CMSIS_project.cydsn/SpectralFlux_q15.c **** * @brief Q15 matrix subtraction.                                                                   
 130:..\..\CMSIS_project\CMSIS_project.cydsn/SpectralFlux_q15.c **** * @param[in]       const arm_matrix_instance_q15    *pSrcA points to the first input matrix structu
 131:..\..\CMSIS_project\CMSIS_project.cydsn/SpectralFlux_q15.c **** * @param[in]       const arm_matrix_instance_q15    *pSrcB points to the second input matrix struct
 132:..\..\CMSIS_project\CMSIS_project.cydsn/SpectralFlux_q15.c **** * @param[out]      arm_matrix_instance_q15          *pDst points to output matrix structure        
 133:..\..\CMSIS_project\CMSIS_project.cydsn/SpectralFlux_q15.c **** * @return     	   The function returns either      ARM_MATH_SIZE_MISMATCH or ARM_MATH_SUCCESS based
 134:..\..\CMSIS_project\CMSIS_project.cydsn/SpectralFlux_q15.c **** *                                                                                                  
 135:..\..\CMSIS_project\CMSIS_project.cydsn/SpectralFlux_q15.c **** * Scaling and Overflow Behavior:                                                                   
 136:..\..\CMSIS_project\CMSIS_project.cydsn/SpectralFlux_q15.c **** * The function uses saturating arithmetic.                                                         
 137:..\..\CMSIS_project\CMSIS_project.cydsn/SpectralFlux_q15.c **** * Results outside of the allowable Q15 range [0x8000 0x7FFF] will be saturated.                    
 138:..\..\CMSIS_project\CMSIS_project.cydsn/SpectralFlux_q15.c **** ***************************************************************************************************
 139:..\..\CMSIS_project\CMSIS_project.cydsn/SpectralFlux_q15.c **** * @brief  Q15 matrix initialization.                                                               
 140:..\..\CMSIS_project\CMSIS_project.cydsn/SpectralFlux_q15.c **** * @param[in,out] arm_matrix_instance_q15    *S             points to an instance of the floating-po
 141:..\..\CMSIS_project\CMSIS_project.cydsn/SpectralFlux_q15.c **** * @param[in]     uint16_t                   nRows          number of rows in the matrix.           
 142:..\..\CMSIS_project\CMSIS_project.cydsn/SpectralFlux_q15.c **** * @param[in]     uint16_t                   nColumns       number of columns in the matrix.        
 143:..\..\CMSIS_project\CMSIS_project.cydsn/SpectralFlux_q15.c **** * @param[in]     q15_t                      *pData	       points to the matrix data array.         
 144:..\..\CMSIS_project\CMSIS_project.cydsn/SpectralFlux_q15.c **** * @return        none                                                                              
 145:..\..\CMSIS_project\CMSIS_project.cydsn/SpectralFlux_q15.c **** *                                                                                                  
 146:..\..\CMSIS_project\CMSIS_project.cydsn/SpectralFlux_q15.c **** *                                                                                                  
 147:..\..\CMSIS_project\CMSIS_project.cydsn/SpectralFlux_q15.c **** *                                                                                                  
 148:..\..\CMSIS_project\CMSIS_project.cydsn/SpectralFlux_q15.c **** * to manually initialize the matrix struct use:                                                    
 149:..\..\CMSIS_project\CMSIS_project.cydsn/SpectralFlux_q15.c **** * arm_matrix_instance_q15 S = {nRows, nColumns, pData}                                             
 150:..\..\CMSIS_project\CMSIS_project.cydsn/SpectralFlux_q15.c **** *                                                                                                  
 151:..\..\CMSIS_project\CMSIS_project.cydsn/SpectralFlux_q15.c **** * below is the struct definition:                                                                  
 152:..\..\CMSIS_project\CMSIS_project.cydsn/SpectralFlux_q15.c **** *      typedef struct                                                                              
 153:..\..\CMSIS_project\CMSIS_project.cydsn/SpectralFlux_q15.c **** *  {                                                                                               
 154:..\..\CMSIS_project\CMSIS_project.cydsn/SpectralFlux_q15.c **** *    uint16_t numRows;      number of rows of the matrix.                                          
 155:..\..\CMSIS_project\CMSIS_project.cydsn/SpectralFlux_q15.c **** *    uint16_t numCols;      number of columns of the matrix.                                       
 156:..\..\CMSIS_project\CMSIS_project.cydsn/SpectralFlux_q15.c **** *    q15_t *pData;          points to the data of the matrix.                                      
 157:..\..\CMSIS_project\CMSIS_project.cydsn/SpectralFlux_q15.c **** * } arm_matrix_instance_q15;                                                                       
 158:..\..\CMSIS_project\CMSIS_project.cydsn/SpectralFlux_q15.c **** ***************************************************************************************************
 159:..\..\CMSIS_project\CMSIS_project.cydsn/SpectralFlux_q15.c ****  
 160:..\..\CMSIS_project\CMSIS_project.cydsn/SpectralFlux_q15.c **** /****************************************************************
 161:..\..\CMSIS_project\CMSIS_project.cydsn/SpectralFlux_q15.c **** *   Define the number of rows and columns for matrix operations *
 162:..\..\CMSIS_project\CMSIS_project.cydsn/SpectralFlux_q15.c **** *   Since matrices are 1D arrays there is only one row          *
 163:..\..\CMSIS_project\CMSIS_project.cydsn/SpectralFlux_q15.c **** ****************************************************************/  
 164:..\..\CMSIS_project\CMSIS_project.cydsn/SpectralFlux_q15.c ****     srcRows = 1;
 118              		.loc 1 164 0
 119 00bc 0123     		movs	r3, #1
 120 00be 07F58152 		add	r2, r7, #4128
 121 00c2 02F10C02 		add	r2, r2, #12
ARM GAS  C:\Users\SCOTTC~1\AppData\Local\Temp\ccczbWf8.s 			page 6


 122 00c6 1360     		str	r3, [r2]
 165:..\..\CMSIS_project\CMSIS_project.cydsn/SpectralFlux_q15.c ****     srcColumns = TEST_LENGTH_SAMPLES/2;
 123              		.loc 1 165 0
 124 00c8 4FF40073 		mov	r3, #512
 125 00cc 07F58152 		add	r2, r7, #4128
 126 00d0 02F10802 		add	r2, r2, #8
 127 00d4 1360     		str	r3, [r2]
 166:..\..\CMSIS_project\CMSIS_project.cydsn/SpectralFlux_q15.c ****     q15_t Difference[TEST_LENGTH_SAMPLES];
 167:..\..\CMSIS_project\CMSIS_project.cydsn/SpectralFlux_q15.c **** 
 168:..\..\CMSIS_project\CMSIS_project.cydsn/SpectralFlux_q15.c **** //create the matrix structs    
 169:..\..\CMSIS_project\CMSIS_project.cydsn/SpectralFlux_q15.c ****     arm_matrix_instance_q15 DiffMatrix = {srcRows, srcColumns, Difference};
 128              		.loc 1 169 0
 129 00d6 07F58152 		add	r2, r7, #4128
 130 00da 02F10C02 		add	r2, r2, #12
 131 00de 1368     		ldr	r3, [r2]
 132 00e0 9AB2     		uxth	r2, r3
 133 00e2 07F13803 		add	r3, r7, #56
 134 00e6 183B     		subs	r3, r3, #24
 135 00e8 1A80     		strh	r2, [r3]	@ movhi
 136 00ea 07F58152 		add	r2, r7, #4128
 137 00ee 02F10802 		add	r2, r2, #8
 138 00f2 1368     		ldr	r3, [r2]
 139 00f4 9AB2     		uxth	r2, r3
 140 00f6 07F13803 		add	r3, r7, #56
 141 00fa 183B     		subs	r3, r3, #24
 142 00fc 5A80     		strh	r2, [r3, #2]	@ movhi
 143 00fe 07F13803 		add	r3, r7, #56
 144 0102 183B     		subs	r3, r3, #24
 145 0104 07F13802 		add	r2, r7, #56
 146 0108 103A     		subs	r2, r2, #16
 147 010a 5A60     		str	r2, [r3, #4]
 170:..\..\CMSIS_project\CMSIS_project.cydsn/SpectralFlux_q15.c ****     arm_matrix_instance_q15 fftmatrix0 = {srcRows, srcColumns, testOutput0};
 148              		.loc 1 170 0
 149 010c 07F58152 		add	r2, r7, #4128
 150 0110 02F10C02 		add	r2, r2, #12
 151 0114 1368     		ldr	r3, [r2]
 152 0116 9AB2     		uxth	r2, r3
 153 0118 07F11803 		add	r3, r7, #24
 154 011c 1A80     		strh	r2, [r3]	@ movhi
 155 011e 07F58152 		add	r2, r7, #4128
 156 0122 02F10802 		add	r2, r2, #8
 157 0126 1368     		ldr	r3, [r2]
 158 0128 9AB2     		uxth	r2, r3
 159 012a 07F11803 		add	r3, r7, #24
 160 012e 5A80     		strh	r2, [r3, #2]	@ movhi
 161 0130 07F11803 		add	r3, r7, #24
 162 0134 07F62842 		addw	r2, r7, #3112
 163 0138 5A60     		str	r2, [r3, #4]
 171:..\..\CMSIS_project\CMSIS_project.cydsn/SpectralFlux_q15.c ****     arm_matrix_instance_q15 fftmatrix1 = {srcRows, srcColumns, testOutput1};
 164              		.loc 1 171 0
 165 013a 07F58152 		add	r2, r7, #4128
 166 013e 02F10C02 		add	r2, r2, #12
 167 0142 1368     		ldr	r3, [r2]
 168 0144 9AB2     		uxth	r2, r3
 169 0146 07F11803 		add	r3, r7, #24
 170 014a 083B     		subs	r3, r3, #8
 171 014c 1A80     		strh	r2, [r3]	@ movhi
ARM GAS  C:\Users\SCOTTC~1\AppData\Local\Temp\ccczbWf8.s 			page 7


 172 014e 07F58152 		add	r2, r7, #4128
 173 0152 02F10802 		add	r2, r2, #8
 174 0156 1368     		ldr	r3, [r2]
 175 0158 9AB2     		uxth	r2, r3
 176 015a 07F11803 		add	r3, r7, #24
 177 015e 083B     		subs	r3, r3, #8
 178 0160 5A80     		strh	r2, [r3, #2]	@ movhi
 179 0162 07F11803 		add	r3, r7, #24
 180 0166 083B     		subs	r3, r3, #8
 181 0168 07F62802 		addw	r2, r7, #2088
 182 016c 5A60     		str	r2, [r3, #4]
 172:..\..\CMSIS_project\CMSIS_project.cydsn/SpectralFlux_q15.c ****  
 173:..\..\CMSIS_project\CMSIS_project.cydsn/SpectralFlux_q15.c ****     
 174:..\..\CMSIS_project\CMSIS_project.cydsn/SpectralFlux_q15.c **** 
 175:..\..\CMSIS_project\CMSIS_project.cydsn/SpectralFlux_q15.c ****     
 176:..\..\CMSIS_project\CMSIS_project.cydsn/SpectralFlux_q15.c **** //perform the matrix subtraction 
 177:..\..\CMSIS_project\CMSIS_project.cydsn/SpectralFlux_q15.c ****     arm_mat_sub_q15(&fftmatrix1,&fftmatrix0,&DiffMatrix); 
 183              		.loc 1 177 0
 184 016e 07F11802 		add	r2, r7, #24
 185 0172 083A     		subs	r2, r2, #8
 186 0174 07F11801 		add	r1, r7, #24
 187 0178 07F13803 		add	r3, r7, #56
 188 017c 183B     		subs	r3, r3, #24
 189 017e 1046     		mov	r0, r2
 190 0180 1A46     		mov	r2, r3
 191 0182 FFF7FEFF 		bl	arm_mat_sub_q15
 178:..\..\CMSIS_project\CMSIS_project.cydsn/SpectralFlux_q15.c ****      
 179:..\..\CMSIS_project\CMSIS_project.cydsn/SpectralFlux_q15.c **** // for the sake of being literal, create a pointer directly to the matrix data
 180:..\..\CMSIS_project\CMSIS_project.cydsn/SpectralFlux_q15.c ****     *Difference= *DiffMatrix.pData;
 192              		.loc 1 180 0
 193 0186 07F13803 		add	r3, r7, #56
 194 018a 183B     		subs	r3, r3, #24
 195 018c 5B68     		ldr	r3, [r3, #4]
 196 018e 1A88     		ldrh	r2, [r3]
 197 0190 07F13803 		add	r3, r7, #56
 198 0194 103B     		subs	r3, r3, #16
 199 0196 1A80     		strh	r2, [r3]	@ movhi
 181:..\..\CMSIS_project\CMSIS_project.cydsn/SpectralFlux_q15.c ****     
 182:..\..\CMSIS_project\CMSIS_project.cydsn/SpectralFlux_q15.c **** //sum up all the differences 
 183:..\..\CMSIS_project\CMSIS_project.cydsn/SpectralFlux_q15.c **** 	for(i=0; i< TEST_LENGTH_SAMPLES/2; i++)
 200              		.loc 1 183 0
 201 0198 0023     		movs	r3, #0
 202 019a 07F58152 		add	r2, r7, #4128
 203 019e 02F11602 		add	r2, r2, #22
 204 01a2 1380     		strh	r3, [r2]	@ movhi
 205 01a4 1FE0     		b	.L2
 206              	.L3:
 184:..\..\CMSIS_project\CMSIS_project.cydsn/SpectralFlux_q15.c ****   	  {
 185:..\..\CMSIS_project\CMSIS_project.cydsn/SpectralFlux_q15.c ****    	     arm_add_q15(SpectralFlux, &Difference[i], SpectralFlux, 1);
 207              		.loc 1 185 0 discriminator 2
 208 01a6 07F58153 		add	r3, r7, #4128
 209 01aa 03F11603 		add	r3, r3, #22
 210 01ae 1A88     		ldrh	r2, [r3]
 211 01b0 07F13803 		add	r3, r7, #56
 212 01b4 103B     		subs	r3, r3, #16
 213 01b6 5200     		lsls	r2, r2, #1
 214 01b8 9918     		adds	r1, r3, r2
ARM GAS  C:\Users\SCOTTC~1\AppData\Local\Temp\ccczbWf8.s 			page 8


 215 01ba 07F11802 		add	r2, r7, #24
 216 01be 143A     		subs	r2, r2, #20
 217 01c0 07F11803 		add	r3, r7, #24
 218 01c4 143B     		subs	r3, r3, #20
 219 01c6 1068     		ldr	r0, [r2]
 220 01c8 1A68     		ldr	r2, [r3]
 221 01ca 0123     		movs	r3, #1
 222 01cc FFF7FEFF 		bl	arm_add_q15
 183:..\..\CMSIS_project\CMSIS_project.cydsn/SpectralFlux_q15.c **** 	for(i=0; i< TEST_LENGTH_SAMPLES/2; i++)
 223              		.loc 1 183 0 discriminator 2
 224 01d0 07F58152 		add	r2, r7, #4128
 225 01d4 02F11602 		add	r2, r2, #22
 226 01d8 1388     		ldrh	r3, [r2]
 227 01da 0133     		adds	r3, r3, #1
 228 01dc 07F58152 		add	r2, r7, #4128
 229 01e0 02F11602 		add	r2, r2, #22
 230 01e4 1380     		strh	r3, [r2]	@ movhi
 231              	.L2:
 183:..\..\CMSIS_project\CMSIS_project.cydsn/SpectralFlux_q15.c **** 	for(i=0; i< TEST_LENGTH_SAMPLES/2; i++)
 232              		.loc 1 183 0 is_stmt 0 discriminator 1
 233 01e6 07F58152 		add	r2, r7, #4128
 234 01ea 02F11602 		add	r2, r2, #22
 235 01ee 1388     		ldrh	r3, [r2]
 236 01f0 B3F5007F 		cmp	r3, #512
 237 01f4 D7D3     		bcc	.L3
 186:..\..\CMSIS_project\CMSIS_project.cydsn/SpectralFlux_q15.c **** 	  }	          
 187:..\..\CMSIS_project\CMSIS_project.cydsn/SpectralFlux_q15.c ****     return 0;
 238              		.loc 1 187 0 is_stmt 1
 239 01f6 0023     		movs	r3, #0
 240 01f8 5BB2     		sxtb	r3, r3
 188:..\..\CMSIS_project\CMSIS_project.cydsn/SpectralFlux_q15.c **** }
 241              		.loc 1 188 0
 242 01fa 1846     		mov	r0, r3
 243 01fc 07F58157 		add	r7, r7, #4128
 244 0200 1837     		adds	r7, r7, #24
 245 0202 BD46     		mov	sp, r7
 246              		@ sp needed
 247 0204 80BD     		pop	{r7, pc}
 248              	.L6:
 249 0206 00BF     		.align	2
 250              	.L5:
 251 0208 00000000 		.word	arm_cfft_sR_q15_len1024
 252              		.cfi_endproc
 253              	.LFE118:
 254              		.size	SpectralFlux_q15, .-SpectralFlux_q15
 255              		.text
 256              	.Letext0:
 257              		.file 2 "c:\\program files\\cypress\\psoc creator\\3.1\\psoc creator\\import\\gnu_cs\\arm\\4.8.4\\
 258              		.file 3 "c:\\program files\\cypress\\psoc creator\\3.1\\psoc creator\\import\\gnu_cs\\arm\\4.8.4\\
 259              		.file 4 ".\\Generated_Source\\PSoC5/cytypes.h"
 260              		.file 5 "..\\..\\CMSIS_project\\CMSIS_project.cydsn\\CMSISfile\\CMSIS\\Include/arm_math.h"
 261              		.file 6 "..\\..\\CMSIS_project\\CMSIS_project.cydsn\\CMSISfile\\CMSIS\\Include/core_cm3.h"
 262              		.file 7 "..\\..\\CMSIS_project\\CMSIS_project.cydsn\\CMSISfile\\CMSIS\\Include/arm_const_structs.h
 263              		.file 8 "./InterruptRoutines.h"