ARM GAS  C:\Users\SCOTTC~1\AppData\Local\Temp\cc1fObWL.s 			page 1


   1              		.syntax unified
   2              		.cpu cortex-m3
   3              		.fpu softvfp
   4              		.eabi_attribute 20, 1
   5              		.eabi_attribute 21, 1
   6              		.eabi_attribute 23, 3
   7              		.eabi_attribute 24, 1
   8              		.eabi_attribute 25, 1
   9              		.eabi_attribute 26, 1
  10              		.eabi_attribute 30, 6
  11              		.eabi_attribute 34, 1
  12              		.eabi_attribute 18, 4
  13              		.thumb
  14              		.file	"cyfitter_cfg.c"
  15              		.text
  16              	.Ltext0:
  17              		.cfi_sections	.debug_frame
  18              		.section	.text.CYMEMZERO,"ax",%progbits
  19              		.align	2
  20              		.thumb
  21              		.thumb_func
  22              		.type	CYMEMZERO, %function
  23              	CYMEMZERO:
  24              	.LFB0:
  25              		.file 1 ".\\Generated_Source\\PSoC5\\cyfitter_cfg.c"
   1:.\Generated_Source\PSoC5/cyfitter_cfg.c **** /*******************************************************************************
   2:.\Generated_Source\PSoC5/cyfitter_cfg.c **** * FILENAME: cyfitter_cfg.c
   3:.\Generated_Source\PSoC5/cyfitter_cfg.c **** * 
   4:.\Generated_Source\PSoC5/cyfitter_cfg.c **** * PSoC Creator  3.2 SP1
   5:.\Generated_Source\PSoC5/cyfitter_cfg.c **** *
   6:.\Generated_Source\PSoC5/cyfitter_cfg.c **** * DESCRIPTION:
   7:.\Generated_Source\PSoC5/cyfitter_cfg.c **** * This file contains device initialization code.
   8:.\Generated_Source\PSoC5/cyfitter_cfg.c **** * Except for the user defined sections in CyClockStartupError(), this file should not be modified.
   9:.\Generated_Source\PSoC5/cyfitter_cfg.c **** * This file is automatically generated by PSoC Creator.
  10:.\Generated_Source\PSoC5/cyfitter_cfg.c **** *
  11:.\Generated_Source\PSoC5/cyfitter_cfg.c **** ********************************************************************************
  12:.\Generated_Source\PSoC5/cyfitter_cfg.c **** * Copyright (c) 2007-2015 Cypress Semiconductor.  All rights reserved.
  13:.\Generated_Source\PSoC5/cyfitter_cfg.c **** * You may use this file only in accordance with the license, terms, conditions, 
  14:.\Generated_Source\PSoC5/cyfitter_cfg.c **** * disclaimers, and limitations in the end user license agreement accompanying 
  15:.\Generated_Source\PSoC5/cyfitter_cfg.c **** * the software package with which this file was provided.
  16:.\Generated_Source\PSoC5/cyfitter_cfg.c **** ********************************************************************************/
  17:.\Generated_Source\PSoC5/cyfitter_cfg.c **** 
  18:.\Generated_Source\PSoC5/cyfitter_cfg.c **** #include <string.h>
  19:.\Generated_Source\PSoC5/cyfitter_cfg.c **** #include "cytypes.h"
  20:.\Generated_Source\PSoC5/cyfitter_cfg.c **** #include "cydevice_trm.h"
  21:.\Generated_Source\PSoC5/cyfitter_cfg.c **** #include "cyfitter.h"
  22:.\Generated_Source\PSoC5/cyfitter_cfg.c **** #include "CyLib.h"
  23:.\Generated_Source\PSoC5/cyfitter_cfg.c **** #include "cyfitter_cfg.h"
  24:.\Generated_Source\PSoC5/cyfitter_cfg.c **** 
  25:.\Generated_Source\PSoC5/cyfitter_cfg.c **** #define CY_NEED_CYCLOCKSTARTUPERROR 1
  26:.\Generated_Source\PSoC5/cyfitter_cfg.c **** 
  27:.\Generated_Source\PSoC5/cyfitter_cfg.c **** 
  28:.\Generated_Source\PSoC5/cyfitter_cfg.c **** #if defined(__GNUC__) || defined(__ARMCC_VERSION)
  29:.\Generated_Source\PSoC5/cyfitter_cfg.c ****     #define CYPACKED 
  30:.\Generated_Source\PSoC5/cyfitter_cfg.c ****     #define CYPACKED_ATTR __attribute__ ((packed))
  31:.\Generated_Source\PSoC5/cyfitter_cfg.c ****     #define CYALIGNED __attribute__ ((aligned))
  32:.\Generated_Source\PSoC5/cyfitter_cfg.c ****     #define CY_CFG_UNUSED __attribute__ ((unused))
ARM GAS  C:\Users\SCOTTC~1\AppData\Local\Temp\cc1fObWL.s 			page 2


  33:.\Generated_Source\PSoC5/cyfitter_cfg.c ****     #define CY_CFG_SECTION __attribute__ ((section(".psocinit")))
  34:.\Generated_Source\PSoC5/cyfitter_cfg.c ****     
  35:.\Generated_Source\PSoC5/cyfitter_cfg.c ****     #if CYDEV_CONFIGURATION_DMA
  36:.\Generated_Source\PSoC5/cyfitter_cfg.c ****         #if (defined(__ARMCC_VERSION) || defined(__GNUC__))
  37:.\Generated_Source\PSoC5/cyfitter_cfg.c ****             #define DMAINITSEC __attribute__ ((section(".dma_init")))
  38:.\Generated_Source\PSoC5/cyfitter_cfg.c ****         #elif defined(__ICCARM__)
  39:.\Generated_Source\PSoC5/cyfitter_cfg.c ****             #define DMAINITSEC _Pragma("location=\".dma_init\"")
  40:.\Generated_Source\PSoC5/cyfitter_cfg.c ****         #endif
  41:.\Generated_Source\PSoC5/cyfitter_cfg.c ****     #else
  42:.\Generated_Source\PSoC5/cyfitter_cfg.c ****         #define DMAINITSEC
  43:.\Generated_Source\PSoC5/cyfitter_cfg.c ****     #endif
  44:.\Generated_Source\PSoC5/cyfitter_cfg.c **** 
  45:.\Generated_Source\PSoC5/cyfitter_cfg.c ****     #if defined(__ARMCC_VERSION)
  46:.\Generated_Source\PSoC5/cyfitter_cfg.c ****         #define CY_CFG_MEMORY_BARRIER() __memory_changed()
  47:.\Generated_Source\PSoC5/cyfitter_cfg.c ****     #else
  48:.\Generated_Source\PSoC5/cyfitter_cfg.c ****         #define CY_CFG_MEMORY_BARRIER() __sync_synchronize()
  49:.\Generated_Source\PSoC5/cyfitter_cfg.c ****     #endif
  50:.\Generated_Source\PSoC5/cyfitter_cfg.c ****     
  51:.\Generated_Source\PSoC5/cyfitter_cfg.c **** #elif defined(__ICCARM__)
  52:.\Generated_Source\PSoC5/cyfitter_cfg.c ****     #include <intrinsics.h>
  53:.\Generated_Source\PSoC5/cyfitter_cfg.c **** 
  54:.\Generated_Source\PSoC5/cyfitter_cfg.c ****     #define CYPACKED __packed
  55:.\Generated_Source\PSoC5/cyfitter_cfg.c ****     #define CYPACKED_ATTR 
  56:.\Generated_Source\PSoC5/cyfitter_cfg.c ****     #define CYALIGNED _Pragma("data_alignment=4")
  57:.\Generated_Source\PSoC5/cyfitter_cfg.c ****     #define CY_CFG_UNUSED _Pragma("diag_suppress=Pe177")
  58:.\Generated_Source\PSoC5/cyfitter_cfg.c ****     #define CY_CFG_SECTION _Pragma("location=\".psocinit\"")
  59:.\Generated_Source\PSoC5/cyfitter_cfg.c ****     
  60:.\Generated_Source\PSoC5/cyfitter_cfg.c ****     #if CYDEV_CONFIGURATION_DMA
  61:.\Generated_Source\PSoC5/cyfitter_cfg.c ****         #if (defined(__ARMCC_VERSION) || defined(__GNUC__))
  62:.\Generated_Source\PSoC5/cyfitter_cfg.c ****             #define DMAINITSEC __attribute__ ((section(".dma_init")))
  63:.\Generated_Source\PSoC5/cyfitter_cfg.c ****         #elif defined(__ICCARM__)
  64:.\Generated_Source\PSoC5/cyfitter_cfg.c ****             #define DMAINITSEC _Pragma("location=\".dma_init\"")
  65:.\Generated_Source\PSoC5/cyfitter_cfg.c ****         #endif
  66:.\Generated_Source\PSoC5/cyfitter_cfg.c ****     #else
  67:.\Generated_Source\PSoC5/cyfitter_cfg.c ****         #define DMAINITSEC
  68:.\Generated_Source\PSoC5/cyfitter_cfg.c ****     #endif
  69:.\Generated_Source\PSoC5/cyfitter_cfg.c **** 
  70:.\Generated_Source\PSoC5/cyfitter_cfg.c ****     #define CY_CFG_MEMORY_BARRIER() __DMB()
  71:.\Generated_Source\PSoC5/cyfitter_cfg.c ****     
  72:.\Generated_Source\PSoC5/cyfitter_cfg.c **** #else
  73:.\Generated_Source\PSoC5/cyfitter_cfg.c ****     #error Unsupported toolchain
  74:.\Generated_Source\PSoC5/cyfitter_cfg.c **** #endif
  75:.\Generated_Source\PSoC5/cyfitter_cfg.c **** 
  76:.\Generated_Source\PSoC5/cyfitter_cfg.c **** 
  77:.\Generated_Source\PSoC5/cyfitter_cfg.c **** CY_CFG_UNUSED
  78:.\Generated_Source\PSoC5/cyfitter_cfg.c **** static void CYMEMZERO(void *s, size_t n);
  79:.\Generated_Source\PSoC5/cyfitter_cfg.c **** CY_CFG_UNUSED
  80:.\Generated_Source\PSoC5/cyfitter_cfg.c **** static void CYMEMZERO(void *s, size_t n)
  81:.\Generated_Source\PSoC5/cyfitter_cfg.c **** {
  26              		.loc 1 81 0
  27              		.cfi_startproc
  28              		@ args = 0, pretend = 0, frame = 8
  29              		@ frame_needed = 1, uses_anonymous_args = 0
  30 0000 80B5     		push	{r7, lr}
  31              		.cfi_def_cfa_offset 8
  32              		.cfi_offset 7, -8
  33              		.cfi_offset 14, -4
ARM GAS  C:\Users\SCOTTC~1\AppData\Local\Temp\cc1fObWL.s 			page 3


  34 0002 82B0     		sub	sp, sp, #8
  35              		.cfi_def_cfa_offset 16
  36 0004 00AF     		add	r7, sp, #0
  37              		.cfi_def_cfa_register 7
  38 0006 7860     		str	r0, [r7, #4]
  39 0008 3960     		str	r1, [r7]
  82:.\Generated_Source\PSoC5/cyfitter_cfg.c **** 	(void)memset(s, 0, n);
  40              		.loc 1 82 0
  41 000a 7868     		ldr	r0, [r7, #4]
  42 000c 0021     		movs	r1, #0
  43 000e 3A68     		ldr	r2, [r7]
  44 0010 FFF7FEFF 		bl	memset
  83:.\Generated_Source\PSoC5/cyfitter_cfg.c **** }
  45              		.loc 1 83 0
  46 0014 0837     		adds	r7, r7, #8
  47 0016 BD46     		mov	sp, r7
  48              		@ sp needed
  49 0018 80BD     		pop	{r7, pc}
  50              		.cfi_endproc
  51              	.LFE0:
  52              		.size	CYMEMZERO, .-CYMEMZERO
  53 001a 00BF     		.section	.text.CYCONFIGCPY,"ax",%progbits
  54              		.align	2
  55              		.thumb
  56              		.thumb_func
  57              		.type	CYCONFIGCPY, %function
  58              	CYCONFIGCPY:
  59              	.LFB1:
  84:.\Generated_Source\PSoC5/cyfitter_cfg.c **** CY_CFG_UNUSED
  85:.\Generated_Source\PSoC5/cyfitter_cfg.c **** static void CYCONFIGCPY(void *dest, const void *src, size_t n);
  86:.\Generated_Source\PSoC5/cyfitter_cfg.c **** CY_CFG_UNUSED
  87:.\Generated_Source\PSoC5/cyfitter_cfg.c **** static void CYCONFIGCPY(void *dest, const void *src, size_t n)
  88:.\Generated_Source\PSoC5/cyfitter_cfg.c **** {
  60              		.loc 1 88 0
  61              		.cfi_startproc
  62              		@ args = 0, pretend = 0, frame = 16
  63              		@ frame_needed = 1, uses_anonymous_args = 0
  64 0000 80B5     		push	{r7, lr}
  65              		.cfi_def_cfa_offset 8
  66              		.cfi_offset 7, -8
  67              		.cfi_offset 14, -4
  68 0002 84B0     		sub	sp, sp, #16
  69              		.cfi_def_cfa_offset 24
  70 0004 00AF     		add	r7, sp, #0
  71              		.cfi_def_cfa_register 7
  72 0006 F860     		str	r0, [r7, #12]
  73 0008 B960     		str	r1, [r7, #8]
  74 000a 7A60     		str	r2, [r7, #4]
  89:.\Generated_Source\PSoC5/cyfitter_cfg.c **** 	(void)memcpy(dest, src, n);
  75              		.loc 1 89 0
  76 000c F868     		ldr	r0, [r7, #12]
  77 000e B968     		ldr	r1, [r7, #8]
  78 0010 7A68     		ldr	r2, [r7, #4]
  79 0012 FFF7FEFF 		bl	memcpy
  90:.\Generated_Source\PSoC5/cyfitter_cfg.c **** }
  80              		.loc 1 90 0
  81 0016 1037     		adds	r7, r7, #16
ARM GAS  C:\Users\SCOTTC~1\AppData\Local\Temp\cc1fObWL.s 			page 4


  82 0018 BD46     		mov	sp, r7
  83              		@ sp needed
  84 001a 80BD     		pop	{r7, pc}
  85              		.cfi_endproc
  86              	.LFE1:
  87              		.size	CYCONFIGCPY, .-CYCONFIGCPY
  88              		.section	.text.CYCONFIGCPYCODE,"ax",%progbits
  89              		.align	2
  90              		.thumb
  91              		.thumb_func
  92              		.type	CYCONFIGCPYCODE, %function
  93              	CYCONFIGCPYCODE:
  94              	.LFB2:
  91:.\Generated_Source\PSoC5/cyfitter_cfg.c **** CY_CFG_UNUSED
  92:.\Generated_Source\PSoC5/cyfitter_cfg.c **** static void CYCONFIGCPYCODE(void *dest, const void *src, size_t n);
  93:.\Generated_Source\PSoC5/cyfitter_cfg.c **** CY_CFG_UNUSED
  94:.\Generated_Source\PSoC5/cyfitter_cfg.c **** static void CYCONFIGCPYCODE(void *dest, const void *src, size_t n)
  95:.\Generated_Source\PSoC5/cyfitter_cfg.c **** {
  95              		.loc 1 95 0
  96              		.cfi_startproc
  97              		@ args = 0, pretend = 0, frame = 16
  98              		@ frame_needed = 1, uses_anonymous_args = 0
  99 0000 80B5     		push	{r7, lr}
 100              		.cfi_def_cfa_offset 8
 101              		.cfi_offset 7, -8
 102              		.cfi_offset 14, -4
 103 0002 84B0     		sub	sp, sp, #16
 104              		.cfi_def_cfa_offset 24
 105 0004 00AF     		add	r7, sp, #0
 106              		.cfi_def_cfa_register 7
 107 0006 F860     		str	r0, [r7, #12]
 108 0008 B960     		str	r1, [r7, #8]
 109 000a 7A60     		str	r2, [r7, #4]
  96:.\Generated_Source\PSoC5/cyfitter_cfg.c **** 	(void)memcpy(dest, src, n);
 110              		.loc 1 96 0
 111 000c F868     		ldr	r0, [r7, #12]
 112 000e B968     		ldr	r1, [r7, #8]
 113 0010 7A68     		ldr	r2, [r7, #4]
 114 0012 FFF7FEFF 		bl	memcpy
  97:.\Generated_Source\PSoC5/cyfitter_cfg.c **** }
 115              		.loc 1 97 0
 116 0016 1037     		adds	r7, r7, #16
 117 0018 BD46     		mov	sp, r7
 118              		@ sp needed
 119 001a 80BD     		pop	{r7, pc}
 120              		.cfi_endproc
 121              	.LFE2:
 122              		.size	CYCONFIGCPYCODE, .-CYCONFIGCPYCODE
 123              		.section	.text.CyClockStartupError,"ax",%progbits
 124              		.align	2
 125              		.thumb
 126              		.thumb_func
 127              		.type	CyClockStartupError, %function
 128              	CyClockStartupError:
 129              	.LFB3:
  98:.\Generated_Source\PSoC5/cyfitter_cfg.c **** 
  99:.\Generated_Source\PSoC5/cyfitter_cfg.c **** 
ARM GAS  C:\Users\SCOTTC~1\AppData\Local\Temp\cc1fObWL.s 			page 5


 100:.\Generated_Source\PSoC5/cyfitter_cfg.c **** 
 101:.\Generated_Source\PSoC5/cyfitter_cfg.c **** /* Clock startup error codes                                                   */
 102:.\Generated_Source\PSoC5/cyfitter_cfg.c **** #define CYCLOCKSTART_NO_ERROR    0u
 103:.\Generated_Source\PSoC5/cyfitter_cfg.c **** #define CYCLOCKSTART_XTAL_ERROR  1u
 104:.\Generated_Source\PSoC5/cyfitter_cfg.c **** #define CYCLOCKSTART_32KHZ_ERROR 2u
 105:.\Generated_Source\PSoC5/cyfitter_cfg.c **** #define CYCLOCKSTART_PLL_ERROR   3u
 106:.\Generated_Source\PSoC5/cyfitter_cfg.c **** 
 107:.\Generated_Source\PSoC5/cyfitter_cfg.c **** #ifdef CY_NEED_CYCLOCKSTARTUPERROR
 108:.\Generated_Source\PSoC5/cyfitter_cfg.c **** /*******************************************************************************
 109:.\Generated_Source\PSoC5/cyfitter_cfg.c **** * Function Name: CyClockStartupError
 110:.\Generated_Source\PSoC5/cyfitter_cfg.c **** ********************************************************************************
 111:.\Generated_Source\PSoC5/cyfitter_cfg.c **** * Summary:
 112:.\Generated_Source\PSoC5/cyfitter_cfg.c **** *  If an error is encountered during clock configuration (crystal startup error,
 113:.\Generated_Source\PSoC5/cyfitter_cfg.c **** *  PLL lock error, etc.), the system will end up here.  Unless reimplemented by
 114:.\Generated_Source\PSoC5/cyfitter_cfg.c **** *  the customer, this function will stop in an infinite loop.
 115:.\Generated_Source\PSoC5/cyfitter_cfg.c **** *
 116:.\Generated_Source\PSoC5/cyfitter_cfg.c **** * Parameters:
 117:.\Generated_Source\PSoC5/cyfitter_cfg.c **** *   void
 118:.\Generated_Source\PSoC5/cyfitter_cfg.c **** *
 119:.\Generated_Source\PSoC5/cyfitter_cfg.c **** * Return:
 120:.\Generated_Source\PSoC5/cyfitter_cfg.c **** *   void
 121:.\Generated_Source\PSoC5/cyfitter_cfg.c **** *
 122:.\Generated_Source\PSoC5/cyfitter_cfg.c **** *******************************************************************************/
 123:.\Generated_Source\PSoC5/cyfitter_cfg.c **** CY_CFG_UNUSED
 124:.\Generated_Source\PSoC5/cyfitter_cfg.c **** static void CyClockStartupError(uint8 errorCode);
 125:.\Generated_Source\PSoC5/cyfitter_cfg.c **** CY_CFG_UNUSED
 126:.\Generated_Source\PSoC5/cyfitter_cfg.c **** static void CyClockStartupError(uint8 errorCode)
 127:.\Generated_Source\PSoC5/cyfitter_cfg.c **** {
 130              		.loc 1 127 0
 131              		.cfi_startproc
 132              		@ args = 0, pretend = 0, frame = 8
 133              		@ frame_needed = 1, uses_anonymous_args = 0
 134              		@ link register save eliminated.
 135 0000 80B4     		push	{r7}
 136              		.cfi_def_cfa_offset 4
 137              		.cfi_offset 7, -4
 138 0002 83B0     		sub	sp, sp, #12
 139              		.cfi_def_cfa_offset 16
 140 0004 00AF     		add	r7, sp, #0
 141              		.cfi_def_cfa_register 7
 142 0006 0346     		mov	r3, r0
 143 0008 FB71     		strb	r3, [r7, #7]
 144              	.L5:
 128:.\Generated_Source\PSoC5/cyfitter_cfg.c ****     /* To remove the compiler warning if errorCode not used.                */
 129:.\Generated_Source\PSoC5/cyfitter_cfg.c ****     errorCode = errorCode;
 130:.\Generated_Source\PSoC5/cyfitter_cfg.c **** 
 131:.\Generated_Source\PSoC5/cyfitter_cfg.c ****     /* `#START CyClockStartupError` */
 132:.\Generated_Source\PSoC5/cyfitter_cfg.c **** 
 133:.\Generated_Source\PSoC5/cyfitter_cfg.c ****     /* If we have a clock startup error (bad MHz crystal, PLL lock, etc.),  */
 134:.\Generated_Source\PSoC5/cyfitter_cfg.c ****     /* we will end up here to allow the customer to implement something to  */
 135:.\Generated_Source\PSoC5/cyfitter_cfg.c ****     /* deal with the clock condition.                                       */
 136:.\Generated_Source\PSoC5/cyfitter_cfg.c **** 
 137:.\Generated_Source\PSoC5/cyfitter_cfg.c ****     /* `#END` */
 138:.\Generated_Source\PSoC5/cyfitter_cfg.c **** 
 139:.\Generated_Source\PSoC5/cyfitter_cfg.c ****     /* If nothing else, stop here since the clocks have not started         */
 140:.\Generated_Source\PSoC5/cyfitter_cfg.c ****     /* correctly.                                                           */
 141:.\Generated_Source\PSoC5/cyfitter_cfg.c ****     while(1) {}
ARM GAS  C:\Users\SCOTTC~1\AppData\Local\Temp\cc1fObWL.s 			page 6


 145              		.loc 1 141 0 discriminator 1
 146 000a FEE7     		b	.L5
 147              		.cfi_endproc
 148              	.LFE3:
 149              		.size	CyClockStartupError, .-CyClockStartupError
 150              		.section	.text.cfg_dma_init,"ax",%progbits
 151              		.align	2
 152              		.thumb
 153              		.thumb_func
 154              		.type	cfg_dma_init, %function
 155              	cfg_dma_init:
 156              	.LFB4:
 142:.\Generated_Source\PSoC5/cyfitter_cfg.c **** }
 143:.\Generated_Source\PSoC5/cyfitter_cfg.c **** #endif
 144:.\Generated_Source\PSoC5/cyfitter_cfg.c **** 
 145:.\Generated_Source\PSoC5/cyfitter_cfg.c **** /* IDMUX Address: CYREG_IDMUX_DRQ_CTL0 Size (bytes): 6 */
 146:.\Generated_Source\PSoC5/cyfitter_cfg.c **** #define BS_IDMUX_VAL ((const uint8 CYFAR *)0x48000000u)
 147:.\Generated_Source\PSoC5/cyfitter_cfg.c **** 
 148:.\Generated_Source\PSoC5/cyfitter_cfg.c **** /* UDB_0_3_1_CONFIG Address: CYDEV_UCFG_B0_P5_U1_BASE Size (bytes): 128 */
 149:.\Generated_Source\PSoC5/cyfitter_cfg.c **** #define BS_UDB_0_3_1_CONFIG_VAL ((const uint8 CYFAR *)0x48000008u)
 150:.\Generated_Source\PSoC5/cyfitter_cfg.c **** 
 151:.\Generated_Source\PSoC5/cyfitter_cfg.c **** /* DSI0_0_HV_ROUTING Address: CYDEV_UCFG_DSI13_BASE + 0x00000080u Size (bytes): 128 */
 152:.\Generated_Source\PSoC5/cyfitter_cfg.c **** #define BS_DSI0_0_HV_ROUTING_VAL ((const uint8 CYFAR *)0x48000088u)
 153:.\Generated_Source\PSoC5/cyfitter_cfg.c **** 
 154:.\Generated_Source\PSoC5/cyfitter_cfg.c **** /* DSI0_1_HV_ROUTING Address: CYDEV_UCFG_DSI12_BASE + 0x00000080u Size (bytes): 128 */
 155:.\Generated_Source\PSoC5/cyfitter_cfg.c **** #define BS_DSI0_1_HV_ROUTING_VAL ((const uint8 CYFAR *)0x48000108u)
 156:.\Generated_Source\PSoC5/cyfitter_cfg.c **** 
 157:.\Generated_Source\PSoC5/cyfitter_cfg.c **** /* DSI0_2_HV_ROUTING Address: CYDEV_UCFG_DSI7_BASE + 0x00000080u Size (bytes): 128 */
 158:.\Generated_Source\PSoC5/cyfitter_cfg.c **** #define BS_DSI0_2_HV_ROUTING_VAL ((const uint8 CYFAR *)0x48000188u)
 159:.\Generated_Source\PSoC5/cyfitter_cfg.c **** 
 160:.\Generated_Source\PSoC5/cyfitter_cfg.c **** /* DSISWITCH_0_3 Address: CYDEV_UCFG_DSI6_BASE Size (bytes): 128 */
 161:.\Generated_Source\PSoC5/cyfitter_cfg.c **** #define BS_DSISWITCH_0_3_VAL ((const uint8 CYFAR *)0x48000208u)
 162:.\Generated_Source\PSoC5/cyfitter_cfg.c **** 
 163:.\Generated_Source\PSoC5/cyfitter_cfg.c **** /* DSI0_3_HV_ROUTING Address: CYDEV_UCFG_DSI6_BASE + 0x00000080u Size (bytes): 128 */
 164:.\Generated_Source\PSoC5/cyfitter_cfg.c **** #define BS_DSI0_3_HV_ROUTING_VAL ((const uint8 CYFAR *)0x48000288u)
 165:.\Generated_Source\PSoC5/cyfitter_cfg.c **** 
 166:.\Generated_Source\PSoC5/cyfitter_cfg.c **** /* DSI0_4_HV_ROUTING Address: CYDEV_UCFG_DSI5_BASE + 0x00000080u Size (bytes): 128 */
 167:.\Generated_Source\PSoC5/cyfitter_cfg.c **** #define BS_DSI0_4_HV_ROUTING_VAL ((const uint8 CYFAR *)0x48000308u)
 168:.\Generated_Source\PSoC5/cyfitter_cfg.c **** 
 169:.\Generated_Source\PSoC5/cyfitter_cfg.c **** /* DSISWITCH_0_5 Address: CYDEV_UCFG_DSI4_BASE Size (bytes): 128 */
 170:.\Generated_Source\PSoC5/cyfitter_cfg.c **** #define BS_DSISWITCH_0_5_VAL ((const uint8 CYFAR *)0x48000388u)
 171:.\Generated_Source\PSoC5/cyfitter_cfg.c **** 
 172:.\Generated_Source\PSoC5/cyfitter_cfg.c **** /* DSI0_5_HV_ROUTING Address: CYDEV_UCFG_DSI4_BASE + 0x00000080u Size (bytes): 128 */
 173:.\Generated_Source\PSoC5/cyfitter_cfg.c **** #define BS_DSI0_5_HV_ROUTING_VAL ((const uint8 CYFAR *)0x48000408u)
 174:.\Generated_Source\PSoC5/cyfitter_cfg.c **** 
 175:.\Generated_Source\PSoC5/cyfitter_cfg.c **** /* UDB_1_0_HV_ROUTING Address: CYDEV_UCFG_B1_P5_ROUTE_BASE + 0x00000080u Size (bytes): 128 */
 176:.\Generated_Source\PSoC5/cyfitter_cfg.c **** #define BS_UDB_1_0_HV_ROUTING_VAL ((const uint8 CYFAR *)0x48000488u)
 177:.\Generated_Source\PSoC5/cyfitter_cfg.c **** 
 178:.\Generated_Source\PSoC5/cyfitter_cfg.c **** /* UDB_2_0_HV_ROUTING Address: CYDEV_UCFG_B1_P2_ROUTE_BASE + 0x00000080u Size (bytes): 128 */
 179:.\Generated_Source\PSoC5/cyfitter_cfg.c **** #define BS_UDB_2_0_HV_ROUTING_VAL ((const uint8 CYFAR *)0x48000508u)
 180:.\Generated_Source\PSoC5/cyfitter_cfg.c **** 
 181:.\Generated_Source\PSoC5/cyfitter_cfg.c **** /* UDB_1_2_HV_ROUTING Address: CYDEV_UCFG_B0_P4_ROUTE_BASE + 0x00000080u Size (bytes): 128 */
 182:.\Generated_Source\PSoC5/cyfitter_cfg.c **** #define BS_UDB_1_2_HV_ROUTING_VAL ((const uint8 CYFAR *)0x48000588u)
 183:.\Generated_Source\PSoC5/cyfitter_cfg.c **** 
 184:.\Generated_Source\PSoC5/cyfitter_cfg.c **** /* UDBSWITCH_0_3 Address: CYDEV_UCFG_B0_P5_ROUTE_BASE Size (bytes): 128 */
 185:.\Generated_Source\PSoC5/cyfitter_cfg.c **** #define BS_UDBSWITCH_0_3_VAL ((const uint8 CYFAR *)0x48000608u)
 186:.\Generated_Source\PSoC5/cyfitter_cfg.c **** 
ARM GAS  C:\Users\SCOTTC~1\AppData\Local\Temp\cc1fObWL.s 			page 7


 187:.\Generated_Source\PSoC5/cyfitter_cfg.c **** /* DSI3_0_HV_ROUTING Address: CYDEV_UCFG_DSI9_BASE + 0x00000080u Size (bytes): 128 */
 188:.\Generated_Source\PSoC5/cyfitter_cfg.c **** #define BS_DSI3_0_HV_ROUTING_VAL ((const uint8 CYFAR *)0x48000688u)
 189:.\Generated_Source\PSoC5/cyfitter_cfg.c **** 
 190:.\Generated_Source\PSoC5/cyfitter_cfg.c **** /* DSISWITCH_1_1 Address: CYDEV_UCFG_DSI8_BASE Size (bytes): 128 */
 191:.\Generated_Source\PSoC5/cyfitter_cfg.c **** #define BS_DSISWITCH_1_1_VAL ((const uint8 CYFAR *)0x48000708u)
 192:.\Generated_Source\PSoC5/cyfitter_cfg.c **** 
 193:.\Generated_Source\PSoC5/cyfitter_cfg.c **** /* DSI3_1_HV_ROUTING Address: CYDEV_UCFG_DSI8_BASE + 0x00000080u Size (bytes): 128 */
 194:.\Generated_Source\PSoC5/cyfitter_cfg.c **** #define BS_DSI3_1_HV_ROUTING_VAL ((const uint8 CYFAR *)0x48000788u)
 195:.\Generated_Source\PSoC5/cyfitter_cfg.c **** 
 196:.\Generated_Source\PSoC5/cyfitter_cfg.c **** /* DSISWITCH_1_4 Address: CYDEV_UCFG_DSI1_BASE Size (bytes): 128 */
 197:.\Generated_Source\PSoC5/cyfitter_cfg.c **** #define BS_DSISWITCH_1_4_VAL ((const uint8 CYFAR *)0x48000808u)
 198:.\Generated_Source\PSoC5/cyfitter_cfg.c **** 
 199:.\Generated_Source\PSoC5/cyfitter_cfg.c **** /* DSI3_4_HV_ROUTING Address: CYDEV_UCFG_DSI1_BASE + 0x00000080u Size (bytes): 128 */
 200:.\Generated_Source\PSoC5/cyfitter_cfg.c **** #define BS_DSI3_4_HV_ROUTING_VAL ((const uint8 CYFAR *)0x48000888u)
 201:.\Generated_Source\PSoC5/cyfitter_cfg.c **** 
 202:.\Generated_Source\PSoC5/cyfitter_cfg.c **** /* DSISWITCH_1_5 Address: CYDEV_UCFG_DSI0_BASE Size (bytes): 128 */
 203:.\Generated_Source\PSoC5/cyfitter_cfg.c **** #define BS_DSISWITCH_1_5_VAL ((const uint8 CYFAR *)0x48000908u)
 204:.\Generated_Source\PSoC5/cyfitter_cfg.c **** 
 205:.\Generated_Source\PSoC5/cyfitter_cfg.c **** /* DSI3_5_HV_ROUTING Address: CYDEV_UCFG_DSI0_BASE + 0x00000080u Size (bytes): 128 */
 206:.\Generated_Source\PSoC5/cyfitter_cfg.c **** #define BS_DSI3_5_HV_ROUTING_VAL ((const uint8 CYFAR *)0x48000988u)
 207:.\Generated_Source\PSoC5/cyfitter_cfg.c **** 
 208:.\Generated_Source\PSoC5/cyfitter_cfg.c **** /* IOPINS0_0 Address: CYREG_PRT0_DM0 Size (bytes): 8 */
 209:.\Generated_Source\PSoC5/cyfitter_cfg.c **** #define BS_IOPINS0_0_VAL ((const uint8 CYFAR *)0x48000A08u)
 210:.\Generated_Source\PSoC5/cyfitter_cfg.c **** 
 211:.\Generated_Source\PSoC5/cyfitter_cfg.c **** /* IOPINS0_2 Address: CYREG_PRT2_DM0 Size (bytes): 8 */
 212:.\Generated_Source\PSoC5/cyfitter_cfg.c **** #define BS_IOPINS0_2_VAL ((const uint8 CYFAR *)0x48000A10u)
 213:.\Generated_Source\PSoC5/cyfitter_cfg.c **** 
 214:.\Generated_Source\PSoC5/cyfitter_cfg.c **** /* CYDEV_CLKDIST_ACFG0_CFG0 Address: CYREG_CLKDIST_ACFG0_CFG0 Size (bytes): 4 */
 215:.\Generated_Source\PSoC5/cyfitter_cfg.c **** #define BS_CYDEV_CLKDIST_ACFG0_CFG0_VAL ((const uint8 CYFAR *)0x48000A18u)
 216:.\Generated_Source\PSoC5/cyfitter_cfg.c **** 
 217:.\Generated_Source\PSoC5/cyfitter_cfg.c **** 
 218:.\Generated_Source\PSoC5/cyfitter_cfg.c **** /*******************************************************************************
 219:.\Generated_Source\PSoC5/cyfitter_cfg.c **** * Function Name: cfg_dma_init
 220:.\Generated_Source\PSoC5/cyfitter_cfg.c **** ********************************************************************************
 221:.\Generated_Source\PSoC5/cyfitter_cfg.c **** * Summary:
 222:.\Generated_Source\PSoC5/cyfitter_cfg.c **** *  This function is used to copy device configuration data from constant values
 223:.\Generated_Source\PSoC5/cyfitter_cfg.c **** *  stored in memory into the proper chip configuration registers using DMA.  It
 224:.\Generated_Source\PSoC5/cyfitter_cfg.c **** *  pulls data out of the CFG_TD_LISTs to know exactly how/what to configure.
 225:.\Generated_Source\PSoC5/cyfitter_cfg.c **** *
 226:.\Generated_Source\PSoC5/cyfitter_cfg.c **** * Parameters:  
 227:.\Generated_Source\PSoC5/cyfitter_cfg.c **** *   void
 228:.\Generated_Source\PSoC5/cyfitter_cfg.c **** *
 229:.\Generated_Source\PSoC5/cyfitter_cfg.c **** * Return:
 230:.\Generated_Source\PSoC5/cyfitter_cfg.c **** *   void
 231:.\Generated_Source\PSoC5/cyfitter_cfg.c **** *
 232:.\Generated_Source\PSoC5/cyfitter_cfg.c **** *******************************************************************************/
 233:.\Generated_Source\PSoC5/cyfitter_cfg.c **** static void cfg_dma_init(void);
 234:.\Generated_Source\PSoC5/cyfitter_cfg.c **** static void cfg_dma_init(void)
 235:.\Generated_Source\PSoC5/cyfitter_cfg.c **** {
 157              		.loc 1 235 0
 158              		.cfi_startproc
 159              		@ args = 0, pretend = 0, frame = 8
 160              		@ frame_needed = 1, uses_anonymous_args = 0
 161 0000 80B5     		push	{r7, lr}
 162              		.cfi_def_cfa_offset 8
 163              		.cfi_offset 7, -8
 164              		.cfi_offset 14, -4
ARM GAS  C:\Users\SCOTTC~1\AppData\Local\Temp\cc1fObWL.s 			page 8


 165 0002 82B0     		sub	sp, sp, #8
 166              		.cfi_def_cfa_offset 16
 167 0004 00AF     		add	r7, sp, #0
 168              		.cfi_def_cfa_register 7
 236:.\Generated_Source\PSoC5/cyfitter_cfg.c **** 	/* TD structure for little-endian systems. Does not require endian swap */
 237:.\Generated_Source\PSoC5/cyfitter_cfg.c **** 	CYPACKED struct td_t {
 238:.\Generated_Source\PSoC5/cyfitter_cfg.c **** 		uint16 size;
 239:.\Generated_Source\PSoC5/cyfitter_cfg.c **** 		uint8 next_td_ptr;
 240:.\Generated_Source\PSoC5/cyfitter_cfg.c **** 		uint8 flags;
 241:.\Generated_Source\PSoC5/cyfitter_cfg.c **** 		uint16 src;
 242:.\Generated_Source\PSoC5/cyfitter_cfg.c **** 		uint16 dest;
 243:.\Generated_Source\PSoC5/cyfitter_cfg.c **** 	} CYPACKED_ATTR;
 244:.\Generated_Source\PSoC5/cyfitter_cfg.c **** 
 245:.\Generated_Source\PSoC5/cyfitter_cfg.c **** 	/* PHUB_CH1_CFGMEM_CFG0/1 initialization data */
 246:.\Generated_Source\PSoC5/cyfitter_cfg.c **** 	DMAINITSEC static const uint8 CYCODE CH1_ADDR_DATA0[] = { 0x01u, 0x00u, 0x00u, 0x00u, 0x00u, 0x20u
 247:.\Generated_Source\PSoC5/cyfitter_cfg.c **** 
 248:.\Generated_Source\PSoC5/cyfitter_cfg.c **** 	/* PHUB_CH2_CFGMEM_CFG0/1 initialization data */
 249:.\Generated_Source\PSoC5/cyfitter_cfg.c **** 	DMAINITSEC static const uint8 CYCODE CH2_ADDR_DATA0[] = { 0x01u, 0x00u, 0x00u, 0x00u, 0x00u, 0x20u
 250:.\Generated_Source\PSoC5/cyfitter_cfg.c **** 
 251:.\Generated_Source\PSoC5/cyfitter_cfg.c **** 	/* PHUB_CH6_CFGMEM_CFG0/1 initialization data */
 252:.\Generated_Source\PSoC5/cyfitter_cfg.c **** 	DMAINITSEC static const uint8 CYCODE CH6_ADDR_DATA0[] = { 0x01u, 0x00u, 0x00u, 0x00u, 0x00u, 0x48u
 253:.\Generated_Source\PSoC5/cyfitter_cfg.c **** 
 254:.\Generated_Source\PSoC5/cyfitter_cfg.c **** 	/* Initialization data for each DMA channel's TD registers */
 255:.\Generated_Source\PSoC5/cyfitter_cfg.c **** 	DMAINITSEC static const uint8 CYCODE DMA_TD_START_CMD[] = { 0x01u, 0x00u, 0x00u, 0x00u, 0x01u };
 256:.\Generated_Source\PSoC5/cyfitter_cfg.c **** 
 257:.\Generated_Source\PSoC5/cyfitter_cfg.c **** 	CYALIGNED static uint32 CYXDATA DMA_ZERO_VAL;
 258:.\Generated_Source\PSoC5/cyfitter_cfg.c **** 
 259:.\Generated_Source\PSoC5/cyfitter_cfg.c **** 	/* This table holds all of the initialization data necessary for the DMA
 260:.\Generated_Source\PSoC5/cyfitter_cfg.c **** 	   process to transfer data from the source location to the destination. */
 261:.\Generated_Source\PSoC5/cyfitter_cfg.c **** 	/* Source addresses can be relocated, but only when in 32bit addresses.
 262:.\Generated_Source\PSoC5/cyfitter_cfg.c **** 	   Because the standard TD table only has 16bit addresses, we generate a
 263:.\Generated_Source\PSoC5/cyfitter_cfg.c **** 	   separate CFG_TD_ADDR table for the source addresses that supports 32bit
 264:.\Generated_Source\PSoC5/cyfitter_cfg.c **** 	   addresses. */
 265:.\Generated_Source\PSoC5/cyfitter_cfg.c **** 	DMAINITSEC static const struct td_t CYCODE CFG_TD_LIST0[] = {
 266:.\Generated_Source\PSoC5/cyfitter_cfg.c **** 		/* Size, Next, Flags, Source, Destination */
 267:.\Generated_Source\PSoC5/cyfitter_cfg.c **** 		{ 8u, 0x02u, 0x23u, (uint16)(uint32)(0u), (uint16)(CYREG_PHUB_CFGMEM1_CFG0) },	/* TD 1 */
 268:.\Generated_Source\PSoC5/cyfitter_cfg.c **** 		{ 8u, 0x03u, 0x23u, (uint16)(uint32)(0u), (uint16)(CYREG_PHUB_CFGMEM2_CFG0) },	/* TD 2 */
 269:.\Generated_Source\PSoC5/cyfitter_cfg.c **** 		{ 8u, 0x04u, 0x23u, (uint16)(uint32)(0u), (uint16)(CYREG_PHUB_CFGMEM6_CFG0) },	/* TD 3 */
 270:.\Generated_Source\PSoC5/cyfitter_cfg.c **** 		{ 5u, 0x05u, 0x23u, (uint16)(uint32)(0u), (uint16)(CYREG_PHUB_CH1_BASIC_CFG) },	/* TD 4 */
 271:.\Generated_Source\PSoC5/cyfitter_cfg.c **** 		{ 5u, 0x06u, 0x23u, (uint16)(uint32)(0u), (uint16)(CYREG_PHUB_CH2_BASIC_CFG) },	/* TD 5 */
 272:.\Generated_Source\PSoC5/cyfitter_cfg.c **** 		{ 5u, 0xFEu, 0x23u, (uint16)(uint32)(0u), (uint16)(CYREG_PHUB_CH6_BASIC_CFG) },	/* TD 6 */
 273:.\Generated_Source\PSoC5/cyfitter_cfg.c **** 		{ 16u, 0x08u, 0x22u, (uint16)(uint32)(0u), (uint16)(CYREG_PRT1_DR) },	/* TD 7 */
 274:.\Generated_Source\PSoC5/cyfitter_cfg.c **** 		{ 64u, 0x09u, 0x22u, (uint16)(uint32)(0u), (uint16)(CYREG_PRT3_DR) },	/* TD 8 */
 275:.\Generated_Source\PSoC5/cyfitter_cfg.c **** 		{ 16u, 0x0Au, 0x22u, (uint16)(uint32)(0u), (uint16)(CYREG_PRT12_DR) },	/* TD 9 */
 276:.\Generated_Source\PSoC5/cyfitter_cfg.c **** 		{ 16u, 0xFEu, 0x22u, (uint16)(uint32)(0u), (uint16)(CYREG_PRT15_DR) },	/* TD 10 */
 277:.\Generated_Source\PSoC5/cyfitter_cfg.c **** 		{ 2432u, 0x0Cu, 0x22u, (uint16)(uint32)(0u), (uint16)(CYDEV_UCFG_B0_P0_U0_BASE) },	/* TD 11 */
 278:.\Generated_Source\PSoC5/cyfitter_cfg.c **** 		{ 128u, 0x0Du, 0x22u, (uint16)(uint32)(0u), (uint16)(CYDEV_UCFG_B0_P5_U0_BASE) },	/* TD 12 */
 279:.\Generated_Source\PSoC5/cyfitter_cfg.c **** 		{ 1152u, 0x0Eu, 0x22u, (uint16)(uint32)(0u), (uint16)(CYDEV_UCFG_B0_P5_ROUTE_BASE + 0x00000080u) 
 280:.\Generated_Source\PSoC5/cyfitter_cfg.c **** 		{ 384u, 0x0Fu, 0x22u, (uint16)(uint32)(0u), (uint16)(CYDEV_UCFG_B1_P2_U0_BASE) },	/* TD 14 */
 281:.\Generated_Source\PSoC5/cyfitter_cfg.c **** 		{ 1408u, 0x10u, 0x22u, (uint16)(uint32)(0u), (uint16)(CYDEV_UCFG_B1_P3_U0_BASE) },	/* TD 15 */
 282:.\Generated_Source\PSoC5/cyfitter_cfg.c **** 		{ 512u, 0x11u, 0x22u, (uint16)(uint32)(0u), (uint16)(CYDEV_UCFG_DSI2_BASE) },	/* TD 16 */
 283:.\Generated_Source\PSoC5/cyfitter_cfg.c **** 		{ 128u, 0x12u, 0x22u, (uint16)(uint32)(0u), (uint16)(CYDEV_UCFG_DSI5_BASE) },	/* TD 17 */
 284:.\Generated_Source\PSoC5/cyfitter_cfg.c **** 		{ 128u, 0x13u, 0x22u, (uint16)(uint32)(0u), (uint16)(CYDEV_UCFG_DSI7_BASE) },	/* TD 18 */
 285:.\Generated_Source\PSoC5/cyfitter_cfg.c **** 		{ 128u, 0x14u, 0x22u, (uint16)(uint32)(0u), (uint16)(CYDEV_UCFG_DSI9_BASE) },	/* TD 19 */
 286:.\Generated_Source\PSoC5/cyfitter_cfg.c **** 		{ 128u, 0x15u, 0x22u, (uint16)(uint32)(0u), (uint16)(CYDEV_UCFG_DSI12_BASE) },	/* TD 20 */
 287:.\Generated_Source\PSoC5/cyfitter_cfg.c **** 		{ 128u, 0x16u, 0x22u, (uint16)(uint32)(0u), (uint16)(CYDEV_UCFG_DSI13_BASE) },	/* TD 21 */
 288:.\Generated_Source\PSoC5/cyfitter_cfg.c **** 		{ 32u, 0xFEu, 0x22u, (uint16)(uint32)(0u), (uint16)(CYREG_BCTL0_MDCLK_EN) },	/* TD 22 */
ARM GAS  C:\Users\SCOTTC~1\AppData\Local\Temp\cc1fObWL.s 			page 9


 289:.\Generated_Source\PSoC5/cyfitter_cfg.c **** 		{ 128u, 0x18u, 0x23u, (uint16)(uint32)(0u), (uint16)(CYDEV_UCFG_B0_P5_U1_BASE) },	/* TD 23 */
 290:.\Generated_Source\PSoC5/cyfitter_cfg.c **** 		{ 128u, 0x19u, 0x23u, (uint16)(uint32)(0u), (uint16)(CYDEV_UCFG_DSI13_BASE + 0x00000080u) },	/* T
 291:.\Generated_Source\PSoC5/cyfitter_cfg.c **** 		{ 128u, 0x1Au, 0x23u, (uint16)(uint32)(0u), (uint16)(CYDEV_UCFG_DSI12_BASE + 0x00000080u) },	/* T
 292:.\Generated_Source\PSoC5/cyfitter_cfg.c **** 		{ 128u, 0x1Bu, 0x23u, (uint16)(uint32)(0u), (uint16)(CYDEV_UCFG_DSI7_BASE + 0x00000080u) },	/* TD
 293:.\Generated_Source\PSoC5/cyfitter_cfg.c **** 		{ 128u, 0x1Cu, 0x23u, (uint16)(uint32)(0u), (uint16)(CYDEV_UCFG_DSI6_BASE) },	/* TD 27 */
 294:.\Generated_Source\PSoC5/cyfitter_cfg.c **** 		{ 128u, 0x1Du, 0x23u, (uint16)(uint32)(0u), (uint16)(CYDEV_UCFG_DSI6_BASE + 0x00000080u) },	/* TD
 295:.\Generated_Source\PSoC5/cyfitter_cfg.c **** 		{ 128u, 0x1Eu, 0x23u, (uint16)(uint32)(0u), (uint16)(CYDEV_UCFG_DSI5_BASE + 0x00000080u) },	/* TD
 296:.\Generated_Source\PSoC5/cyfitter_cfg.c **** 		{ 128u, 0x1Fu, 0x23u, (uint16)(uint32)(0u), (uint16)(CYDEV_UCFG_DSI4_BASE) },	/* TD 30 */
 297:.\Generated_Source\PSoC5/cyfitter_cfg.c **** 		{ 128u, 0x20u, 0x23u, (uint16)(uint32)(0u), (uint16)(CYDEV_UCFG_DSI4_BASE + 0x00000080u) },	/* TD
 298:.\Generated_Source\PSoC5/cyfitter_cfg.c **** 		{ 128u, 0x21u, 0x23u, (uint16)(uint32)(0u), (uint16)(CYDEV_UCFG_B1_P5_ROUTE_BASE + 0x00000080u) }
 299:.\Generated_Source\PSoC5/cyfitter_cfg.c **** 		{ 128u, 0x22u, 0x23u, (uint16)(uint32)(0u), (uint16)(CYDEV_UCFG_B1_P2_ROUTE_BASE + 0x00000080u) }
 300:.\Generated_Source\PSoC5/cyfitter_cfg.c **** 		{ 128u, 0x23u, 0x23u, (uint16)(uint32)(0u), (uint16)(CYDEV_UCFG_B0_P4_ROUTE_BASE + 0x00000080u) }
 301:.\Generated_Source\PSoC5/cyfitter_cfg.c **** 		{ 128u, 0x24u, 0x23u, (uint16)(uint32)(0u), (uint16)(CYDEV_UCFG_B0_P5_ROUTE_BASE) },	/* TD 35 */
 302:.\Generated_Source\PSoC5/cyfitter_cfg.c **** 		{ 128u, 0x25u, 0x23u, (uint16)(uint32)(0u), (uint16)(CYDEV_UCFG_DSI9_BASE + 0x00000080u) },	/* TD
 303:.\Generated_Source\PSoC5/cyfitter_cfg.c **** 		{ 128u, 0x26u, 0x23u, (uint16)(uint32)(0u), (uint16)(CYDEV_UCFG_DSI8_BASE) },	/* TD 37 */
 304:.\Generated_Source\PSoC5/cyfitter_cfg.c **** 		{ 128u, 0x27u, 0x23u, (uint16)(uint32)(0u), (uint16)(CYDEV_UCFG_DSI8_BASE + 0x00000080u) },	/* TD
 305:.\Generated_Source\PSoC5/cyfitter_cfg.c **** 		{ 128u, 0x28u, 0x23u, (uint16)(uint32)(0u), (uint16)(CYDEV_UCFG_DSI1_BASE) },	/* TD 39 */
 306:.\Generated_Source\PSoC5/cyfitter_cfg.c **** 		{ 128u, 0x29u, 0x23u, (uint16)(uint32)(0u), (uint16)(CYDEV_UCFG_DSI1_BASE + 0x00000080u) },	/* TD
 307:.\Generated_Source\PSoC5/cyfitter_cfg.c **** 		{ 128u, 0x2Au, 0x23u, (uint16)(uint32)(0u), (uint16)(CYDEV_UCFG_DSI0_BASE) },	/* TD 41 */
 308:.\Generated_Source\PSoC5/cyfitter_cfg.c **** 		{ 128u, 0xFEu, 0x23u, (uint16)(uint32)(0u), (uint16)(CYDEV_UCFG_DSI0_BASE + 0x00000080u) },	/* TD
 309:.\Generated_Source\PSoC5/cyfitter_cfg.c **** 	};
 310:.\Generated_Source\PSoC5/cyfitter_cfg.c **** 
 311:.\Generated_Source\PSoC5/cyfitter_cfg.c **** 	/* Source addresses can be relocated, but only when in 32bit addresses.
 312:.\Generated_Source\PSoC5/cyfitter_cfg.c **** 	   Because the standard TD table only has 16bit addresses, we generate a
 313:.\Generated_Source\PSoC5/cyfitter_cfg.c **** 	   separate table for the source addresses that does use 32bit addresses. This
 314:.\Generated_Source\PSoC5/cyfitter_cfg.c **** 	   table will be re-merged with the corresponding CFG_TD_LIST table during
 315:.\Generated_Source\PSoC5/cyfitter_cfg.c **** 	   initialization. */
 316:.\Generated_Source\PSoC5/cyfitter_cfg.c **** 	static const void * const CFG_TD_ADDR0[] = {
 317:.\Generated_Source\PSoC5/cyfitter_cfg.c **** 		(const void *)(CH1_ADDR_DATA0),	/* TD 1 */
 318:.\Generated_Source\PSoC5/cyfitter_cfg.c **** 		(const void *)(CH2_ADDR_DATA0),	/* TD 2 */
 319:.\Generated_Source\PSoC5/cyfitter_cfg.c **** 		(const void *)(CH6_ADDR_DATA0),	/* TD 3 */
 320:.\Generated_Source\PSoC5/cyfitter_cfg.c **** 		(const void *)(DMA_TD_START_CMD),	/* TD 4 */
 321:.\Generated_Source\PSoC5/cyfitter_cfg.c **** 		(const void *)(DMA_TD_START_CMD),	/* TD 5 */
 322:.\Generated_Source\PSoC5/cyfitter_cfg.c **** 		(const void *)(DMA_TD_START_CMD),	/* TD 6 */
 323:.\Generated_Source\PSoC5/cyfitter_cfg.c **** 		(const void *)(&DMA_ZERO_VAL),	/* TD 7 */
 324:.\Generated_Source\PSoC5/cyfitter_cfg.c **** 		(const void *)(&DMA_ZERO_VAL),	/* TD 8 */
 325:.\Generated_Source\PSoC5/cyfitter_cfg.c **** 		(const void *)(&DMA_ZERO_VAL),	/* TD 9 */
 326:.\Generated_Source\PSoC5/cyfitter_cfg.c **** 		(const void *)(&DMA_ZERO_VAL),	/* TD 10 */
 327:.\Generated_Source\PSoC5/cyfitter_cfg.c **** 		(const void *)(&DMA_ZERO_VAL),	/* TD 11 */
 328:.\Generated_Source\PSoC5/cyfitter_cfg.c **** 		(const void *)(&DMA_ZERO_VAL),	/* TD 12 */
 329:.\Generated_Source\PSoC5/cyfitter_cfg.c **** 		(const void *)(&DMA_ZERO_VAL),	/* TD 13 */
 330:.\Generated_Source\PSoC5/cyfitter_cfg.c **** 		(const void *)(&DMA_ZERO_VAL),	/* TD 14 */
 331:.\Generated_Source\PSoC5/cyfitter_cfg.c **** 		(const void *)(&DMA_ZERO_VAL),	/* TD 15 */
 332:.\Generated_Source\PSoC5/cyfitter_cfg.c **** 		(const void *)(&DMA_ZERO_VAL),	/* TD 16 */
 333:.\Generated_Source\PSoC5/cyfitter_cfg.c **** 		(const void *)(&DMA_ZERO_VAL),	/* TD 17 */
 334:.\Generated_Source\PSoC5/cyfitter_cfg.c **** 		(const void *)(&DMA_ZERO_VAL),	/* TD 18 */
 335:.\Generated_Source\PSoC5/cyfitter_cfg.c **** 		(const void *)(&DMA_ZERO_VAL),	/* TD 19 */
 336:.\Generated_Source\PSoC5/cyfitter_cfg.c **** 		(const void *)(&DMA_ZERO_VAL),	/* TD 20 */
 337:.\Generated_Source\PSoC5/cyfitter_cfg.c **** 		(const void *)(&DMA_ZERO_VAL),	/* TD 21 */
 338:.\Generated_Source\PSoC5/cyfitter_cfg.c **** 		(const void *)(&DMA_ZERO_VAL),	/* TD 22 */
 339:.\Generated_Source\PSoC5/cyfitter_cfg.c **** 		(const void *)(BS_UDB_0_3_1_CONFIG_VAL),	/* TD 23 */
 340:.\Generated_Source\PSoC5/cyfitter_cfg.c **** 		(const void *)(BS_DSI0_0_HV_ROUTING_VAL),	/* TD 24 */
 341:.\Generated_Source\PSoC5/cyfitter_cfg.c **** 		(const void *)(BS_DSI0_1_HV_ROUTING_VAL),	/* TD 25 */
 342:.\Generated_Source\PSoC5/cyfitter_cfg.c **** 		(const void *)(BS_DSI0_2_HV_ROUTING_VAL),	/* TD 26 */
 343:.\Generated_Source\PSoC5/cyfitter_cfg.c **** 		(const void *)(BS_DSISWITCH_0_3_VAL),	/* TD 27 */
 344:.\Generated_Source\PSoC5/cyfitter_cfg.c **** 		(const void *)(BS_DSI0_3_HV_ROUTING_VAL),	/* TD 28 */
 345:.\Generated_Source\PSoC5/cyfitter_cfg.c **** 		(const void *)(BS_DSI0_4_HV_ROUTING_VAL),	/* TD 29 */
ARM GAS  C:\Users\SCOTTC~1\AppData\Local\Temp\cc1fObWL.s 			page 10


 346:.\Generated_Source\PSoC5/cyfitter_cfg.c **** 		(const void *)(BS_DSISWITCH_0_5_VAL),	/* TD 30 */
 347:.\Generated_Source\PSoC5/cyfitter_cfg.c **** 		(const void *)(BS_DSI0_5_HV_ROUTING_VAL),	/* TD 31 */
 348:.\Generated_Source\PSoC5/cyfitter_cfg.c **** 		(const void *)(BS_UDB_1_0_HV_ROUTING_VAL),	/* TD 32 */
 349:.\Generated_Source\PSoC5/cyfitter_cfg.c **** 		(const void *)(BS_UDB_2_0_HV_ROUTING_VAL),	/* TD 33 */
 350:.\Generated_Source\PSoC5/cyfitter_cfg.c **** 		(const void *)(BS_UDB_1_2_HV_ROUTING_VAL),	/* TD 34 */
 351:.\Generated_Source\PSoC5/cyfitter_cfg.c **** 		(const void *)(BS_UDBSWITCH_0_3_VAL),	/* TD 35 */
 352:.\Generated_Source\PSoC5/cyfitter_cfg.c **** 		(const void *)(BS_DSI3_0_HV_ROUTING_VAL),	/* TD 36 */
 353:.\Generated_Source\PSoC5/cyfitter_cfg.c **** 		(const void *)(BS_DSISWITCH_1_1_VAL),	/* TD 37 */
 354:.\Generated_Source\PSoC5/cyfitter_cfg.c **** 		(const void *)(BS_DSI3_1_HV_ROUTING_VAL),	/* TD 38 */
 355:.\Generated_Source\PSoC5/cyfitter_cfg.c **** 		(const void *)(BS_DSISWITCH_1_4_VAL),	/* TD 39 */
 356:.\Generated_Source\PSoC5/cyfitter_cfg.c **** 		(const void *)(BS_DSI3_4_HV_ROUTING_VAL),	/* TD 40 */
 357:.\Generated_Source\PSoC5/cyfitter_cfg.c **** 		(const void *)(BS_DSISWITCH_1_5_VAL),	/* TD 41 */
 358:.\Generated_Source\PSoC5/cyfitter_cfg.c **** 		(const void *)(BS_DSI3_5_HV_ROUTING_VAL),	/* TD 42 */
 359:.\Generated_Source\PSoC5/cyfitter_cfg.c **** 	};
 360:.\Generated_Source\PSoC5/cyfitter_cfg.c **** 
 361:.\Generated_Source\PSoC5/cyfitter_cfg.c **** 
 362:.\Generated_Source\PSoC5/cyfitter_cfg.c **** 	uint32 i;
 363:.\Generated_Source\PSoC5/cyfitter_cfg.c **** 
 364:.\Generated_Source\PSoC5/cyfitter_cfg.c **** 	DMA_ZERO_VAL = 0u;
 169              		.loc 1 364 0
 170 0006 3F4B     		ldr	r3, .L14
 171 0008 0022     		movs	r2, #0
 172 000a 1A60     		str	r2, [r3]
 365:.\Generated_Source\PSoC5/cyfitter_cfg.c **** 	CY_SET_REG8((void CYXDATA *)CYREG_PHUB_CFGMEM0_CFG0, 0x10u);	/* set burstcnt */
 173              		.loc 1 365 0
 174 000c 3E4B     		ldr	r3, .L14+4
 175 000e 1022     		movs	r2, #16
 176 0010 1A70     		strb	r2, [r3]
 366:.\Generated_Source\PSoC5/cyfitter_cfg.c **** 	CY_SET_REG8((void CYXDATA *)CYREG_PHUB_CH0_BASIC_CFG, 0x01u);	/* enable ch0 */
 177              		.loc 1 366 0
 178 0012 3E4B     		ldr	r3, .L14+8
 179 0014 0122     		movs	r2, #1
 180 0016 1A70     		strb	r2, [r3]
 367:.\Generated_Source\PSoC5/cyfitter_cfg.c **** 	CY_SET_REG8((void CYXDATA *)(CYREG_PHUB_CH0_BASIC_STATUS+1u), 0x00u);	/* set first TD to 0 */
 181              		.loc 1 367 0
 182 0018 3D4B     		ldr	r3, .L14+12
 183 001a 0022     		movs	r2, #0
 184 001c 1A70     		strb	r2, [r3]
 368:.\Generated_Source\PSoC5/cyfitter_cfg.c **** 	CY_SET_REG16((void CYXDATA *)CYREG_PHUB_TDMEM0_ORIG_TD0, 42u*8u);	/* transfer size */
 185              		.loc 1 368 0
 186 001e 3D4B     		ldr	r3, .L14+16
 187 0020 4FF4A872 		mov	r2, #336
 188 0024 1A80     		strh	r2, [r3]	@ movhi
 369:.\Generated_Source\PSoC5/cyfitter_cfg.c **** 	CY_SET_REG8((void CYXDATA *)(CYREG_PHUB_TDMEM0_ORIG_TD0+2u), 0x01u);	/* set next TD to 1 */
 189              		.loc 1 369 0
 190 0026 3C4B     		ldr	r3, .L14+20
 191 0028 0122     		movs	r2, #1
 192 002a 1A70     		strb	r2, [r3]
 370:.\Generated_Source\PSoC5/cyfitter_cfg.c **** 	CY_SET_REG8((void CYXDATA *)(CYREG_PHUB_TDMEM0_ORIG_TD0+3u), 0x03u);	/* set TD flags */
 193              		.loc 1 370 0
 194 002c 3B4B     		ldr	r3, .L14+24
 195 002e 0322     		movs	r2, #3
 196 0030 1A70     		strb	r2, [r3]
 371:.\Generated_Source\PSoC5/cyfitter_cfg.c **** 	CY_SET_REG16((void CYXDATA *)CYREG_PHUB_TDMEM0_ORIG_TD1, (uint16)((uint32)CFG_TD_LIST0 & 0x0000FFF
 197              		.loc 1 371 0
 198 0032 3B4B     		ldr	r3, .L14+28
 199 0034 3B4A     		ldr	r2, .L14+32
ARM GAS  C:\Users\SCOTTC~1\AppData\Local\Temp\cc1fObWL.s 			page 11


 200 0036 92B2     		uxth	r2, r2
 201 0038 1A80     		strh	r2, [r3]	@ movhi
 372:.\Generated_Source\PSoC5/cyfitter_cfg.c **** 	CY_SET_REG16((void CYXDATA *)(CYREG_PHUB_TDMEM0_ORIG_TD1+2u), CYDEV_PHUB_TDMEM1_BASE);	/* set td0'
 202              		.loc 1 372 0
 203 003a 3B4B     		ldr	r3, .L14+36
 204 003c 47F60802 		movw	r2, #30728
 205 0040 1A80     		strh	r2, [r3]	@ movhi
 373:.\Generated_Source\PSoC5/cyfitter_cfg.c **** 	CY_SET_REG16((void CYXDATA *)CYREG_PHUB_CFGMEM0_CFG1, (uint16)(CYDEV_FLASH_BASE >> 16));	/* set ch
 206              		.loc 1 373 0
 207 0042 3A4B     		ldr	r3, .L14+40
 208 0044 0022     		movs	r2, #0
 209 0046 1A80     		strh	r2, [r3]	@ movhi
 374:.\Generated_Source\PSoC5/cyfitter_cfg.c **** 	CY_SET_REG16((void CYXDATA *)(CYREG_PHUB_CFGMEM0_CFG1+2u), (uint16)(CYDEV_PHUB_TDMEM1_BASE >> 16))
 210              		.loc 1 374 0
 211 0048 394B     		ldr	r3, .L14+44
 212 004a 4FF48042 		mov	r2, #16384
 213 004e 1A80     		strh	r2, [r3]	@ movhi
 375:.\Generated_Source\PSoC5/cyfitter_cfg.c **** 	CY_SET_REG8((void CYXDATA *)(CYREG_PHUB_CH1_BASIC_STATUS+1u), 0x07u);	/* ch1 first TD: 7 */
 214              		.loc 1 375 0
 215 0050 384B     		ldr	r3, .L14+48
 216 0052 0722     		movs	r2, #7
 217 0054 1A70     		strb	r2, [r3]
 376:.\Generated_Source\PSoC5/cyfitter_cfg.c **** 	CY_SET_REG8((void CYXDATA *)(CYREG_PHUB_CH2_BASIC_STATUS+1u), 0x0Bu);	/* ch2 first TD: 11 */
 218              		.loc 1 376 0
 219 0056 384B     		ldr	r3, .L14+52
 220 0058 0B22     		movs	r2, #11
 221 005a 1A70     		strb	r2, [r3]
 377:.\Generated_Source\PSoC5/cyfitter_cfg.c **** 	CY_SET_REG8((void CYXDATA *)(CYREG_PHUB_CH6_BASIC_STATUS+1u), 0x17u);	/* ch6 first TD: 23 */
 222              		.loc 1 377 0
 223 005c 374B     		ldr	r3, .L14+56
 224 005e 1722     		movs	r2, #23
 225 0060 1A70     		strb	r2, [r3]
 378:.\Generated_Source\PSoC5/cyfitter_cfg.c **** 
 379:.\Generated_Source\PSoC5/cyfitter_cfg.c **** 	CY_CFG_MEMORY_BARRIER();
 226              		.loc 1 379 0
 227 0062 BFF35F8F 		dmb	sy
 380:.\Generated_Source\PSoC5/cyfitter_cfg.c **** 	CY_SET_REG8((void CYXDATA *)CYREG_PHUB_CH0_ACTION, 0x01u); /* cpu_req */
 228              		.loc 1 380 0
 229 0066 364B     		ldr	r3, .L14+60
 230 0068 0122     		movs	r2, #1
 231 006a 1A70     		strb	r2, [r3]
 381:.\Generated_Source\PSoC5/cyfitter_cfg.c **** 	CY_CFG_MEMORY_BARRIER();
 232              		.loc 1 381 0
 233 006c BFF35F8F 		dmb	sy
 382:.\Generated_Source\PSoC5/cyfitter_cfg.c **** 
 383:.\Generated_Source\PSoC5/cyfitter_cfg.c **** 	/* Wait for TDs to be copied into TDMEM */
 384:.\Generated_Source\PSoC5/cyfitter_cfg.c **** 	while (CY_GET_REG16((void CYXDATA *)CYREG_PHUB_TDMEM0_ORIG_TD0) != 0u) { }
 234              		.loc 1 384 0
 235 0070 00BF     		nop
 236              	.L7:
 237              		.loc 1 384 0 is_stmt 0 discriminator 1
 238 0072 284B     		ldr	r3, .L14+16
 239 0074 1B88     		ldrh	r3, [r3]	@ movhi
 240 0076 9BB2     		uxth	r3, r3
 241 0078 002B     		cmp	r3, #0
 242 007a FAD1     		bne	.L7
 385:.\Generated_Source\PSoC5/cyfitter_cfg.c **** 
ARM GAS  C:\Users\SCOTTC~1\AppData\Local\Temp\cc1fObWL.s 			page 12


 386:.\Generated_Source\PSoC5/cyfitter_cfg.c **** 	/* Recombine TD source table (CFG_TD_ADDR0) with full TD table (CFG_TD_LIST0) */
 387:.\Generated_Source\PSoC5/cyfitter_cfg.c **** 	for (i = 0u; i < 42u; i++)
 243              		.loc 1 387 0 is_stmt 1
 244 007c 0023     		movs	r3, #0
 245 007e 7B60     		str	r3, [r7, #4]
 246 0080 0CE0     		b	.L8
 247              	.L9:
 388:.\Generated_Source\PSoC5/cyfitter_cfg.c **** 	{
 389:.\Generated_Source\PSoC5/cyfitter_cfg.c **** 		CY_SET_REG16((void CYXDATA *)(CYREG_PHUB_TDMEM1_ORIG_TD1 + (sizeof(struct td_t)*i)), (uint16)(uin
 248              		.loc 1 389 0 discriminator 2
 249 0082 7B68     		ldr	r3, [r7, #4]
 250 0084 DA00     		lsls	r2, r3, #3
 251 0086 2F4B     		ldr	r3, .L14+64
 252 0088 1344     		add	r3, r3, r2
 253 008a 2F4A     		ldr	r2, .L14+68
 254 008c 7968     		ldr	r1, [r7, #4]
 255 008e 52F82120 		ldr	r2, [r2, r1, lsl #2]
 256 0092 92B2     		uxth	r2, r2
 257 0094 1A80     		strh	r2, [r3]	@ movhi
 387:.\Generated_Source\PSoC5/cyfitter_cfg.c **** 	for (i = 0u; i < 42u; i++)
 258              		.loc 1 387 0 discriminator 2
 259 0096 7B68     		ldr	r3, [r7, #4]
 260 0098 0133     		adds	r3, r3, #1
 261 009a 7B60     		str	r3, [r7, #4]
 262              	.L8:
 387:.\Generated_Source\PSoC5/cyfitter_cfg.c **** 	for (i = 0u; i < 42u; i++)
 263              		.loc 1 387 0 is_stmt 0 discriminator 1
 264 009c 7B68     		ldr	r3, [r7, #4]
 265 009e 292B     		cmp	r3, #41
 266 00a0 EFD9     		bls	.L9
 390:.\Generated_Source\PSoC5/cyfitter_cfg.c **** 	}
 391:.\Generated_Source\PSoC5/cyfitter_cfg.c **** 
 392:.\Generated_Source\PSoC5/cyfitter_cfg.c **** 	CY_CFG_MEMORY_BARRIER();
 267              		.loc 1 392 0 is_stmt 1
 268 00a2 BFF35F8F 		dmb	sy
 393:.\Generated_Source\PSoC5/cyfitter_cfg.c **** 	CY_SET_REG8((void CYXDATA *)CYREG_PHUB_CH0_ACTION, 0x01u); /* cpu_req */
 269              		.loc 1 393 0
 270 00a6 264B     		ldr	r3, .L14+60
 271 00a8 0122     		movs	r2, #1
 272 00aa 1A70     		strb	r2, [r3]
 394:.\Generated_Source\PSoC5/cyfitter_cfg.c **** 	CY_CFG_MEMORY_BARRIER();
 273              		.loc 1 394 0
 274 00ac BFF35F8F 		dmb	sy
 395:.\Generated_Source\PSoC5/cyfitter_cfg.c **** 
 396:.\Generated_Source\PSoC5/cyfitter_cfg.c **** 	/* Wait for all DMA transfers to complete */
 397:.\Generated_Source\PSoC5/cyfitter_cfg.c **** 	while(0u != (CY_GET_REG8((void CYXDATA *)CYREG_PHUB_CH0_BASIC_STATUS) & 0x01u)){}
 275              		.loc 1 397 0
 276 00b0 00BF     		nop
 277              	.L10:
 278              		.loc 1 397 0 is_stmt 0 discriminator 1
 279 00b2 264B     		ldr	r3, .L14+72
 280 00b4 1B78     		ldrb	r3, [r3]
 281 00b6 DBB2     		uxtb	r3, r3
 282 00b8 03F00103 		and	r3, r3, #1
 283 00bc 002B     		cmp	r3, #0
 284 00be F8D1     		bne	.L10
 398:.\Generated_Source\PSoC5/cyfitter_cfg.c **** 	while(0u != (CY_GET_REG8((void CYXDATA *)CYREG_PHUB_CH1_BASIC_STATUS) & 0x01u)){}
ARM GAS  C:\Users\SCOTTC~1\AppData\Local\Temp\cc1fObWL.s 			page 13


 285              		.loc 1 398 0 is_stmt 1
 286 00c0 00BF     		nop
 287              	.L11:
 288              		.loc 1 398 0 is_stmt 0 discriminator 1
 289 00c2 234B     		ldr	r3, .L14+76
 290 00c4 1B78     		ldrb	r3, [r3]
 291 00c6 DBB2     		uxtb	r3, r3
 292 00c8 03F00103 		and	r3, r3, #1
 293 00cc 002B     		cmp	r3, #0
 294 00ce F8D1     		bne	.L11
 399:.\Generated_Source\PSoC5/cyfitter_cfg.c **** 	while(0u != (CY_GET_REG8((void CYXDATA *)CYREG_PHUB_CH2_BASIC_STATUS) & 0x01u)){}
 295              		.loc 1 399 0 is_stmt 1
 296 00d0 00BF     		nop
 297              	.L12:
 298              		.loc 1 399 0 is_stmt 0 discriminator 1
 299 00d2 204B     		ldr	r3, .L14+80
 300 00d4 1B78     		ldrb	r3, [r3]
 301 00d6 DBB2     		uxtb	r3, r3
 302 00d8 03F00103 		and	r3, r3, #1
 303 00dc 002B     		cmp	r3, #0
 304 00de F8D1     		bne	.L12
 400:.\Generated_Source\PSoC5/cyfitter_cfg.c **** 	while(0u != (CY_GET_REG8((void CYXDATA *)CYREG_PHUB_CH6_BASIC_STATUS) & 0x01u)){}
 305              		.loc 1 400 0 is_stmt 1
 306 00e0 00BF     		nop
 307              	.L13:
 308              		.loc 1 400 0 is_stmt 0 discriminator 1
 309 00e2 1D4B     		ldr	r3, .L14+84
 310 00e4 1B78     		ldrb	r3, [r3]
 311 00e6 DBB2     		uxtb	r3, r3
 312 00e8 03F00103 		and	r3, r3, #1
 313 00ec 002B     		cmp	r3, #0
 314 00ee F8D1     		bne	.L13
 401:.\Generated_Source\PSoC5/cyfitter_cfg.c **** 
 402:.\Generated_Source\PSoC5/cyfitter_cfg.c **** 
 403:.\Generated_Source\PSoC5/cyfitter_cfg.c **** 	CYCONFIGCPY((void CYFAR *)(CYREG_IDMUX_DRQ_CTL0), (const void CYFAR *)(BS_IDMUX_VAL), 6u);
 315              		.loc 1 403 0 is_stmt 1
 316 00f0 1A48     		ldr	r0, .L14+88
 317 00f2 4FF09041 		mov	r1, #1207959552
 318 00f6 0622     		movs	r2, #6
 319 00f8 FFF7FEFF 		bl	CYCONFIGCPY
 404:.\Generated_Source\PSoC5/cyfitter_cfg.c **** 
 405:.\Generated_Source\PSoC5/cyfitter_cfg.c **** }
 320              		.loc 1 405 0
 321 00fc 0837     		adds	r7, r7, #8
 322 00fe BD46     		mov	sp, r7
 323              		@ sp needed
 324 0100 80BD     		pop	{r7, pc}
 325              	.L15:
 326 0102 00BF     		.align	2
 327              	.L14:
 328 0104 00000000 		.word	DMA_ZERO_VAL.4850
 329 0108 00760040 		.word	1073772032
 330 010c 10700040 		.word	1073770512
 331 0110 19700040 		.word	1073770521
 332 0114 00780040 		.word	1073772544
 333 0118 02780040 		.word	1073772546
 334 011c 03780040 		.word	1073772547
ARM GAS  C:\Users\SCOTTC~1\AppData\Local\Temp\cc1fObWL.s 			page 14


 335 0120 04780040 		.word	1073772548
 336 0124 00000000 		.word	CFG_TD_LIST0.4851
 337 0128 06780040 		.word	1073772550
 338 012c 04760040 		.word	1073772036
 339 0130 06760040 		.word	1073772038
 340 0134 29700040 		.word	1073770537
 341 0138 39700040 		.word	1073770553
 342 013c 79700040 		.word	1073770617
 343 0140 14700040 		.word	1073770516
 344 0144 0C780040 		.word	1073772556
 345 0148 00000000 		.word	CFG_TD_ADDR0.4852
 346 014c 18700040 		.word	1073770520
 347 0150 28700040 		.word	1073770536
 348 0154 38700040 		.word	1073770552
 349 0158 78700040 		.word	1073770616
 350 015c 10510140 		.word	1073828112
 351              		.cfi_endproc
 352              	.LFE4:
 353              		.size	cfg_dma_init, .-cfg_dma_init
 354              		.section	.text.ClockSetup,"ax",%progbits
 355              		.align	2
 356              		.thumb
 357              		.thumb_func
 358              		.type	ClockSetup, %function
 359              	ClockSetup:
 360              	.LFB5:
 406:.\Generated_Source\PSoC5/cyfitter_cfg.c **** /*******************************************************************************
 407:.\Generated_Source\PSoC5/cyfitter_cfg.c **** * Function Name: ClockSetup
 408:.\Generated_Source\PSoC5/cyfitter_cfg.c **** ********************************************************************************
 409:.\Generated_Source\PSoC5/cyfitter_cfg.c **** *
 410:.\Generated_Source\PSoC5/cyfitter_cfg.c **** * Summary:
 411:.\Generated_Source\PSoC5/cyfitter_cfg.c **** *  Performs the initialization of all of the clocks in the device based on the
 412:.\Generated_Source\PSoC5/cyfitter_cfg.c **** *  settings in the Clock tab of the DWR.  This includes enabling the requested
 413:.\Generated_Source\PSoC5/cyfitter_cfg.c **** *  clocks and setting the necessary dividers to produce the desired frequency. 
 414:.\Generated_Source\PSoC5/cyfitter_cfg.c **** *
 415:.\Generated_Source\PSoC5/cyfitter_cfg.c **** * Parameters:
 416:.\Generated_Source\PSoC5/cyfitter_cfg.c **** *  void
 417:.\Generated_Source\PSoC5/cyfitter_cfg.c **** *
 418:.\Generated_Source\PSoC5/cyfitter_cfg.c **** * Return:
 419:.\Generated_Source\PSoC5/cyfitter_cfg.c **** *  void
 420:.\Generated_Source\PSoC5/cyfitter_cfg.c **** *
 421:.\Generated_Source\PSoC5/cyfitter_cfg.c **** *******************************************************************************/
 422:.\Generated_Source\PSoC5/cyfitter_cfg.c **** static void ClockSetup(void);
 423:.\Generated_Source\PSoC5/cyfitter_cfg.c **** static void ClockSetup(void)
 424:.\Generated_Source\PSoC5/cyfitter_cfg.c **** {
 361              		.loc 1 424 0
 362              		.cfi_startproc
 363              		@ args = 0, pretend = 0, frame = 8
 364              		@ frame_needed = 1, uses_anonymous_args = 0
 365 0000 80B5     		push	{r7, lr}
 366              		.cfi_def_cfa_offset 8
 367              		.cfi_offset 7, -8
 368              		.cfi_offset 14, -4
 369 0002 82B0     		sub	sp, sp, #8
 370              		.cfi_def_cfa_offset 16
 371 0004 00AF     		add	r7, sp, #0
 372              		.cfi_def_cfa_register 7
ARM GAS  C:\Users\SCOTTC~1\AppData\Local\Temp\cc1fObWL.s 			page 15


 425:.\Generated_Source\PSoC5/cyfitter_cfg.c **** 	uint32 timeout;
 426:.\Generated_Source\PSoC5/cyfitter_cfg.c **** 	uint8 pllLock;
 427:.\Generated_Source\PSoC5/cyfitter_cfg.c **** 
 428:.\Generated_Source\PSoC5/cyfitter_cfg.c **** 
 429:.\Generated_Source\PSoC5/cyfitter_cfg.c **** 	/* Configure Digital Clocks based on settings from Clock DWR */
 430:.\Generated_Source\PSoC5/cyfitter_cfg.c **** 	CY_SET_XTND_REG16((void CYFAR *)(CYREG_CLKDIST_DCFG0_CFG0), 0x0000u);
 373              		.loc 1 430 0
 374 0006 3B4B     		ldr	r3, .L21
 375 0008 0022     		movs	r2, #0
 376 000a 1A80     		strh	r2, [r3]	@ movhi
 431:.\Generated_Source\PSoC5/cyfitter_cfg.c **** 	CY_SET_XTND_REG8((void CYFAR *)(CYREG_CLKDIST_DCFG0_CFG0 + 0x2u), 0x50u);
 377              		.loc 1 431 0
 378 000c 3A4B     		ldr	r3, .L21+4
 379 000e 5022     		movs	r2, #80
 380 0010 1A70     		strb	r2, [r3]
 432:.\Generated_Source\PSoC5/cyfitter_cfg.c **** 
 433:.\Generated_Source\PSoC5/cyfitter_cfg.c **** 	/* Configure Analog Clocks based on settings from Clock DWR */
 434:.\Generated_Source\PSoC5/cyfitter_cfg.c **** 	CYCONFIGCPY((void CYFAR *)(CYREG_CLKDIST_ACFG0_CFG0), (const void CYFAR *)(BS_CYDEV_CLKDIST_ACFG0_
 381              		.loc 1 434 0
 382 0012 3A48     		ldr	r0, .L21+8
 383 0014 3A49     		ldr	r1, .L21+12
 384 0016 0422     		movs	r2, #4
 385 0018 FFF7FEFF 		bl	CYCONFIGCPY
 435:.\Generated_Source\PSoC5/cyfitter_cfg.c **** 
 436:.\Generated_Source\PSoC5/cyfitter_cfg.c **** 	/* Configure ILO based on settings from Clock DWR */
 437:.\Generated_Source\PSoC5/cyfitter_cfg.c **** 	CY_SET_XTND_REG8((void CYFAR *)(CYREG_SLOWCLK_ILO_CR0), 0x02u);
 386              		.loc 1 437 0
 387 001c 394B     		ldr	r3, .L21+16
 388 001e 0222     		movs	r2, #2
 389 0020 1A70     		strb	r2, [r3]
 438:.\Generated_Source\PSoC5/cyfitter_cfg.c **** 	CY_SET_XTND_REG8((void CYFAR *)(CYREG_CLKDIST_CR), 0x08u);
 390              		.loc 1 438 0
 391 0022 4FF04023 		mov	r3, #1073758208
 392 0026 0822     		movs	r2, #8
 393 0028 1A70     		strb	r2, [r3]
 439:.\Generated_Source\PSoC5/cyfitter_cfg.c **** 
 440:.\Generated_Source\PSoC5/cyfitter_cfg.c **** 	/* Configure IMO based on settings from Clock DWR */
 441:.\Generated_Source\PSoC5/cyfitter_cfg.c **** 	CY_SET_XTND_REG8((void CYFAR *)(CYREG_FASTCLK_IMO_CR), 0x03u);
 394              		.loc 1 441 0
 395 002a 374B     		ldr	r3, .L21+20
 396 002c 0322     		movs	r2, #3
 397 002e 1A70     		strb	r2, [r3]
 442:.\Generated_Source\PSoC5/cyfitter_cfg.c **** 	CY_SET_XTND_REG8((void CYFAR *)(CYREG_IMO_TR1), (CY_GET_XTND_REG8((void CYFAR *)CYREG_FLSHID_CUST_
 398              		.loc 1 442 0
 399 0030 364B     		ldr	r3, .L21+24
 400 0032 374A     		ldr	r2, .L21+28
 401 0034 1278     		ldrb	r2, [r2]
 402 0036 D2B2     		uxtb	r2, r2
 403 0038 1A70     		strb	r2, [r3]
 443:.\Generated_Source\PSoC5/cyfitter_cfg.c **** 
 444:.\Generated_Source\PSoC5/cyfitter_cfg.c **** 	/* Configure PLL based on settings from Clock DWR */
 445:.\Generated_Source\PSoC5/cyfitter_cfg.c **** 	CY_SET_XTND_REG16((void CYFAR *)(CYREG_FASTCLK_PLL_P), 0x0008u);
 404              		.loc 1 445 0
 405 003a 364B     		ldr	r3, .L21+32
 406 003c 0822     		movs	r2, #8
 407 003e 1A80     		strh	r2, [r3]	@ movhi
 446:.\Generated_Source\PSoC5/cyfitter_cfg.c **** 	CY_SET_XTND_REG16((void CYFAR *)(CYREG_FASTCLK_PLL_CFG0), 0x1251u);
ARM GAS  C:\Users\SCOTTC~1\AppData\Local\Temp\cc1fObWL.s 			page 16


 408              		.loc 1 446 0
 409 0040 354B     		ldr	r3, .L21+36
 410 0042 41F25122 		movw	r2, #4689
 411 0046 1A80     		strh	r2, [r3]	@ movhi
 447:.\Generated_Source\PSoC5/cyfitter_cfg.c **** 	/* Wait up to 250us for the PLL to lock */
 448:.\Generated_Source\PSoC5/cyfitter_cfg.c **** 	pllLock = 0u;
 412              		.loc 1 448 0
 413 0048 0023     		movs	r3, #0
 414 004a FB70     		strb	r3, [r7, #3]
 449:.\Generated_Source\PSoC5/cyfitter_cfg.c **** 	for (timeout = 250u / 10u; (timeout > 0u) && (pllLock != 0x03u); timeout--)
 415              		.loc 1 449 0
 416 004c 1923     		movs	r3, #25
 417 004e 7B60     		str	r3, [r7, #4]
 418 0050 13E0     		b	.L17
 419              	.L19:
 450:.\Generated_Source\PSoC5/cyfitter_cfg.c **** 	{ 
 451:.\Generated_Source\PSoC5/cyfitter_cfg.c **** 		pllLock = 0x03u & ((uint8)((uint8)pllLock << 1) | ((CY_GET_XTND_REG8((void CYFAR *)CYREG_FASTCLK_
 420              		.loc 1 451 0 discriminator 1
 421 0052 FB78     		ldrb	r3, [r7, #3]
 422 0054 5B00     		lsls	r3, r3, #1
 423 0056 DAB2     		uxtb	r2, r3
 424 0058 304B     		ldr	r3, .L21+40
 425 005a 1B78     		ldrb	r3, [r3]
 426 005c DBB2     		uxtb	r3, r3
 427 005e 03F00103 		and	r3, r3, #1
 428 0062 DBB2     		uxtb	r3, r3
 429 0064 1343     		orrs	r3, r3, r2
 430 0066 DBB2     		uxtb	r3, r3
 431 0068 03F00303 		and	r3, r3, #3
 432 006c FB70     		strb	r3, [r7, #3]
 452:.\Generated_Source\PSoC5/cyfitter_cfg.c **** 		CyDelayCycles(10u * 12u); /* Delay 10us based on 12MHz clock */
 433              		.loc 1 452 0 discriminator 1
 434 006e 7820     		movs	r0, #120
 435 0070 FFF7FEFF 		bl	CyDelayCycles
 449:.\Generated_Source\PSoC5/cyfitter_cfg.c **** 	for (timeout = 250u / 10u; (timeout > 0u) && (pllLock != 0x03u); timeout--)
 436              		.loc 1 449 0 discriminator 1
 437 0074 7B68     		ldr	r3, [r7, #4]
 438 0076 013B     		subs	r3, r3, #1
 439 0078 7B60     		str	r3, [r7, #4]
 440              	.L17:
 441 007a 7B68     		ldr	r3, [r7, #4]
 442 007c 002B     		cmp	r3, #0
 443 007e 02D0     		beq	.L18
 449:.\Generated_Source\PSoC5/cyfitter_cfg.c **** 	for (timeout = 250u / 10u; (timeout > 0u) && (pllLock != 0x03u); timeout--)
 444              		.loc 1 449 0 is_stmt 0 discriminator 2
 445 0080 FB78     		ldrb	r3, [r7, #3]	@ zero_extendqisi2
 446 0082 032B     		cmp	r3, #3
 447 0084 E5D1     		bne	.L19
 448              	.L18:
 453:.\Generated_Source\PSoC5/cyfitter_cfg.c **** 	}
 454:.\Generated_Source\PSoC5/cyfitter_cfg.c **** 	/* If we ran out of time the PLL didn't lock so go to the error function */
 455:.\Generated_Source\PSoC5/cyfitter_cfg.c **** 	if (timeout == 0u)
 449              		.loc 1 455 0 is_stmt 1
 450 0086 7B68     		ldr	r3, [r7, #4]
 451 0088 002B     		cmp	r3, #0
 452 008a 02D1     		bne	.L20
 456:.\Generated_Source\PSoC5/cyfitter_cfg.c **** 	{
ARM GAS  C:\Users\SCOTTC~1\AppData\Local\Temp\cc1fObWL.s 			page 17


 457:.\Generated_Source\PSoC5/cyfitter_cfg.c **** 		CyClockStartupError(CYCLOCKSTART_PLL_ERROR);
 453              		.loc 1 457 0
 454 008c 0320     		movs	r0, #3
 455 008e FFF7FEFF 		bl	CyClockStartupError
 456              	.L20:
 458:.\Generated_Source\PSoC5/cyfitter_cfg.c **** 	}
 459:.\Generated_Source\PSoC5/cyfitter_cfg.c **** 
 460:.\Generated_Source\PSoC5/cyfitter_cfg.c **** 	/* Configure Bus/Master Clock based on settings from Clock DWR */
 461:.\Generated_Source\PSoC5/cyfitter_cfg.c **** 	CY_SET_XTND_REG16((void CYFAR *)(CYREG_CLKDIST_MSTR0), 0x0100u);
 457              		.loc 1 461 0
 458 0092 234B     		ldr	r3, .L21+44
 459 0094 4FF48072 		mov	r2, #256
 460 0098 1A80     		strh	r2, [r3]	@ movhi
 462:.\Generated_Source\PSoC5/cyfitter_cfg.c **** 	CY_SET_XTND_REG8((void CYFAR *)(CYREG_CLKDIST_MSTR0), 0x07u);
 461              		.loc 1 462 0
 462 009a 214B     		ldr	r3, .L21+44
 463 009c 0722     		movs	r2, #7
 464 009e 1A70     		strb	r2, [r3]
 463:.\Generated_Source\PSoC5/cyfitter_cfg.c **** 	CY_SET_XTND_REG8((void CYFAR *)(CYREG_CLKDIST_BCFG0), 0x00u);
 465              		.loc 1 463 0
 466 00a0 204B     		ldr	r3, .L21+48
 467 00a2 0022     		movs	r2, #0
 468 00a4 1A70     		strb	r2, [r3]
 464:.\Generated_Source\PSoC5/cyfitter_cfg.c **** 	CY_SET_XTND_REG8((void CYFAR *)(CYREG_CLKDIST_BCFG2), 0x48u);
 469              		.loc 1 464 0
 470 00a6 204B     		ldr	r3, .L21+52
 471 00a8 4822     		movs	r2, #72
 472 00aa 1A70     		strb	r2, [r3]
 465:.\Generated_Source\PSoC5/cyfitter_cfg.c **** 	CY_SET_XTND_REG8((void CYFAR *)(CYREG_CLKDIST_MSTR0), 0x00u);
 473              		.loc 1 465 0
 474 00ac 1C4B     		ldr	r3, .L21+44
 475 00ae 0022     		movs	r2, #0
 476 00b0 1A70     		strb	r2, [r3]
 466:.\Generated_Source\PSoC5/cyfitter_cfg.c **** 	CY_SET_XTND_REG8((void CYFAR *)(CYREG_CLKDIST_LD), 0x02u);
 477              		.loc 1 466 0
 478 00b2 1E4B     		ldr	r3, .L21+56
 479 00b4 0222     		movs	r2, #2
 480 00b6 1A70     		strb	r2, [r3]
 467:.\Generated_Source\PSoC5/cyfitter_cfg.c **** 	CY_SET_XTND_REG8((void CYFAR *)(CYREG_CLKDIST_DLY1), 0x04u);
 481              		.loc 1 467 0
 482 00b8 1D4B     		ldr	r3, .L21+60
 483 00ba 0422     		movs	r2, #4
 484 00bc 1A70     		strb	r2, [r3]
 468:.\Generated_Source\PSoC5/cyfitter_cfg.c **** 
 469:.\Generated_Source\PSoC5/cyfitter_cfg.c **** 	CY_SET_XTND_REG8((void CYFAR *)(CYREG_PM_ACT_CFG2), ((CY_GET_XTND_REG8((void CYFAR *)CYREG_PM_ACT_
 485              		.loc 1 469 0
 486 00be 1D4B     		ldr	r3, .L21+64
 487 00c0 1C4A     		ldr	r2, .L21+64
 488 00c2 1278     		ldrb	r2, [r2]
 489 00c4 D2B2     		uxtb	r2, r2
 490 00c6 42F00102 		orr	r2, r2, #1
 491 00ca D2B2     		uxtb	r2, r2
 492 00cc 1A70     		strb	r2, [r3]
 470:.\Generated_Source\PSoC5/cyfitter_cfg.c **** 	CY_SET_XTND_REG8((void CYFAR *)(CYREG_PM_ACT_CFG1), ((CY_GET_XTND_REG8((void CYFAR *)CYREG_PM_ACT_
 493              		.loc 1 470 0
 494 00ce 1A4B     		ldr	r3, .L21+68
 495 00d0 194A     		ldr	r2, .L21+68
ARM GAS  C:\Users\SCOTTC~1\AppData\Local\Temp\cc1fObWL.s 			page 18


 496 00d2 1278     		ldrb	r2, [r2]
 497 00d4 D2B2     		uxtb	r2, r2
 498 00d6 42F00102 		orr	r2, r2, #1
 499 00da D2B2     		uxtb	r2, r2
 500 00dc 1A70     		strb	r2, [r3]
 471:.\Generated_Source\PSoC5/cyfitter_cfg.c **** 	CY_SET_XTND_REG8((void CYFAR *)(CYREG_PM_ACT_CFG0), ((CY_GET_XTND_REG8((void CYFAR *)CYREG_PM_ACT_
 501              		.loc 1 471 0
 502 00de 174B     		ldr	r3, .L21+72
 503 00e0 164A     		ldr	r2, .L21+72
 504 00e2 1278     		ldrb	r2, [r2]
 505 00e4 D2B2     		uxtb	r2, r2
 506 00e6 62F07F02 		orn	r2, r2, #127
 507 00ea D2B2     		uxtb	r2, r2
 508 00ec 1A70     		strb	r2, [r3]
 472:.\Generated_Source\PSoC5/cyfitter_cfg.c **** }
 509              		.loc 1 472 0
 510 00ee 0837     		adds	r7, r7, #8
 511 00f0 BD46     		mov	sp, r7
 512              		@ sp needed
 513 00f2 80BD     		pop	{r7, pc}
 514              	.L22:
 515              		.align	2
 516              	.L21:
 517 00f4 80400040 		.word	1073758336
 518 00f8 82400040 		.word	1073758338
 519 00fc 00410040 		.word	1073758464
 520 0100 180A0048 		.word	1207962136
 521 0104 00430040 		.word	1073758976
 522 0108 00420040 		.word	1073758720
 523 010c A1460040 		.word	1073759905
 524 0110 08010049 		.word	1224737032
 525 0114 22420040 		.word	1073758754
 526 0118 20420040 		.word	1073758752
 527 011c 25420040 		.word	1073758757
 528 0120 04400040 		.word	1073758212
 529 0124 06400040 		.word	1073758214
 530 0128 08400040 		.word	1073758216
 531 012c 01400040 		.word	1073758209
 532 0130 0B400040 		.word	1073758219
 533 0134 A2430040 		.word	1073759138
 534 0138 A1430040 		.word	1073759137
 535 013c A0430040 		.word	1073759136
 536              		.cfi_endproc
 537              	.LFE5:
 538              		.size	ClockSetup, .-ClockSetup
 539              		.section	.text.AnalogSetDefault,"ax",%progbits
 540              		.align	2
 541              		.thumb
 542              		.thumb_func
 543              		.type	AnalogSetDefault, %function
 544              	AnalogSetDefault:
 545              	.LFB6:
 473:.\Generated_Source\PSoC5/cyfitter_cfg.c **** 
 474:.\Generated_Source\PSoC5/cyfitter_cfg.c **** 
 475:.\Generated_Source\PSoC5/cyfitter_cfg.c **** /* Analog API Functions */
 476:.\Generated_Source\PSoC5/cyfitter_cfg.c **** 
 477:.\Generated_Source\PSoC5/cyfitter_cfg.c **** 
ARM GAS  C:\Users\SCOTTC~1\AppData\Local\Temp\cc1fObWL.s 			page 19


 478:.\Generated_Source\PSoC5/cyfitter_cfg.c **** /*******************************************************************************
 479:.\Generated_Source\PSoC5/cyfitter_cfg.c **** * Function Name: AnalogSetDefault
 480:.\Generated_Source\PSoC5/cyfitter_cfg.c **** ********************************************************************************
 481:.\Generated_Source\PSoC5/cyfitter_cfg.c **** *
 482:.\Generated_Source\PSoC5/cyfitter_cfg.c **** * Summary:
 483:.\Generated_Source\PSoC5/cyfitter_cfg.c **** *  Sets up the analog portions of the chip to default values based on chip
 484:.\Generated_Source\PSoC5/cyfitter_cfg.c **** *  configuration options from the project.
 485:.\Generated_Source\PSoC5/cyfitter_cfg.c **** *
 486:.\Generated_Source\PSoC5/cyfitter_cfg.c **** * Parameters:
 487:.\Generated_Source\PSoC5/cyfitter_cfg.c **** *  void
 488:.\Generated_Source\PSoC5/cyfitter_cfg.c **** *
 489:.\Generated_Source\PSoC5/cyfitter_cfg.c **** * Return:
 490:.\Generated_Source\PSoC5/cyfitter_cfg.c **** *  void
 491:.\Generated_Source\PSoC5/cyfitter_cfg.c **** *
 492:.\Generated_Source\PSoC5/cyfitter_cfg.c **** *******************************************************************************/
 493:.\Generated_Source\PSoC5/cyfitter_cfg.c **** static void AnalogSetDefault(void);
 494:.\Generated_Source\PSoC5/cyfitter_cfg.c **** static void AnalogSetDefault(void)
 495:.\Generated_Source\PSoC5/cyfitter_cfg.c **** {
 546              		.loc 1 495 0
 547              		.cfi_startproc
 548              		@ args = 0, pretend = 0, frame = 8
 549              		@ frame_needed = 1, uses_anonymous_args = 0
 550              		@ link register save eliminated.
 551 0000 80B4     		push	{r7}
 552              		.cfi_def_cfa_offset 4
 553              		.cfi_offset 7, -4
 554 0002 83B0     		sub	sp, sp, #12
 555              		.cfi_def_cfa_offset 16
 556 0004 00AF     		add	r7, sp, #0
 557              		.cfi_def_cfa_register 7
 496:.\Generated_Source\PSoC5/cyfitter_cfg.c **** 	uint8 bg_xover_inl_trim = CY_GET_XTND_REG8((void CYFAR *)(CYREG_FLSHID_MFG_CFG_BG_XOVER_INL_TRIM +
 558              		.loc 1 496 0
 559 0006 124B     		ldr	r3, .L24
 560 0008 1B78     		ldrb	r3, [r3]
 561 000a FB71     		strb	r3, [r7, #7]
 497:.\Generated_Source\PSoC5/cyfitter_cfg.c **** 	CY_SET_XTND_REG8((void CYFAR *)(CYREG_BG_DFT0), (bg_xover_inl_trim & 0x07u));
 562              		.loc 1 497 0
 563 000c 114B     		ldr	r3, .L24+4
 564 000e FA79     		ldrb	r2, [r7, #7]
 565 0010 02F00702 		and	r2, r2, #7
 566 0014 D2B2     		uxtb	r2, r2
 567 0016 1A70     		strb	r2, [r3]
 498:.\Generated_Source\PSoC5/cyfitter_cfg.c **** 	CY_SET_XTND_REG8((void CYFAR *)(CYREG_BG_DFT1), ((bg_xover_inl_trim >> 4) & 0x0Fu));
 568              		.loc 1 498 0
 569 0018 0F4B     		ldr	r3, .L24+8
 570 001a FA79     		ldrb	r2, [r7, #7]	@ zero_extendqisi2
 571 001c 1209     		lsrs	r2, r2, #4
 572 001e D2B2     		uxtb	r2, r2
 573 0020 1A70     		strb	r2, [r3]
 499:.\Generated_Source\PSoC5/cyfitter_cfg.c **** 	CY_SET_XTND_REG8((void CYFAR *)CYREG_PRT0_AG, 0x81u);
 574              		.loc 1 499 0
 575 0022 0E4B     		ldr	r3, .L24+12
 576 0024 8122     		movs	r2, #129
 577 0026 1A70     		strb	r2, [r3]
 500:.\Generated_Source\PSoC5/cyfitter_cfg.c **** 	CY_SET_XTND_REG8((void CYFAR *)CYREG_PRT2_AMUX, 0x80u);
 578              		.loc 1 500 0
 579 0028 0D4B     		ldr	r3, .L24+16
ARM GAS  C:\Users\SCOTTC~1\AppData\Local\Temp\cc1fObWL.s 			page 20


 580 002a 8022     		movs	r2, #128
 581 002c 1A70     		strb	r2, [r3]
 501:.\Generated_Source\PSoC5/cyfitter_cfg.c **** 	CY_SET_XTND_REG8((void CYFAR *)CYREG_DAC2_SW3, 0x01u);
 582              		.loc 1 501 0
 583 002e 0D4B     		ldr	r3, .L24+20
 584 0030 0122     		movs	r2, #1
 585 0032 1A70     		strb	r2, [r3]
 502:.\Generated_Source\PSoC5/cyfitter_cfg.c **** 	CY_SET_XTND_REG8((void CYFAR *)CYREG_DSM0_SW0, 0x10u);
 586              		.loc 1 502 0
 587 0034 0C4B     		ldr	r3, .L24+24
 588 0036 1022     		movs	r2, #16
 589 0038 1A70     		strb	r2, [r3]
 503:.\Generated_Source\PSoC5/cyfitter_cfg.c **** 	CY_SET_XTND_REG8((void CYFAR *)CYREG_DSM0_SW4, 0x80u);
 590              		.loc 1 503 0
 591 003a 0C4B     		ldr	r3, .L24+28
 592 003c 8022     		movs	r2, #128
 593 003e 1A70     		strb	r2, [r3]
 504:.\Generated_Source\PSoC5/cyfitter_cfg.c **** 	CY_SET_XTND_REG8((void CYFAR *)CYREG_PUMP_CR0, 0x44u);
 594              		.loc 1 504 0
 595 0040 0B4B     		ldr	r3, .L24+32
 596 0042 4422     		movs	r2, #68
 597 0044 1A70     		strb	r2, [r3]
 505:.\Generated_Source\PSoC5/cyfitter_cfg.c **** }
 598              		.loc 1 505 0
 599 0046 0C37     		adds	r7, r7, #12
 600 0048 BD46     		mov	sp, r7
 601              		@ sp needed
 602 004a 5DF8047B 		ldr	r7, [sp], #4
 603 004e 7047     		bx	lr
 604              	.L25:
 605              		.align	2
 606              	.L24:
 607 0050 CF010049 		.word	1224737231
 608 0054 6E580040 		.word	1073764462
 609 0058 6F580040 		.word	1073764463
 610 005c 0D510040 		.word	1073762573
 611 0060 2C510040 		.word	1073762604
 612 0064 935A0040 		.word	1073765011
 613 0068 005B0040 		.word	1073765120
 614 006c 045B0040 		.word	1073765124
 615 0070 76580040 		.word	1073764470
 616              		.cfi_endproc
 617              	.LFE6:
 618              		.size	AnalogSetDefault, .-AnalogSetDefault
 619              		.section	.text.SetAnalogRoutingPumps,"ax",%progbits
 620              		.align	2
 621              		.global	SetAnalogRoutingPumps
 622              		.thumb
 623              		.thumb_func
 624              		.type	SetAnalogRoutingPumps, %function
 625              	SetAnalogRoutingPumps:
 626              	.LFB7:
 506:.\Generated_Source\PSoC5/cyfitter_cfg.c **** 
 507:.\Generated_Source\PSoC5/cyfitter_cfg.c **** 
 508:.\Generated_Source\PSoC5/cyfitter_cfg.c **** /*******************************************************************************
 509:.\Generated_Source\PSoC5/cyfitter_cfg.c **** * Function Name: SetAnalogRoutingPumps
 510:.\Generated_Source\PSoC5/cyfitter_cfg.c **** ********************************************************************************
ARM GAS  C:\Users\SCOTTC~1\AppData\Local\Temp\cc1fObWL.s 			page 21


 511:.\Generated_Source\PSoC5/cyfitter_cfg.c **** *
 512:.\Generated_Source\PSoC5/cyfitter_cfg.c **** * Summary:
 513:.\Generated_Source\PSoC5/cyfitter_cfg.c **** * Enables or disables the analog pumps feeding analog routing switches.
 514:.\Generated_Source\PSoC5/cyfitter_cfg.c **** * Intended to be called at startup, based on the Vdda system configuration;
 515:.\Generated_Source\PSoC5/cyfitter_cfg.c **** * may be called during operation when the user informs us that the Vdda voltage
 516:.\Generated_Source\PSoC5/cyfitter_cfg.c **** * crossed the pump threshold.
 517:.\Generated_Source\PSoC5/cyfitter_cfg.c **** *
 518:.\Generated_Source\PSoC5/cyfitter_cfg.c **** * Parameters:
 519:.\Generated_Source\PSoC5/cyfitter_cfg.c **** *  enabled - 1 to enable the pumps, 0 to disable the pumps
 520:.\Generated_Source\PSoC5/cyfitter_cfg.c **** *
 521:.\Generated_Source\PSoC5/cyfitter_cfg.c **** * Return:
 522:.\Generated_Source\PSoC5/cyfitter_cfg.c **** *  void
 523:.\Generated_Source\PSoC5/cyfitter_cfg.c **** *
 524:.\Generated_Source\PSoC5/cyfitter_cfg.c **** *******************************************************************************/
 525:.\Generated_Source\PSoC5/cyfitter_cfg.c **** void SetAnalogRoutingPumps(uint8 enabled)
 526:.\Generated_Source\PSoC5/cyfitter_cfg.c **** {
 627              		.loc 1 526 0
 628              		.cfi_startproc
 629              		@ args = 0, pretend = 0, frame = 16
 630              		@ frame_needed = 1, uses_anonymous_args = 0
 631              		@ link register save eliminated.
 632 0000 80B4     		push	{r7}
 633              		.cfi_def_cfa_offset 4
 634              		.cfi_offset 7, -4
 635 0002 85B0     		sub	sp, sp, #20
 636              		.cfi_def_cfa_offset 24
 637 0004 00AF     		add	r7, sp, #0
 638              		.cfi_def_cfa_register 7
 639 0006 0346     		mov	r3, r0
 640 0008 FB71     		strb	r3, [r7, #7]
 527:.\Generated_Source\PSoC5/cyfitter_cfg.c **** 	uint8 regValue = CY_GET_XTND_REG8((void CYFAR *)CYREG_PUMP_CR0);
 641              		.loc 1 527 0
 642 000a 0B4B     		ldr	r3, .L29
 643 000c 1B78     		ldrb	r3, [r3]
 644 000e FB73     		strb	r3, [r7, #15]
 528:.\Generated_Source\PSoC5/cyfitter_cfg.c **** 	if (enabled != 0u)
 645              		.loc 1 528 0
 646 0010 FB79     		ldrb	r3, [r7, #7]	@ zero_extendqisi2
 647 0012 002B     		cmp	r3, #0
 648 0014 04D0     		beq	.L27
 529:.\Generated_Source\PSoC5/cyfitter_cfg.c **** 	{
 530:.\Generated_Source\PSoC5/cyfitter_cfg.c **** 		regValue |= 0x22u;
 649              		.loc 1 530 0
 650 0016 FB7B     		ldrb	r3, [r7, #15]
 651 0018 43F02203 		orr	r3, r3, #34
 652 001c FB73     		strb	r3, [r7, #15]
 653 001e 03E0     		b	.L28
 654              	.L27:
 531:.\Generated_Source\PSoC5/cyfitter_cfg.c **** 	}
 532:.\Generated_Source\PSoC5/cyfitter_cfg.c **** 	else
 533:.\Generated_Source\PSoC5/cyfitter_cfg.c **** 	{
 534:.\Generated_Source\PSoC5/cyfitter_cfg.c **** 		regValue &= (uint8)~0x22u;
 655              		.loc 1 534 0
 656 0020 FB7B     		ldrb	r3, [r7, #15]
 657 0022 23F02203 		bic	r3, r3, #34
 658 0026 FB73     		strb	r3, [r7, #15]
 659              	.L28:
ARM GAS  C:\Users\SCOTTC~1\AppData\Local\Temp\cc1fObWL.s 			page 22


 535:.\Generated_Source\PSoC5/cyfitter_cfg.c **** 	}
 536:.\Generated_Source\PSoC5/cyfitter_cfg.c **** 	CY_SET_XTND_REG8((void CYFAR *)CYREG_PUMP_CR0, regValue);
 660              		.loc 1 536 0
 661 0028 034B     		ldr	r3, .L29
 662 002a FA7B     		ldrb	r2, [r7, #15]
 663 002c 1A70     		strb	r2, [r3]
 537:.\Generated_Source\PSoC5/cyfitter_cfg.c **** }
 664              		.loc 1 537 0
 665 002e 1437     		adds	r7, r7, #20
 666 0030 BD46     		mov	sp, r7
 667              		@ sp needed
 668 0032 5DF8047B 		ldr	r7, [sp], #4
 669 0036 7047     		bx	lr
 670              	.L30:
 671              		.align	2
 672              	.L29:
 673 0038 76580040 		.word	1073764470
 674              		.cfi_endproc
 675              	.LFE7:
 676              		.size	SetAnalogRoutingPumps, .-SetAnalogRoutingPumps
 677              		.section	.text.cyfitter_cfg,"ax",%progbits
 678              		.align	2
 679              		.global	cyfitter_cfg
 680              		.thumb
 681              		.thumb_func
 682              		.type	cyfitter_cfg, %function
 683              	cyfitter_cfg:
 684              	.LFB8:
 538:.\Generated_Source\PSoC5/cyfitter_cfg.c **** 
 539:.\Generated_Source\PSoC5/cyfitter_cfg.c **** #define CY_AMUX_UNUSED CYREG_BOOST_SR
 540:.\Generated_Source\PSoC5/cyfitter_cfg.c **** 
 541:.\Generated_Source\PSoC5/cyfitter_cfg.c **** 
 542:.\Generated_Source\PSoC5/cyfitter_cfg.c **** /*******************************************************************************
 543:.\Generated_Source\PSoC5/cyfitter_cfg.c **** * Function Name: cyfitter_cfg
 544:.\Generated_Source\PSoC5/cyfitter_cfg.c **** ********************************************************************************
 545:.\Generated_Source\PSoC5/cyfitter_cfg.c **** * Summary:
 546:.\Generated_Source\PSoC5/cyfitter_cfg.c **** *  This function is called by the start-up code for the selected device. It
 547:.\Generated_Source\PSoC5/cyfitter_cfg.c **** *  performs all of the necessary device configuration based on the design
 548:.\Generated_Source\PSoC5/cyfitter_cfg.c **** *  settings.  This includes settings from the Design Wide Resources (DWR) such
 549:.\Generated_Source\PSoC5/cyfitter_cfg.c **** *  as Clocks and Pins as well as any component configuration that is necessary.
 550:.\Generated_Source\PSoC5/cyfitter_cfg.c **** *
 551:.\Generated_Source\PSoC5/cyfitter_cfg.c **** * Parameters:  
 552:.\Generated_Source\PSoC5/cyfitter_cfg.c **** *   void
 553:.\Generated_Source\PSoC5/cyfitter_cfg.c **** *
 554:.\Generated_Source\PSoC5/cyfitter_cfg.c **** * Return:
 555:.\Generated_Source\PSoC5/cyfitter_cfg.c **** *   void
 556:.\Generated_Source\PSoC5/cyfitter_cfg.c **** *
 557:.\Generated_Source\PSoC5/cyfitter_cfg.c **** *******************************************************************************/
 558:.\Generated_Source\PSoC5/cyfitter_cfg.c **** 
 559:.\Generated_Source\PSoC5/cyfitter_cfg.c **** void cyfitter_cfg(void)
 560:.\Generated_Source\PSoC5/cyfitter_cfg.c **** {
 685              		.loc 1 560 0
 686              		.cfi_startproc
 687              		@ args = 0, pretend = 0, frame = 0
 688              		@ frame_needed = 1, uses_anonymous_args = 0
 689 0000 80B5     		push	{r7, lr}
 690              		.cfi_def_cfa_offset 8
ARM GAS  C:\Users\SCOTTC~1\AppData\Local\Temp\cc1fObWL.s 			page 23


 691              		.cfi_offset 7, -8
 692              		.cfi_offset 14, -4
 693 0002 00AF     		add	r7, sp, #0
 694              		.cfi_def_cfa_register 7
 561:.\Generated_Source\PSoC5/cyfitter_cfg.c **** #ifdef CYGlobalIntDisable
 562:.\Generated_Source\PSoC5/cyfitter_cfg.c **** 	/* Disable interrupts by default. Let user enable if/when they want. */
 563:.\Generated_Source\PSoC5/cyfitter_cfg.c **** 	CYGlobalIntDisable
 695              		.loc 1 563 0
 696              	@ 563 ".\Generated_Source\PSoC5\cyfitter_cfg.c" 1
 697 0004 72B6     		CPSID   i
 698              	@ 0 "" 2
 564:.\Generated_Source\PSoC5/cyfitter_cfg.c **** #endif
 565:.\Generated_Source\PSoC5/cyfitter_cfg.c **** 
 566:.\Generated_Source\PSoC5/cyfitter_cfg.c **** 
 567:.\Generated_Source\PSoC5/cyfitter_cfg.c **** 	/* Set Flash Cycles based on max possible frequency in case a glitch occurs during ClockSetup(). *
 568:.\Generated_Source\PSoC5/cyfitter_cfg.c **** 	CY_SET_XTND_REG8((void CYFAR *)(CYREG_CACHE_CC_CTL), (((CYDEV_INSTRUCT_CACHE_ENABLED) != 0) ? 0x01
 699              		.loc 1 568 0
 700              		.thumb
 701 0006 2F4B     		ldr	r3, .L32
 702 0008 0122     		movs	r2, #1
 703 000a 1A70     		strb	r2, [r3]
 569:.\Generated_Source\PSoC5/cyfitter_cfg.c **** 	/* Setup clocks based on selections from Clock DWR */
 570:.\Generated_Source\PSoC5/cyfitter_cfg.c **** 	ClockSetup();
 704              		.loc 1 570 0
 705 000c FFF7FEFF 		bl	ClockSetup
 571:.\Generated_Source\PSoC5/cyfitter_cfg.c **** 	/* Set Flash Cycles based on newly configured 24.00MHz Bus Clock. */
 572:.\Generated_Source\PSoC5/cyfitter_cfg.c **** 	CY_SET_XTND_REG8((void CYFAR *)(CYREG_CACHE_CC_CTL), (((CYDEV_INSTRUCT_CACHE_ENABLED) != 0) ? 0x81
 706              		.loc 1 572 0
 707 0010 2C4B     		ldr	r3, .L32
 708 0012 8122     		movs	r2, #129
 709 0014 1A70     		strb	r2, [r3]
 573:.\Generated_Source\PSoC5/cyfitter_cfg.c **** 	/* Enable/Disable Debug functionality based on settings from System DWR */
 574:.\Generated_Source\PSoC5/cyfitter_cfg.c **** 	CY_SET_XTND_REG8((void CYFAR *)CYREG_MLOGIC_DEBUG, (CY_GET_XTND_REG8((void CYFAR *)CYREG_MLOGIC_DE
 710              		.loc 1 574 0
 711 0016 2C4B     		ldr	r3, .L32+4
 712 0018 2B4A     		ldr	r2, .L32+4
 713 001a 1278     		ldrb	r2, [r2]
 714 001c D2B2     		uxtb	r2, r2
 715 001e 42F00402 		orr	r2, r2, #4
 716 0022 D2B2     		uxtb	r2, r2
 717 0024 1A70     		strb	r2, [r3]
 575:.\Generated_Source\PSoC5/cyfitter_cfg.c **** 
 576:.\Generated_Source\PSoC5/cyfitter_cfg.c **** 	{
 577:.\Generated_Source\PSoC5/cyfitter_cfg.c **** 		cfg_dma_init();
 718              		.loc 1 577 0
 719 0026 FFF7FEFF 		bl	cfg_dma_init
 578:.\Generated_Source\PSoC5/cyfitter_cfg.c **** 
 579:.\Generated_Source\PSoC5/cyfitter_cfg.c **** 		/* Perform normal device configuration. Order is not critical for these items. */
 580:.\Generated_Source\PSoC5/cyfitter_cfg.c **** 		CY_SET_XTND_REG8((void CYFAR *)(CYREG_DSM0_CR3), 0x0Au);
 720              		.loc 1 580 0
 721 002a 284B     		ldr	r3, .L32+8
 722 002c 0A22     		movs	r2, #10
 723 002e 1A70     		strb	r2, [r3]
 581:.\Generated_Source\PSoC5/cyfitter_cfg.c **** 		CYMEMZERO((void CYFAR *)(CYREG_PHUB_CFGMEM0_CFG0), 4u);
 724              		.loc 1 581 0
 725 0030 2748     		ldr	r0, .L32+12
 726 0032 0421     		movs	r1, #4
ARM GAS  C:\Users\SCOTTC~1\AppData\Local\Temp\cc1fObWL.s 			page 24


 727 0034 FFF7FEFF 		bl	CYMEMZERO
 582:.\Generated_Source\PSoC5/cyfitter_cfg.c **** 		CYMEMZERO((void CYFAR *)(CYREG_PHUB_CFGMEM10_CFG0), 4u);
 728              		.loc 1 582 0
 729 0038 2648     		ldr	r0, .L32+16
 730 003a 0421     		movs	r1, #4
 731 003c FFF7FEFF 		bl	CYMEMZERO
 583:.\Generated_Source\PSoC5/cyfitter_cfg.c **** 		CYMEMZERO((void CYFAR *)(CYREG_PHUB_CFGMEM8_CFG0), 4u);
 732              		.loc 1 583 0
 733 0040 2548     		ldr	r0, .L32+20
 734 0042 0421     		movs	r1, #4
 735 0044 FFF7FEFF 		bl	CYMEMZERO
 584:.\Generated_Source\PSoC5/cyfitter_cfg.c **** 
 585:.\Generated_Source\PSoC5/cyfitter_cfg.c **** 		/* Enable digital routing */
 586:.\Generated_Source\PSoC5/cyfitter_cfg.c **** 		CY_SET_XTND_REG8((void CYFAR *)CYREG_BCTL0_BANK_CTL, CY_GET_XTND_REG8((void CYFAR *)CYREG_BCTL0_B
 736              		.loc 1 586 0
 737 0048 244B     		ldr	r3, .L32+24
 738 004a 244A     		ldr	r2, .L32+24
 739 004c 1278     		ldrb	r2, [r2]
 740 004e D2B2     		uxtb	r2, r2
 741 0050 42F00202 		orr	r2, r2, #2
 742 0054 D2B2     		uxtb	r2, r2
 743 0056 1A70     		strb	r2, [r3]
 587:.\Generated_Source\PSoC5/cyfitter_cfg.c **** 		CY_SET_XTND_REG8((void CYFAR *)CYREG_BCTL1_BANK_CTL, CY_GET_XTND_REG8((void CYFAR *)CYREG_BCTL1_B
 744              		.loc 1 587 0
 745 0058 214B     		ldr	r3, .L32+28
 746 005a 214A     		ldr	r2, .L32+28
 747 005c 1278     		ldrb	r2, [r2]
 748 005e D2B2     		uxtb	r2, r2
 749 0060 42F00202 		orr	r2, r2, #2
 750 0064 D2B2     		uxtb	r2, r2
 751 0066 1A70     		strb	r2, [r3]
 588:.\Generated_Source\PSoC5/cyfitter_cfg.c **** 
 589:.\Generated_Source\PSoC5/cyfitter_cfg.c **** 		/* Enable UDB array */
 590:.\Generated_Source\PSoC5/cyfitter_cfg.c **** 		CY_SET_XTND_REG8((void CYFAR *)CYREG_PM_ACT_CFG0, CY_GET_XTND_REG8((void CYFAR *)CYREG_PM_ACT_CFG
 752              		.loc 1 590 0
 753 0068 1E4B     		ldr	r3, .L32+32
 754 006a 1E4A     		ldr	r2, .L32+32
 755 006c 1278     		ldrb	r2, [r2]
 756 006e D2B2     		uxtb	r2, r2
 757 0070 42F04002 		orr	r2, r2, #64
 758 0074 D2B2     		uxtb	r2, r2
 759 0076 1A70     		strb	r2, [r3]
 591:.\Generated_Source\PSoC5/cyfitter_cfg.c **** 		CY_SET_XTND_REG8((void CYFAR *)CYREG_PM_AVAIL_CR2, CY_GET_XTND_REG8((void CYFAR *)CYREG_PM_AVAIL_
 760              		.loc 1 591 0
 761 0078 1B4B     		ldr	r3, .L32+36
 762 007a 1B4A     		ldr	r2, .L32+36
 763 007c 1278     		ldrb	r2, [r2]
 764 007e D2B2     		uxtb	r2, r2
 765 0080 42F01002 		orr	r2, r2, #16
 766 0084 D2B2     		uxtb	r2, r2
 767 0086 1A70     		strb	r2, [r3]
 592:.\Generated_Source\PSoC5/cyfitter_cfg.c **** 	}
 593:.\Generated_Source\PSoC5/cyfitter_cfg.c **** 
 594:.\Generated_Source\PSoC5/cyfitter_cfg.c **** 
 595:.\Generated_Source\PSoC5/cyfitter_cfg.c **** 	/* Perform second pass device configuration. These items must be configured in specific order afte
 596:.\Generated_Source\PSoC5/cyfitter_cfg.c **** 	CYCONFIGCPY((void CYFAR *)(CYREG_PRT0_DM0), (const void CYFAR *)(BS_IOPINS0_0_VAL), 8u);
 768              		.loc 1 596 0
ARM GAS  C:\Users\SCOTTC~1\AppData\Local\Temp\cc1fObWL.s 			page 25


 769 0088 1848     		ldr	r0, .L32+40
 770 008a 1949     		ldr	r1, .L32+44
 771 008c 0822     		movs	r2, #8
 772 008e FFF7FEFF 		bl	CYCONFIGCPY
 597:.\Generated_Source\PSoC5/cyfitter_cfg.c **** 	CYCONFIGCPY((void CYFAR *)(CYREG_PRT2_DM0), (const void CYFAR *)(BS_IOPINS0_2_VAL), 8u);
 773              		.loc 1 597 0
 774 0092 1848     		ldr	r0, .L32+48
 775 0094 1849     		ldr	r1, .L32+52
 776 0096 0822     		movs	r2, #8
 777 0098 FFF7FEFF 		bl	CYCONFIGCPY
 598:.\Generated_Source\PSoC5/cyfitter_cfg.c **** 	/* Switch Boost to the precision bandgap reference from its internal reference */
 599:.\Generated_Source\PSoC5/cyfitter_cfg.c **** 	CY_SET_REG8((void CYXDATA *)CYREG_BOOST_CR2, (CY_GET_REG8((void CYXDATA *)CYREG_BOOST_CR2) | 0x08u
 778              		.loc 1 599 0
 779 009c 174B     		ldr	r3, .L32+56
 780 009e 174A     		ldr	r2, .L32+56
 781 00a0 1278     		ldrb	r2, [r2]
 782 00a2 D2B2     		uxtb	r2, r2
 783 00a4 42F00802 		orr	r2, r2, #8
 784 00a8 D2B2     		uxtb	r2, r2
 785 00aa 1A70     		strb	r2, [r3]
 600:.\Generated_Source\PSoC5/cyfitter_cfg.c **** 	CY_SET_XTND_REG8((void CYFAR *)(CYREG_PANTHER_WAITPIPE), 0x01u);
 786              		.loc 1 600 0
 787 00ac 144B     		ldr	r3, .L32+60
 788 00ae 0122     		movs	r2, #1
 789 00b0 1A70     		strb	r2, [r3]
 601:.\Generated_Source\PSoC5/cyfitter_cfg.c **** 
 602:.\Generated_Source\PSoC5/cyfitter_cfg.c **** 	/* Perform basic analog initialization to defaults */
 603:.\Generated_Source\PSoC5/cyfitter_cfg.c **** 	AnalogSetDefault();
 790              		.loc 1 603 0
 791 00b2 FFF7FEFF 		bl	AnalogSetDefault
 604:.\Generated_Source\PSoC5/cyfitter_cfg.c **** 
 605:.\Generated_Source\PSoC5/cyfitter_cfg.c **** 	/* Configure alternate active mode */
 606:.\Generated_Source\PSoC5/cyfitter_cfg.c **** 	CYCONFIGCPY((void CYFAR *)CYDEV_PM_STBY_BASE, (const void CYFAR *)CYDEV_PM_ACT_BASE, 14u);
 792              		.loc 1 606 0
 793 00b6 1348     		ldr	r0, .L32+64
 794 00b8 0A49     		ldr	r1, .L32+32
 795 00ba 0E22     		movs	r2, #14
 796 00bc FFF7FEFF 		bl	CYCONFIGCPY
 607:.\Generated_Source\PSoC5/cyfitter_cfg.c **** }
 797              		.loc 1 607 0
 798 00c0 80BD     		pop	{r7, pc}
 799              	.L33:
 800 00c2 00BF     		.align	2
 801              	.L32:
 802 00c4 00480040 		.word	1073760256
 803 00c8 E8460040 		.word	1073759976
 804 00cc 83580040 		.word	1073764483
 805 00d0 00760040 		.word	1073772032
 806 00d4 50760040 		.word	1073772112
 807 00d8 40760040 		.word	1073772096
 808 00dc 03500140 		.word	1073827843
 809 00e0 13500140 		.word	1073827859
 810 00e4 A0430040 		.word	1073759136
 811 00e8 C2430040 		.word	1073759170
 812 00ec 02510040 		.word	1073762562
 813 00f0 080A0048 		.word	1207962120
 814 00f4 22510040 		.word	1073762594
ARM GAS  C:\Users\SCOTTC~1\AppData\Local\Temp\cc1fObWL.s 			page 26


 815 00f8 100A0048 		.word	1207962128
 816 00fc 22430040 		.word	1073759010
 817 0100 04000840 		.word	1074266116
 818 0104 B0430040 		.word	1073759152
 819              		.cfi_endproc
 820              	.LFE8:
 821              		.size	cyfitter_cfg, .-cyfitter_cfg
 822              		.bss
 823              		.align	3
 824              	DMA_ZERO_VAL.4850:
 825 0000 00000000 		.space	4
 826 0004 00000000 		.section	.dma_init,"a",%progbits
 827              		.align	2
 828              		.type	CFG_TD_LIST0.4851, %object
 829              		.size	CFG_TD_LIST0.4851, 336
 830              	CFG_TD_LIST0.4851:
 831 0000 0800     		.short	8
 832 0002 02       		.byte	2
 833 0003 23       		.byte	35
 834 0004 0000     		.short	0
 835 0006 0876     		.short	30216
 836 0008 0800     		.short	8
 837 000a 03       		.byte	3
 838 000b 23       		.byte	35
 839 000c 0000     		.short	0
 840 000e 1076     		.short	30224
 841 0010 0800     		.short	8
 842 0012 04       		.byte	4
 843 0013 23       		.byte	35
 844 0014 0000     		.short	0
 845 0016 3076     		.short	30256
 846 0018 0500     		.short	5
 847 001a 05       		.byte	5
 848 001b 23       		.byte	35
 849 001c 0000     		.short	0
 850 001e 2070     		.short	28704
 851 0020 0500     		.short	5
 852 0022 06       		.byte	6
 853 0023 23       		.byte	35
 854 0024 0000     		.short	0
 855 0026 3070     		.short	28720
 856 0028 0500     		.short	5
 857 002a FE       		.byte	-2
 858 002b 23       		.byte	35
 859 002c 0000     		.short	0
 860 002e 7070     		.short	28784
 861 0030 1000     		.short	16
 862 0032 08       		.byte	8
 863 0033 22       		.byte	34
 864 0034 0000     		.short	0
 865 0036 1051     		.short	20752
 866 0038 4000     		.short	64
 867 003a 09       		.byte	9
 868 003b 22       		.byte	34
 869 003c 0000     		.short	0
 870 003e 3051     		.short	20784
 871 0040 1000     		.short	16
ARM GAS  C:\Users\SCOTTC~1\AppData\Local\Temp\cc1fObWL.s 			page 27


 872 0042 0A       		.byte	10
 873 0043 22       		.byte	34
 874 0044 0000     		.short	0
 875 0046 C051     		.short	20928
 876 0048 1000     		.short	16
 877 004a FE       		.byte	-2
 878 004b 22       		.byte	34
 879 004c 0000     		.short	0
 880 004e F051     		.short	20976
 881 0050 8009     		.short	2432
 882 0052 0C       		.byte	12
 883 0053 22       		.byte	34
 884 0054 0000     		.short	0
 885 0056 0000     		.short	0
 886 0058 8000     		.short	128
 887 005a 0D       		.byte	13
 888 005b 22       		.byte	34
 889 005c 0000     		.short	0
 890 005e 000A     		.short	2560
 891 0060 8004     		.short	1152
 892 0062 0E       		.byte	14
 893 0063 22       		.byte	34
 894 0064 0000     		.short	0
 895 0066 800B     		.short	2944
 896 0068 8001     		.short	384
 897 006a 0F       		.byte	15
 898 006b 22       		.byte	34
 899 006c 0000     		.short	0
 900 006e 0014     		.short	5120
 901 0070 8005     		.short	1408
 902 0072 10       		.byte	16
 903 0073 22       		.byte	34
 904 0074 0000     		.short	0
 905 0076 0016     		.short	5632
 906 0078 0002     		.short	512
 907 007a 11       		.byte	17
 908 007b 22       		.byte	34
 909 007c 0000     		.short	0
 910 007e 0042     		.short	16896
 911 0080 8000     		.short	128
 912 0082 12       		.byte	18
 913 0083 22       		.byte	34
 914 0084 0000     		.short	0
 915 0086 0045     		.short	17664
 916 0088 8000     		.short	128
 917 008a 13       		.byte	19
 918 008b 22       		.byte	34
 919 008c 0000     		.short	0
 920 008e 0047     		.short	18176
 921 0090 8000     		.short	128
 922 0092 14       		.byte	20
 923 0093 22       		.byte	34
 924 0094 0000     		.short	0
 925 0096 0049     		.short	18688
 926 0098 8000     		.short	128
 927 009a 15       		.byte	21
 928 009b 22       		.byte	34
ARM GAS  C:\Users\SCOTTC~1\AppData\Local\Temp\cc1fObWL.s 			page 28


 929 009c 0000     		.short	0
 930 009e 004C     		.short	19456
 931 00a0 8000     		.short	128
 932 00a2 16       		.byte	22
 933 00a3 22       		.byte	34
 934 00a4 0000     		.short	0
 935 00a6 004D     		.short	19712
 936 00a8 2000     		.short	32
 937 00aa FE       		.byte	-2
 938 00ab 22       		.byte	34
 939 00ac 0000     		.short	0
 940 00ae 0050     		.short	20480
 941 00b0 8000     		.short	128
 942 00b2 18       		.byte	24
 943 00b3 23       		.byte	35
 944 00b4 0000     		.short	0
 945 00b6 800A     		.short	2688
 946 00b8 8000     		.short	128
 947 00ba 19       		.byte	25
 948 00bb 23       		.byte	35
 949 00bc 0000     		.short	0
 950 00be 804D     		.short	19840
 951 00c0 8000     		.short	128
 952 00c2 1A       		.byte	26
 953 00c3 23       		.byte	35
 954 00c4 0000     		.short	0
 955 00c6 804C     		.short	19584
 956 00c8 8000     		.short	128
 957 00ca 1B       		.byte	27
 958 00cb 23       		.byte	35
 959 00cc 0000     		.short	0
 960 00ce 8047     		.short	18304
 961 00d0 8000     		.short	128
 962 00d2 1C       		.byte	28
 963 00d3 23       		.byte	35
 964 00d4 0000     		.short	0
 965 00d6 0046     		.short	17920
 966 00d8 8000     		.short	128
 967 00da 1D       		.byte	29
 968 00db 23       		.byte	35
 969 00dc 0000     		.short	0
 970 00de 8046     		.short	18048
 971 00e0 8000     		.short	128
 972 00e2 1E       		.byte	30
 973 00e3 23       		.byte	35
 974 00e4 0000     		.short	0
 975 00e6 8045     		.short	17792
 976 00e8 8000     		.short	128
 977 00ea 1F       		.byte	31
 978 00eb 23       		.byte	35
 979 00ec 0000     		.short	0
 980 00ee 0044     		.short	17408
 981 00f0 8000     		.short	128
 982 00f2 20       		.byte	32
 983 00f3 23       		.byte	35
 984 00f4 0000     		.short	0
 985 00f6 8044     		.short	17536
ARM GAS  C:\Users\SCOTTC~1\AppData\Local\Temp\cc1fObWL.s 			page 29


 986 00f8 8000     		.short	128
 987 00fa 21       		.byte	33
 988 00fb 23       		.byte	35
 989 00fc 0000     		.short	0
 990 00fe 801B     		.short	7040
 991 0100 8000     		.short	128
 992 0102 22       		.byte	34
 993 0103 23       		.byte	35
 994 0104 0000     		.short	0
 995 0106 8015     		.short	5504
 996 0108 8000     		.short	128
 997 010a 23       		.byte	35
 998 010b 23       		.byte	35
 999 010c 0000     		.short	0
 1000 010e 8009     		.short	2432
 1001 0110 8000     		.short	128
 1002 0112 24       		.byte	36
 1003 0113 23       		.byte	35
 1004 0114 0000     		.short	0
 1005 0116 000B     		.short	2816
 1006 0118 8000     		.short	128
 1007 011a 25       		.byte	37
 1008 011b 23       		.byte	35
 1009 011c 0000     		.short	0
 1010 011e 8049     		.short	18816
 1011 0120 8000     		.short	128
 1012 0122 26       		.byte	38
 1013 0123 23       		.byte	35
 1014 0124 0000     		.short	0
 1015 0126 0048     		.short	18432
 1016 0128 8000     		.short	128
 1017 012a 27       		.byte	39
 1018 012b 23       		.byte	35
 1019 012c 0000     		.short	0
 1020 012e 8048     		.short	18560
 1021 0130 8000     		.short	128
 1022 0132 28       		.byte	40
 1023 0133 23       		.byte	35
 1024 0134 0000     		.short	0
 1025 0136 0041     		.short	16640
 1026 0138 8000     		.short	128
 1027 013a 29       		.byte	41
 1028 013b 23       		.byte	35
 1029 013c 0000     		.short	0
 1030 013e 8041     		.short	16768
 1031 0140 8000     		.short	128
 1032 0142 2A       		.byte	42
 1033 0143 23       		.byte	35
 1034 0144 0000     		.short	0
 1035 0146 0040     		.short	16384
 1036 0148 8000     		.short	128
 1037 014a FE       		.byte	-2
 1038 014b 23       		.byte	35
 1039 014c 0000     		.short	0
 1040 014e 8040     		.short	16512
 1041              		.section	.rodata
 1042              		.align	2
ARM GAS  C:\Users\SCOTTC~1\AppData\Local\Temp\cc1fObWL.s 			page 30


 1043              		.type	CFG_TD_ADDR0.4852, %object
 1044              		.size	CFG_TD_ADDR0.4852, 168
 1045              	CFG_TD_ADDR0.4852:
 1046 0000 68010000 		.word	CH1_ADDR_DATA0.4846
 1047 0004 60010000 		.word	CH2_ADDR_DATA0.4847
 1048 0008 58010000 		.word	CH6_ADDR_DATA0.4848
 1049 000c 50010000 		.word	DMA_TD_START_CMD.4849
 1050 0010 50010000 		.word	DMA_TD_START_CMD.4849
 1051 0014 50010000 		.word	DMA_TD_START_CMD.4849
 1052 0018 00000000 		.word	DMA_ZERO_VAL.4850
 1053 001c 00000000 		.word	DMA_ZERO_VAL.4850
 1054 0020 00000000 		.word	DMA_ZERO_VAL.4850
 1055 0024 00000000 		.word	DMA_ZERO_VAL.4850
 1056 0028 00000000 		.word	DMA_ZERO_VAL.4850
 1057 002c 00000000 		.word	DMA_ZERO_VAL.4850
 1058 0030 00000000 		.word	DMA_ZERO_VAL.4850
 1059 0034 00000000 		.word	DMA_ZERO_VAL.4850
 1060 0038 00000000 		.word	DMA_ZERO_VAL.4850
 1061 003c 00000000 		.word	DMA_ZERO_VAL.4850
 1062 0040 00000000 		.word	DMA_ZERO_VAL.4850
 1063 0044 00000000 		.word	DMA_ZERO_VAL.4850
 1064 0048 00000000 		.word	DMA_ZERO_VAL.4850
 1065 004c 00000000 		.word	DMA_ZERO_VAL.4850
 1066 0050 00000000 		.word	DMA_ZERO_VAL.4850
 1067 0054 00000000 		.word	DMA_ZERO_VAL.4850
 1068 0058 08000048 		.word	1207959560
 1069 005c 88000048 		.word	1207959688
 1070 0060 08010048 		.word	1207959816
 1071 0064 88010048 		.word	1207959944
 1072 0068 08020048 		.word	1207960072
 1073 006c 88020048 		.word	1207960200
 1074 0070 08030048 		.word	1207960328
 1075 0074 88030048 		.word	1207960456
 1076 0078 08040048 		.word	1207960584
 1077 007c 88040048 		.word	1207960712
 1078 0080 08050048 		.word	1207960840
 1079 0084 88050048 		.word	1207960968
 1080 0088 08060048 		.word	1207961096
 1081 008c 88060048 		.word	1207961224
 1082 0090 08070048 		.word	1207961352
 1083 0094 88070048 		.word	1207961480
 1084 0098 08080048 		.word	1207961608
 1085 009c 88080048 		.word	1207961736
 1086 00a0 08090048 		.word	1207961864
 1087 00a4 88090048 		.word	1207961992
 1088              		.section	.dma_init
 1089              		.align	2
 1090              		.type	DMA_TD_START_CMD.4849, %object
 1091              		.size	DMA_TD_START_CMD.4849, 5
 1092              	DMA_TD_START_CMD.4849:
 1093 0150 01       		.byte	1
 1094 0151 00       		.byte	0
 1095 0152 00       		.byte	0
 1096 0153 00       		.byte	0
 1097 0154 01       		.byte	1
 1098 0155 000000   		.align	2
 1099              		.type	CH6_ADDR_DATA0.4848, %object
ARM GAS  C:\Users\SCOTTC~1\AppData\Local\Temp\cc1fObWL.s 			page 31


 1100              		.size	CH6_ADDR_DATA0.4848, 8
 1101              	CH6_ADDR_DATA0.4848:
 1102 0158 01       		.byte	1
 1103 0159 00       		.byte	0
 1104 015a 00       		.byte	0
 1105 015b 00       		.byte	0
 1106 015c 00       		.byte	0
 1107 015d 48       		.byte	72
 1108 015e 01       		.byte	1
 1109 015f 40       		.byte	64
 1110              		.align	2
 1111              		.type	CH2_ADDR_DATA0.4847, %object
 1112              		.size	CH2_ADDR_DATA0.4847, 8
 1113              	CH2_ADDR_DATA0.4847:
 1114 0160 01       		.byte	1
 1115 0161 00       		.byte	0
 1116 0162 00       		.byte	0
 1117 0163 00       		.byte	0
 1118 0164 00       		.byte	0
 1119 0165 20       		.byte	32
 1120 0166 01       		.byte	1
 1121 0167 40       		.byte	64
 1122              		.align	2
 1123              		.type	CH1_ADDR_DATA0.4846, %object
 1124              		.size	CH1_ADDR_DATA0.4846, 8
 1125              	CH1_ADDR_DATA0.4846:
 1126 0168 01       		.byte	1
 1127 0169 00       		.byte	0
 1128 016a 00       		.byte	0
 1129 016b 00       		.byte	0
 1130 016c 00       		.byte	0
 1131 016d 20       		.byte	32
 1132 016e 00       		.byte	0
 1133 016f 40       		.byte	64
 1134              		.text
 1135              	.Letext0:
 1136              		.file 2 "c:\\program files\\cypress\\psoc creator\\3.2\\psoc creator\\import\\gnu\\arm\\4.8.4\\lib
 1137              		.file 3 ".\\Generated_Source\\PSoC5\\cytypes.h"