ARM GAS  C:\Users\SCOTTC~1\AppData\Local\Temp\ccX3tc9e.s 			page 1


   1              		.syntax unified
   2              		.cpu cortex-m3
   3              		.fpu softvfp
   4              		.eabi_attribute 20, 1
   5              		.eabi_attribute 21, 1
   6              		.eabi_attribute 23, 3
   7              		.eabi_attribute 24, 1
   8              		.eabi_attribute 25, 1
   9              		.eabi_attribute 26, 1
  10              		.eabi_attribute 30, 6
  11              		.eabi_attribute 34, 1
  12              		.eabi_attribute 18, 4
  13              		.thumb
  14              		.file	"main.c"
  15              		.text
  16              	.Ltext0:
  17              		.cfi_sections	.debug_frame
  18              		.comm	buffer,4096,4
  19              		.section	.text.main,"ax",%progbits
  20              		.align	2
  21              		.global	main
  22              		.thumb
  23              		.thumb_func
  24              		.type	main, %function
  25              	main:
  26              	.LFB63:
  27              		.file 1 ".\\main.c"
   1:.\main.c      **** /*******************************************************************************
   2:.\main.c      **** * File Name: main.c
   3:.\main.c      **** *
   4:.\main.c      **** * Version: 1.10
   5:.\main.c      **** *
   6:.\main.c      **** ********************************************************************************
   7:.\main.c      **** * Copyright 2012, Cypress Semiconductor Corporation. All rights reserved.
   8:.\main.c      **** * This software is owned by Cypress Semiconductor Corporation and is protected
   9:.\main.c      **** * by and subject to worldwide patent and copyright laws and treaties.
  10:.\main.c      **** * Therefore, you may use this software only as provided in the license agreement
  11:.\main.c      **** * accompanying the software package from which you obtained this software.
  12:.\main.c      **** * CYPRESS AND ITS SUPPLIERS MAKE NO WARRANTY OF ANY KIND, EXPRESS OR IMPLIED,
  13:.\main.c      **** * WITH REGARD TO THIS SOFTWARE, INCLUDING, BUT NOT LIMITED TO, NONINFRINGEMENT,
  14:.\main.c      **** * IMPLIED WARRANTIES OF MERCHANTABILITY AND FITNESS FOR A PARTICULAR PURPOSE.
  15:.\main.c      **** *******************************************************************************/
  16:.\main.c      **** 
  17:.\main.c      **** #include <device.h>
  18:.\main.c      **** #include <VDAC8.h>
  19:.\main.c      **** 
  20:.\main.c      **** #define REQUEST_PER_BURST        (1u)
  21:.\main.c      **** #define BYTES_PER_BURST          (1u)
  22:.\main.c      **** #define UPPER_SRC_ADDRESS        CYDEV_PERIPH_BASE
  23:.\main.c      **** #define UPPER_DEST_ADDRESS       CYDEV_PERIPH_BASE
  24:.\main.c      **** 
  25:.\main.c      **** 
  26:.\main.c      ****     
  27:.\main.c      ****     /* Variable declarations for DMA_1 */
  28:.\main.c      **** /* Move these variable declarations to the top of the function */
  29:.\main.c      **** 
  30:.\main.c      **** /* DMA Configuration for DMA_1 */
ARM GAS  C:\Users\SCOTTC~1\AppData\Local\Temp\ccX3tc9e.s 			page 2


  31:.\main.c      **** #define buffer_size 256
  32:.\main.c      **** 
  33:.\main.c      **** #define DMA_1_BYTES_PER_BURST 4
  34:.\main.c      **** #define DMA_1_REQUEST_PER_BURST 1
  35:.\main.c      **** #define DMA_1_SRC_BASE (CYDEV_PERIPH_BASE)
  36:.\main.c      **** #define DMA_1_DST_BASE (CYDEV_SRAM_BASE)
  37:.\main.c      **** #define buffersize buffer_size*DMA_1_BYTES_PER_BURST
  38:.\main.c      **** 
  39:.\main.c      **** 
  40:.\main.c      **** 
  41:.\main.c      **** 
  42:.\main.c      **** 
  43:.\main.c      **** /* DMA Configuration for DMA_2 */
  44:.\main.c      **** #define DMA_2_BYTES_PER_BURST 1
  45:.\main.c      **** #define DMA_2_REQUEST_PER_BURST 1
  46:.\main.c      **** #define DMA_2_SRC_BASE (CYDEV_PERIPH_BASE)
  47:.\main.c      **** #define DMA_2_DST_BASE (CYDEV_PERIPH_BASE)
  48:.\main.c      **** 
  49:.\main.c      **** 
  50:.\main.c      **** 
  51:.\main.c      **** void DMA_Config(void);
  52:.\main.c      **** uint32 buffer[buffersize];
  53:.\main.c      **** 
  54:.\main.c      **** 
  55:.\main.c      **** /*******************************************************************************
  56:.\main.c      **** * Interrupt
  57:.\main.c      **** ********************************************************************************
  58:.\main.c      **** * Interrupt generated on Filter sample-ready. Interrupt handle:filterVDAC
  59:.\main.c      **** *
  60:.\main.c      **** * Summary:
  61:.\main.c      **** *  The interrupt performs following functions:
  62:.\main.c      **** *   1: Reads the left-justified register for Filter Channel A
  63:.\main.c      **** *   2: Converts it into an unsigned value
  64:.\main.c      **** *   3: Writes this value to VDAC
  65:.\main.c      **** *
  66:.\main.c      **** *******************************************************************************/
  67:.\main.c      **** //CY_ISR(filterVDAC)
  68:.\main.c      **** //{
  69:.\main.c      **** //    /* Convert the 2's complement value to an unsigned 8-bit value
  70:.\main.c      **** //     * The VDAC expects an unsigned 8-bit value as input.
  71:.\main.c      **** //     */
  72:.\main.c      **** //	VDAC8_SetValue(Filter_Read8(Filter_CHANNEL_A) + 128u);
  73:.\main.c      **** //}
  74:.\main.c      **** 
  75:.\main.c      **** 
  76:.\main.c      **** /*******************************************************************************
  77:.\main.c      **** * Function Name: main
  78:.\main.c      **** ********************************************************************************
  79:.\main.c      **** *
  80:.\main.c      **** * Summary:
  81:.\main.c      **** *  Main function performs following functions:
  82:.\main.c      **** *   1: Enables global interrupts
  83:.\main.c      **** *   2: Start all components on the schematic
  84:.\main.c      **** *   3: Calls a function to configure DMA
  85:.\main.c      **** 
  86:.\main.c      **** * Parameters:
  87:.\main.c      **** *  None.
ARM GAS  C:\Users\SCOTTC~1\AppData\Local\Temp\ccX3tc9e.s 			page 3


  88:.\main.c      **** *
  89:.\main.c      **** * Return:
  90:.\main.c      **** *  None.
  91:.\main.c      **** *
  92:.\main.c      **** *******************************************************************************/
  93:.\main.c      **** int main()
  94:.\main.c      **** {
  28              		.loc 1 94 0
  29              		.cfi_startproc
  30              		@ args = 0, pretend = 0, frame = 0
  31              		@ frame_needed = 1, uses_anonymous_args = 0
  32 0000 80B5     		push	{r7, lr}
  33              		.cfi_def_cfa_offset 8
  34              		.cfi_offset 7, -8
  35              		.cfi_offset 14, -4
  36 0002 00AF     		add	r7, sp, #0
  37              		.cfi_def_cfa_register 7
  95:.\main.c      ****     /* Start all components used on schematic */
  96:.\main.c      ****     ADC_DelSig_IRQ_Start();
  38              		.loc 1 96 0
  39 0004 FFF7FEFF 		bl	ADC_DelSig_IRQ_Start
  97:.\main.c      ****     //isr_StartEx(filterVDAC);
  98:.\main.c      ****     ADC_DelSig_Start();
  40              		.loc 1 98 0
  41 0008 FFF7FEFF 		bl	ADC_DelSig_Start
  99:.\main.c      ****     ADC_DelSig_StartConvert();
  42              		.loc 1 99 0
  43 000c FFF7FEFF 		bl	ADC_DelSig_StartConvert
 100:.\main.c      ****     VDAC8_Start();
  44              		.loc 1 100 0
  45 0010 FFF7FEFF 		bl	VDAC8_Start
 101:.\main.c      ****     //Opamp_Start();
 102:.\main.c      ****     Filter_Start();
  46              		.loc 1 102 0
  47 0014 FFF7FEFF 		bl	Filter_Start
 103:.\main.c      **** 
 104:.\main.c      ****     /* User-implemented function to set-up DMA */
 105:.\main.c      ****     DMA_Config();
  48              		.loc 1 105 0
  49 0018 FFF7FEFF 		bl	DMA_Config
 106:.\main.c      **** 
 107:.\main.c      ****     /* Enable Global Interrupts */
 108:.\main.c      ****     CYGlobalIntEnable;
  50              		.loc 1 108 0
  51              	@ 108 ".\main.c" 1
  52 001c 62B6     		CPSIE   i
  53              	@ 0 "" 2
  54              		.thumb
  55              	.L2:
 109:.\main.c      **** 
 110:.\main.c      ****     for(;;)
 111:.\main.c      ****     {
 112:.\main.c      ****     }
  56              		.loc 1 112 0 discriminator 1
  57 001e FEE7     		b	.L2
  58              		.cfi_endproc
  59              	.LFE63:
ARM GAS  C:\Users\SCOTTC~1\AppData\Local\Temp\ccX3tc9e.s 			page 4


  60              		.size	main, .-main
  61              		.section	.text.DMA_Config,"ax",%progbits
  62              		.align	2
  63              		.global	DMA_Config
  64              		.thumb
  65              		.thumb_func
  66              		.type	DMA_Config, %function
  67              	DMA_Config:
  68              	.LFB64:
 113:.\main.c      **** } /* End of main */
 114:.\main.c      **** 
 115:.\main.c      **** 
 116:.\main.c      **** /*******************************************************************************
 117:.\main.c      **** * Function Name: DMA_Config
 118:.\main.c      **** ********************************************************************************
 119:.\main.c      **** *
 120:.\main.c      **** * Summary:
 121:.\main.c      **** *  Initializes and sets up DMA for use (generated by DMA Wizard)
 122:.\main.c      **** *
 123:.\main.c      **** * Parameters:
 124:.\main.c      **** *  None.
 125:.\main.c      **** *
 126:.\main.c      **** * Return:
 127:.\main.c      **** *  None.
 128:.\main.c      **** *
 129:.\main.c      **** *******************************************************************************/
 130:.\main.c      **** void DMA_Config(void)
 131:.\main.c      **** {
  69              		.loc 1 131 0
  70              		.cfi_startproc
  71              		@ args = 0, pretend = 0, frame = 16
  72              		@ frame_needed = 1, uses_anonymous_args = 0
  73 0000 80B5     		push	{r7, lr}
  74              		.cfi_def_cfa_offset 8
  75              		.cfi_offset 7, -8
  76              		.cfi_offset 14, -4
  77 0002 84B0     		sub	sp, sp, #16
  78              		.cfi_def_cfa_offset 24
  79 0004 00AF     		add	r7, sp, #0
  80              		.cfi_def_cfa_register 7
 132:.\main.c      ****     /* Declare variable to hold the handle for DMA channel */
 133:.\main.c      ****     uint8 channelHandle;
 134:.\main.c      **** 
 135:.\main.c      ****     /* Declare DMA Transaction Descriptor for memory transfer into
 136:.\main.c      ****      * Filter Channel.
 137:.\main.c      ****      */
 138:.\main.c      ****     uint8 tdChanA;
 139:.\main.c      **** 
 140:.\main.c      ****     /* Configure the DMA to Transfer the data in 1 burst with individual trigger
 141:.\main.c      ****      * for each burst.
 142:.\main.c      ****      */
 143:.\main.c      ****     channelHandle = DMA_DmaInitialize(BYTES_PER_BURST, REQUEST_PER_BURST,
  81              		.loc 1 143 0
  82 0006 0120     		movs	r0, #1
  83 0008 0121     		movs	r1, #1
  84 000a 4FF48042 		mov	r2, #16384
  85 000e 4FF48043 		mov	r3, #16384
ARM GAS  C:\Users\SCOTTC~1\AppData\Local\Temp\ccX3tc9e.s 			page 5


  86 0012 FFF7FEFF 		bl	DMA_DmaInitialize
  87 0016 0346     		mov	r3, r0
  88 0018 FB73     		strb	r3, [r7, #15]
 144:.\main.c      ****                                         HI16(UPPER_SRC_ADDRESS), HI16(UPPER_DEST_ADDRESS));
 145:.\main.c      **** 
 146:.\main.c      ****     /* This function allocates a TD for use with an initialized DMA channel */
 147:.\main.c      ****     tdChanA = CyDmaTdAllocate();
  89              		.loc 1 147 0
  90 001a FFF7FEFF 		bl	CyDmaTdAllocate
  91 001e 0346     		mov	r3, r0
  92 0020 BB73     		strb	r3, [r7, #14]
 148:.\main.c      **** 
 149:.\main.c      ****     /* Configure the tdChanA to transfer 1 byte with no next TD */
 150:.\main.c      ****     CyDmaTdSetConfiguration(tdChanA, 1u, DMA_INVALID_TD, 0u);
  93              		.loc 1 150 0
  94 0022 BB7B     		ldrb	r3, [r7, #14]	@ zero_extendqisi2
  95 0024 1846     		mov	r0, r3
  96 0026 0121     		movs	r1, #1
  97 0028 FF22     		movs	r2, #255
  98 002a 0023     		movs	r3, #0
  99 002c FFF7FEFF 		bl	CyDmaTdSetConfiguration
 151:.\main.c      **** 
 152:.\main.c      ****     /* Set the source address as ADC_DelSig and the destination as
 153:.\main.c      ****      * Filter Channel A.
 154:.\main.c      ****      */
 155:.\main.c      ****     CyDmaTdSetAddress(tdChanA, LO16((uint32)ADC_DelSig_DEC_SAMP_PTR), LO16((uint32)Filter_STAGEAH_P
 100              		.loc 1 155 0
 101 0030 BB7B     		ldrb	r3, [r7, #14]	@ zero_extendqisi2
 102 0032 1846     		mov	r0, r3
 103 0034 44F61061 		movw	r1, #19984
 104 0038 4CF2A272 		movw	r2, #51106
 105 003c FFF7FEFF 		bl	CyDmaTdSetAddress
 156:.\main.c      **** 
 157:.\main.c      ****     /* Set tdChanA to be the initial TD associated with channelHandle */
 158:.\main.c      ****     CyDmaChSetInitialTd(channelHandle, tdChanA);
 106              		.loc 1 158 0
 107 0040 FA7B     		ldrb	r2, [r7, #15]	@ zero_extendqisi2
 108 0042 BB7B     		ldrb	r3, [r7, #14]	@ zero_extendqisi2
 109 0044 1046     		mov	r0, r2
 110 0046 1946     		mov	r1, r3
 111 0048 FFF7FEFF 		bl	CyDmaChSetInitialTd
 159:.\main.c      **** 
 160:.\main.c      ****     /* Enable the DMA channel represented by channelHandle and preserve the TD */
 161:.\main.c      ****     CyDmaChEnable(channelHandle, 1u);
 112              		.loc 1 161 0
 113 004c FB7B     		ldrb	r3, [r7, #15]	@ zero_extendqisi2
 114 004e 1846     		mov	r0, r3
 115 0050 0121     		movs	r1, #1
 116 0052 FFF7FEFF 		bl	CyDmaChEnable
 162:.\main.c      ****     
 163:.\main.c      ****     
 164:.\main.c      ****     uint8 DMA_1_Chan;
 165:.\main.c      **** uint8 DMA_1_TD[1];
 166:.\main.c      ****     
 167:.\main.c      ****    
 168:.\main.c      **** DMA_1_Chan = DMA_1_DmaInitialize(DMA_1_BYTES_PER_BURST, DMA_1_REQUEST_PER_BURST, 
 117              		.loc 1 168 0
ARM GAS  C:\Users\SCOTTC~1\AppData\Local\Temp\ccX3tc9e.s 			page 6


 118 0056 0420     		movs	r0, #4
 119 0058 0121     		movs	r1, #1
 120 005a 4FF48042 		mov	r2, #16384
 121 005e 41F6FF73 		movw	r3, #8191
 122 0062 FFF7FEFF 		bl	DMA_1_DmaInitialize
 123 0066 0346     		mov	r3, r0
 124 0068 7B73     		strb	r3, [r7, #13]
 169:.\main.c      ****     HI16(DMA_1_SRC_BASE), HI16(DMA_1_DST_BASE));
 170:.\main.c      **** DMA_1_TD[0] = CyDmaTdAllocate();
 125              		.loc 1 170 0
 126 006a FFF7FEFF 		bl	CyDmaTdAllocate
 127 006e 0346     		mov	r3, r0
 128 0070 3B72     		strb	r3, [r7, #8]
 171:.\main.c      **** CyDmaTdSetConfiguration(DMA_1_TD[0], buffersize, CY_DMA_DISABLE_TD, TD_INC_DST_ADR);
 129              		.loc 1 171 0
 130 0072 3B7A     		ldrb	r3, [r7, #8]	@ zero_extendqisi2
 131 0074 1846     		mov	r0, r3
 132 0076 4FF48061 		mov	r1, #1024
 133 007a FE22     		movs	r2, #254
 134 007c 0223     		movs	r3, #2
 135 007e FFF7FEFF 		bl	CyDmaTdSetConfiguration
 172:.\main.c      **** CyDmaTdSetAddress(DMA_1_TD[0], LO16((uint32)Filter_HOLDA_PTR), LO16((uint32)buffer));
 136              		.loc 1 172 0
 137 0082 3A7A     		ldrb	r2, [r7, #8]	@ zero_extendqisi2
 138 0084 1E4B     		ldr	r3, .L4
 139 0086 9BB2     		uxth	r3, r3
 140 0088 1046     		mov	r0, r2
 141 008a 4CF2A871 		movw	r1, #51112
 142 008e 1A46     		mov	r2, r3
 143 0090 FFF7FEFF 		bl	CyDmaTdSetAddress
 173:.\main.c      **** CyDmaChSetInitialTd(DMA_1_Chan, DMA_1_TD[0]);
 144              		.loc 1 173 0
 145 0094 3B7A     		ldrb	r3, [r7, #8]	@ zero_extendqisi2
 146 0096 7A7B     		ldrb	r2, [r7, #13]	@ zero_extendqisi2
 147 0098 1046     		mov	r0, r2
 148 009a 1946     		mov	r1, r3
 149 009c FFF7FEFF 		bl	CyDmaChSetInitialTd
 174:.\main.c      **** CyDmaChEnable(DMA_1_Chan, 1);
 150              		.loc 1 174 0
 151 00a0 7B7B     		ldrb	r3, [r7, #13]	@ zero_extendqisi2
 152 00a2 1846     		mov	r0, r3
 153 00a4 0121     		movs	r1, #1
 154 00a6 FFF7FEFF 		bl	CyDmaChEnable
 175:.\main.c      **** 
 176:.\main.c      **** 
 177:.\main.c      **** 
 178:.\main.c      **** 
 179:.\main.c      **** 
 180:.\main.c      **** 
 181:.\main.c      **** /* Variable declarations for DMA_2 */
 182:.\main.c      **** /* Move these variable declarations to the top of the function */
 183:.\main.c      **** uint8 DMA_2_Chan;
 184:.\main.c      **** uint8 DMA_2_TD[1];
 185:.\main.c      **** 
 186:.\main.c      **** DMA_2_Chan = DMA_2_DmaInitialize(DMA_2_BYTES_PER_BURST, DMA_2_REQUEST_PER_BURST, 
 155              		.loc 1 186 0
 156 00aa 0120     		movs	r0, #1
ARM GAS  C:\Users\SCOTTC~1\AppData\Local\Temp\ccX3tc9e.s 			page 7


 157 00ac 0121     		movs	r1, #1
 158 00ae 4FF48042 		mov	r2, #16384
 159 00b2 4FF48043 		mov	r3, #16384
 160 00b6 FFF7FEFF 		bl	DMA_2_DmaInitialize
 161 00ba 0346     		mov	r3, r0
 162 00bc 3B73     		strb	r3, [r7, #12]
 187:.\main.c      ****     HI16(DMA_2_SRC_BASE), HI16(DMA_2_DST_BASE));
 188:.\main.c      **** DMA_2_TD[0] = CyDmaTdAllocate();
 163              		.loc 1 188 0
 164 00be FFF7FEFF 		bl	CyDmaTdAllocate
 165 00c2 0346     		mov	r3, r0
 166 00c4 3B71     		strb	r3, [r7, #4]
 189:.\main.c      **** CyDmaTdSetConfiguration(DMA_2_TD[0], 1, CY_DMA_DISABLE_TD, 0);
 167              		.loc 1 189 0
 168 00c6 3B79     		ldrb	r3, [r7, #4]	@ zero_extendqisi2
 169 00c8 1846     		mov	r0, r3
 170 00ca 0121     		movs	r1, #1
 171 00cc FE22     		movs	r2, #254
 172 00ce 0023     		movs	r3, #0
 173 00d0 FFF7FEFF 		bl	CyDmaTdSetConfiguration
 190:.\main.c      **** CyDmaTdSetAddress(DMA_2_TD[0], LO16((uint32)Filter_HOLDA_PTR), LO16((uint32)VDAC8_Data_PTR));
 174              		.loc 1 190 0
 175 00d4 3B79     		ldrb	r3, [r7, #4]	@ zero_extendqisi2
 176 00d6 1846     		mov	r0, r3
 177 00d8 4CF2A871 		movw	r1, #51112
 178 00dc 45F68232 		movw	r2, #23426
 179 00e0 FFF7FEFF 		bl	CyDmaTdSetAddress
 191:.\main.c      **** CyDmaChSetInitialTd(DMA_2_Chan, DMA_2_TD[0]);
 180              		.loc 1 191 0
 181 00e4 3B79     		ldrb	r3, [r7, #4]	@ zero_extendqisi2
 182 00e6 3A7B     		ldrb	r2, [r7, #12]	@ zero_extendqisi2
 183 00e8 1046     		mov	r0, r2
 184 00ea 1946     		mov	r1, r3
 185 00ec FFF7FEFF 		bl	CyDmaChSetInitialTd
 192:.\main.c      **** CyDmaChEnable(DMA_2_Chan, 1);
 186              		.loc 1 192 0
 187 00f0 3B7B     		ldrb	r3, [r7, #12]	@ zero_extendqisi2
 188 00f2 1846     		mov	r0, r3
 189 00f4 0121     		movs	r1, #1
 190 00f6 FFF7FEFF 		bl	CyDmaChEnable
 193:.\main.c      **** 
 194:.\main.c      **** 
 195:.\main.c      **** }
 191              		.loc 1 195 0
 192 00fa 1037     		adds	r7, r7, #16
 193 00fc BD46     		mov	sp, r7
 194              		@ sp needed
 195 00fe 80BD     		pop	{r7, pc}
 196              	.L5:
 197              		.align	2
 198              	.L4:
 199 0100 00000000 		.word	buffer
 200              		.cfi_endproc
 201              	.LFE64:
 202              		.size	DMA_Config, .-DMA_Config
 203              		.text
 204              	.Letext0:
ARM GAS  C:\Users\SCOTTC~1\AppData\Local\Temp\ccX3tc9e.s 			page 8


 205              		.file 2 "c:\\program files\\cypress\\psoc creator\\3.2\\psoc creator\\import\\gnu\\arm\\4.8.4\\arm
 206              		.file 3 "c:\\program files\\cypress\\psoc creator\\3.2\\psoc creator\\import\\gnu\\arm\\4.8.4\\arm
 207              		.file 4 "Generated_Source\\PSoC5/cytypes.h"
 208              		.file 5 "Generated_Source\\PSoC5/core_cm3.h"