ARM GAS  C:\Users\SCOTTC~1\AppData\Local\Temp\ccSlq9sc.s 			page 1


   1              		.syntax unified
   2              		.cpu cortex-m3
   3              		.fpu softvfp
   4              		.eabi_attribute 20, 1
   5              		.eabi_attribute 21, 1
   6              		.eabi_attribute 23, 3
   7              		.eabi_attribute 24, 1
   8              		.eabi_attribute 25, 1
   9              		.eabi_attribute 26, 1
  10              		.eabi_attribute 30, 6
  11              		.eabi_attribute 34, 1
  12              		.eabi_attribute 18, 4
  13              		.thumb
  14              		.file	"cyfitter_cfg.c"
  15              		.text
  16              	.Ltext0:
  17              		.cfi_sections	.debug_frame
  18              		.section	.text.CYMEMZERO,"ax",%progbits
  19              		.align	2
  20              		.thumb
  21              		.thumb_func
  22              		.type	CYMEMZERO, %function
  23              	CYMEMZERO:
  24              	.LFB0:
  25              		.file 1 ".\\Generated_Source\\PSoC5\\cyfitter_cfg.c"
   1:.\Generated_Source\PSoC5/cyfitter_cfg.c **** /*******************************************************************************
   2:.\Generated_Source\PSoC5/cyfitter_cfg.c **** * FILENAME: cyfitter_cfg.c
   3:.\Generated_Source\PSoC5/cyfitter_cfg.c **** * 
   4:.\Generated_Source\PSoC5/cyfitter_cfg.c **** * PSoC Creator  3.2 SP1
   5:.\Generated_Source\PSoC5/cyfitter_cfg.c **** *
   6:.\Generated_Source\PSoC5/cyfitter_cfg.c **** * DESCRIPTION:
   7:.\Generated_Source\PSoC5/cyfitter_cfg.c **** * This file contains device initialization code.
   8:.\Generated_Source\PSoC5/cyfitter_cfg.c **** * Except for the user defined sections in CyClockStartupError(), this file should not be modified.
   9:.\Generated_Source\PSoC5/cyfitter_cfg.c **** * This file is automatically generated by PSoC Creator.
  10:.\Generated_Source\PSoC5/cyfitter_cfg.c **** *
  11:.\Generated_Source\PSoC5/cyfitter_cfg.c **** ********************************************************************************
  12:.\Generated_Source\PSoC5/cyfitter_cfg.c **** * Copyright (c) 2007-2015 Cypress Semiconductor.  All rights reserved.
  13:.\Generated_Source\PSoC5/cyfitter_cfg.c **** * You may use this file only in accordance with the license, terms, conditions, 
  14:.\Generated_Source\PSoC5/cyfitter_cfg.c **** * disclaimers, and limitations in the end user license agreement accompanying 
  15:.\Generated_Source\PSoC5/cyfitter_cfg.c **** * the software package with which this file was provided.
  16:.\Generated_Source\PSoC5/cyfitter_cfg.c **** ********************************************************************************/
  17:.\Generated_Source\PSoC5/cyfitter_cfg.c **** 
  18:.\Generated_Source\PSoC5/cyfitter_cfg.c **** #include <string.h>
  19:.\Generated_Source\PSoC5/cyfitter_cfg.c **** #include "cytypes.h"
  20:.\Generated_Source\PSoC5/cyfitter_cfg.c **** #include "cydevice_trm.h"
  21:.\Generated_Source\PSoC5/cyfitter_cfg.c **** #include "cyfitter.h"
  22:.\Generated_Source\PSoC5/cyfitter_cfg.c **** #include "CyLib.h"
  23:.\Generated_Source\PSoC5/cyfitter_cfg.c **** #include "cyfitter_cfg.h"
  24:.\Generated_Source\PSoC5/cyfitter_cfg.c **** 
  25:.\Generated_Source\PSoC5/cyfitter_cfg.c **** #define CY_NEED_CYCLOCKSTARTUPERROR 1
  26:.\Generated_Source\PSoC5/cyfitter_cfg.c **** 
  27:.\Generated_Source\PSoC5/cyfitter_cfg.c **** 
  28:.\Generated_Source\PSoC5/cyfitter_cfg.c **** #if defined(__GNUC__) || defined(__ARMCC_VERSION)
  29:.\Generated_Source\PSoC5/cyfitter_cfg.c ****     #define CYPACKED 
  30:.\Generated_Source\PSoC5/cyfitter_cfg.c ****     #define CYPACKED_ATTR __attribute__ ((packed))
  31:.\Generated_Source\PSoC5/cyfitter_cfg.c ****     #define CYALIGNED __attribute__ ((aligned))
  32:.\Generated_Source\PSoC5/cyfitter_cfg.c ****     #define CY_CFG_UNUSED __attribute__ ((unused))
ARM GAS  C:\Users\SCOTTC~1\AppData\Local\Temp\ccSlq9sc.s 			page 2


  33:.\Generated_Source\PSoC5/cyfitter_cfg.c ****     #define CY_CFG_SECTION __attribute__ ((section(".psocinit")))
  34:.\Generated_Source\PSoC5/cyfitter_cfg.c ****     
  35:.\Generated_Source\PSoC5/cyfitter_cfg.c ****     #if defined(__ARMCC_VERSION)
  36:.\Generated_Source\PSoC5/cyfitter_cfg.c ****         #define CY_CFG_MEMORY_BARRIER() __memory_changed()
  37:.\Generated_Source\PSoC5/cyfitter_cfg.c ****     #else
  38:.\Generated_Source\PSoC5/cyfitter_cfg.c ****         #define CY_CFG_MEMORY_BARRIER() __sync_synchronize()
  39:.\Generated_Source\PSoC5/cyfitter_cfg.c ****     #endif
  40:.\Generated_Source\PSoC5/cyfitter_cfg.c ****     
  41:.\Generated_Source\PSoC5/cyfitter_cfg.c **** #elif defined(__ICCARM__)
  42:.\Generated_Source\PSoC5/cyfitter_cfg.c ****     #include <intrinsics.h>
  43:.\Generated_Source\PSoC5/cyfitter_cfg.c **** 
  44:.\Generated_Source\PSoC5/cyfitter_cfg.c ****     #define CYPACKED __packed
  45:.\Generated_Source\PSoC5/cyfitter_cfg.c ****     #define CYPACKED_ATTR 
  46:.\Generated_Source\PSoC5/cyfitter_cfg.c ****     #define CYALIGNED _Pragma("data_alignment=4")
  47:.\Generated_Source\PSoC5/cyfitter_cfg.c ****     #define CY_CFG_UNUSED _Pragma("diag_suppress=Pe177")
  48:.\Generated_Source\PSoC5/cyfitter_cfg.c ****     #define CY_CFG_SECTION _Pragma("location=\".psocinit\"")
  49:.\Generated_Source\PSoC5/cyfitter_cfg.c ****     
  50:.\Generated_Source\PSoC5/cyfitter_cfg.c ****     #define CY_CFG_MEMORY_BARRIER() __DMB()
  51:.\Generated_Source\PSoC5/cyfitter_cfg.c ****     
  52:.\Generated_Source\PSoC5/cyfitter_cfg.c **** #else
  53:.\Generated_Source\PSoC5/cyfitter_cfg.c ****     #error Unsupported toolchain
  54:.\Generated_Source\PSoC5/cyfitter_cfg.c **** #endif
  55:.\Generated_Source\PSoC5/cyfitter_cfg.c **** 
  56:.\Generated_Source\PSoC5/cyfitter_cfg.c **** 
  57:.\Generated_Source\PSoC5/cyfitter_cfg.c **** CY_CFG_UNUSED
  58:.\Generated_Source\PSoC5/cyfitter_cfg.c **** static void CYMEMZERO(void *s, size_t n);
  59:.\Generated_Source\PSoC5/cyfitter_cfg.c **** CY_CFG_UNUSED
  60:.\Generated_Source\PSoC5/cyfitter_cfg.c **** static void CYMEMZERO(void *s, size_t n)
  61:.\Generated_Source\PSoC5/cyfitter_cfg.c **** {
  26              		.loc 1 61 0
  27              		.cfi_startproc
  28              		@ args = 0, pretend = 0, frame = 8
  29              		@ frame_needed = 1, uses_anonymous_args = 0
  30 0000 80B5     		push	{r7, lr}
  31              		.cfi_def_cfa_offset 8
  32              		.cfi_offset 7, -8
  33              		.cfi_offset 14, -4
  34 0002 82B0     		sub	sp, sp, #8
  35              		.cfi_def_cfa_offset 16
  36 0004 00AF     		add	r7, sp, #0
  37              		.cfi_def_cfa_register 7
  38 0006 7860     		str	r0, [r7, #4]
  39 0008 3960     		str	r1, [r7]
  62:.\Generated_Source\PSoC5/cyfitter_cfg.c **** 	(void)memset(s, 0, n);
  40              		.loc 1 62 0
  41 000a 7868     		ldr	r0, [r7, #4]
  42 000c 0021     		movs	r1, #0
  43 000e 3A68     		ldr	r2, [r7]
  44 0010 FFF7FEFF 		bl	memset
  63:.\Generated_Source\PSoC5/cyfitter_cfg.c **** }
  45              		.loc 1 63 0
  46 0014 0837     		adds	r7, r7, #8
  47 0016 BD46     		mov	sp, r7
  48              		@ sp needed
  49 0018 80BD     		pop	{r7, pc}
  50              		.cfi_endproc
  51              	.LFE0:
ARM GAS  C:\Users\SCOTTC~1\AppData\Local\Temp\ccSlq9sc.s 			page 3


  52              		.size	CYMEMZERO, .-CYMEMZERO
  53 001a 00BF     		.section	.text.CYCONFIGCPY,"ax",%progbits
  54              		.align	2
  55              		.thumb
  56              		.thumb_func
  57              		.type	CYCONFIGCPY, %function
  58              	CYCONFIGCPY:
  59              	.LFB1:
  64:.\Generated_Source\PSoC5/cyfitter_cfg.c **** CY_CFG_UNUSED
  65:.\Generated_Source\PSoC5/cyfitter_cfg.c **** static void CYCONFIGCPY(void *dest, const void *src, size_t n);
  66:.\Generated_Source\PSoC5/cyfitter_cfg.c **** CY_CFG_UNUSED
  67:.\Generated_Source\PSoC5/cyfitter_cfg.c **** static void CYCONFIGCPY(void *dest, const void *src, size_t n)
  68:.\Generated_Source\PSoC5/cyfitter_cfg.c **** {
  60              		.loc 1 68 0
  61              		.cfi_startproc
  62              		@ args = 0, pretend = 0, frame = 16
  63              		@ frame_needed = 1, uses_anonymous_args = 0
  64 0000 80B5     		push	{r7, lr}
  65              		.cfi_def_cfa_offset 8
  66              		.cfi_offset 7, -8
  67              		.cfi_offset 14, -4
  68 0002 84B0     		sub	sp, sp, #16
  69              		.cfi_def_cfa_offset 24
  70 0004 00AF     		add	r7, sp, #0
  71              		.cfi_def_cfa_register 7
  72 0006 F860     		str	r0, [r7, #12]
  73 0008 B960     		str	r1, [r7, #8]
  74 000a 7A60     		str	r2, [r7, #4]
  69:.\Generated_Source\PSoC5/cyfitter_cfg.c **** 	(void)memcpy(dest, src, n);
  75              		.loc 1 69 0
  76 000c F868     		ldr	r0, [r7, #12]
  77 000e B968     		ldr	r1, [r7, #8]
  78 0010 7A68     		ldr	r2, [r7, #4]
  79 0012 FFF7FEFF 		bl	memcpy
  70:.\Generated_Source\PSoC5/cyfitter_cfg.c **** }
  80              		.loc 1 70 0
  81 0016 1037     		adds	r7, r7, #16
  82 0018 BD46     		mov	sp, r7
  83              		@ sp needed
  84 001a 80BD     		pop	{r7, pc}
  85              		.cfi_endproc
  86              	.LFE1:
  87              		.size	CYCONFIGCPY, .-CYCONFIGCPY
  88              		.section	.text.CYCONFIGCPYCODE,"ax",%progbits
  89              		.align	2
  90              		.thumb
  91              		.thumb_func
  92              		.type	CYCONFIGCPYCODE, %function
  93              	CYCONFIGCPYCODE:
  94              	.LFB2:
  71:.\Generated_Source\PSoC5/cyfitter_cfg.c **** CY_CFG_UNUSED
  72:.\Generated_Source\PSoC5/cyfitter_cfg.c **** static void CYCONFIGCPYCODE(void *dest, const void *src, size_t n);
  73:.\Generated_Source\PSoC5/cyfitter_cfg.c **** CY_CFG_UNUSED
  74:.\Generated_Source\PSoC5/cyfitter_cfg.c **** static void CYCONFIGCPYCODE(void *dest, const void *src, size_t n)
  75:.\Generated_Source\PSoC5/cyfitter_cfg.c **** {
  95              		.loc 1 75 0
  96              		.cfi_startproc
ARM GAS  C:\Users\SCOTTC~1\AppData\Local\Temp\ccSlq9sc.s 			page 4


  97              		@ args = 0, pretend = 0, frame = 16
  98              		@ frame_needed = 1, uses_anonymous_args = 0
  99 0000 80B5     		push	{r7, lr}
 100              		.cfi_def_cfa_offset 8
 101              		.cfi_offset 7, -8
 102              		.cfi_offset 14, -4
 103 0002 84B0     		sub	sp, sp, #16
 104              		.cfi_def_cfa_offset 24
 105 0004 00AF     		add	r7, sp, #0
 106              		.cfi_def_cfa_register 7
 107 0006 F860     		str	r0, [r7, #12]
 108 0008 B960     		str	r1, [r7, #8]
 109 000a 7A60     		str	r2, [r7, #4]
  76:.\Generated_Source\PSoC5/cyfitter_cfg.c **** 	(void)memcpy(dest, src, n);
 110              		.loc 1 76 0
 111 000c F868     		ldr	r0, [r7, #12]
 112 000e B968     		ldr	r1, [r7, #8]
 113 0010 7A68     		ldr	r2, [r7, #4]
 114 0012 FFF7FEFF 		bl	memcpy
  77:.\Generated_Source\PSoC5/cyfitter_cfg.c **** }
 115              		.loc 1 77 0
 116 0016 1037     		adds	r7, r7, #16
 117 0018 BD46     		mov	sp, r7
 118              		@ sp needed
 119 001a 80BD     		pop	{r7, pc}
 120              		.cfi_endproc
 121              	.LFE2:
 122              		.size	CYCONFIGCPYCODE, .-CYCONFIGCPYCODE
 123              		.section	.text.CyClockStartupError,"ax",%progbits
 124              		.align	2
 125              		.thumb
 126              		.thumb_func
 127              		.type	CyClockStartupError, %function
 128              	CyClockStartupError:
 129              	.LFB3:
  78:.\Generated_Source\PSoC5/cyfitter_cfg.c **** 
  79:.\Generated_Source\PSoC5/cyfitter_cfg.c **** 
  80:.\Generated_Source\PSoC5/cyfitter_cfg.c **** 
  81:.\Generated_Source\PSoC5/cyfitter_cfg.c **** /* Clock startup error codes                                                   */
  82:.\Generated_Source\PSoC5/cyfitter_cfg.c **** #define CYCLOCKSTART_NO_ERROR    0u
  83:.\Generated_Source\PSoC5/cyfitter_cfg.c **** #define CYCLOCKSTART_XTAL_ERROR  1u
  84:.\Generated_Source\PSoC5/cyfitter_cfg.c **** #define CYCLOCKSTART_32KHZ_ERROR 2u
  85:.\Generated_Source\PSoC5/cyfitter_cfg.c **** #define CYCLOCKSTART_PLL_ERROR   3u
  86:.\Generated_Source\PSoC5/cyfitter_cfg.c **** 
  87:.\Generated_Source\PSoC5/cyfitter_cfg.c **** #ifdef CY_NEED_CYCLOCKSTARTUPERROR
  88:.\Generated_Source\PSoC5/cyfitter_cfg.c **** /*******************************************************************************
  89:.\Generated_Source\PSoC5/cyfitter_cfg.c **** * Function Name: CyClockStartupError
  90:.\Generated_Source\PSoC5/cyfitter_cfg.c **** ********************************************************************************
  91:.\Generated_Source\PSoC5/cyfitter_cfg.c **** * Summary:
  92:.\Generated_Source\PSoC5/cyfitter_cfg.c **** *  If an error is encountered during clock configuration (crystal startup error,
  93:.\Generated_Source\PSoC5/cyfitter_cfg.c **** *  PLL lock error, etc.), the system will end up here.  Unless reimplemented by
  94:.\Generated_Source\PSoC5/cyfitter_cfg.c **** *  the customer, this function will stop in an infinite loop.
  95:.\Generated_Source\PSoC5/cyfitter_cfg.c **** *
  96:.\Generated_Source\PSoC5/cyfitter_cfg.c **** * Parameters:
  97:.\Generated_Source\PSoC5/cyfitter_cfg.c **** *   void
  98:.\Generated_Source\PSoC5/cyfitter_cfg.c **** *
  99:.\Generated_Source\PSoC5/cyfitter_cfg.c **** * Return:
ARM GAS  C:\Users\SCOTTC~1\AppData\Local\Temp\ccSlq9sc.s 			page 5


 100:.\Generated_Source\PSoC5/cyfitter_cfg.c **** *   void
 101:.\Generated_Source\PSoC5/cyfitter_cfg.c **** *
 102:.\Generated_Source\PSoC5/cyfitter_cfg.c **** *******************************************************************************/
 103:.\Generated_Source\PSoC5/cyfitter_cfg.c **** CY_CFG_UNUSED
 104:.\Generated_Source\PSoC5/cyfitter_cfg.c **** static void CyClockStartupError(uint8 errorCode);
 105:.\Generated_Source\PSoC5/cyfitter_cfg.c **** CY_CFG_UNUSED
 106:.\Generated_Source\PSoC5/cyfitter_cfg.c **** static void CyClockStartupError(uint8 errorCode)
 107:.\Generated_Source\PSoC5/cyfitter_cfg.c **** {
 130              		.loc 1 107 0
 131              		.cfi_startproc
 132              		@ args = 0, pretend = 0, frame = 8
 133              		@ frame_needed = 1, uses_anonymous_args = 0
 134              		@ link register save eliminated.
 135 0000 80B4     		push	{r7}
 136              		.cfi_def_cfa_offset 4
 137              		.cfi_offset 7, -4
 138 0002 83B0     		sub	sp, sp, #12
 139              		.cfi_def_cfa_offset 16
 140 0004 00AF     		add	r7, sp, #0
 141              		.cfi_def_cfa_register 7
 142 0006 0346     		mov	r3, r0
 143 0008 FB71     		strb	r3, [r7, #7]
 144              	.L5:
 108:.\Generated_Source\PSoC5/cyfitter_cfg.c ****     /* To remove the compiler warning if errorCode not used.                */
 109:.\Generated_Source\PSoC5/cyfitter_cfg.c ****     errorCode = errorCode;
 110:.\Generated_Source\PSoC5/cyfitter_cfg.c **** 
 111:.\Generated_Source\PSoC5/cyfitter_cfg.c ****     /* `#START CyClockStartupError` */
 112:.\Generated_Source\PSoC5/cyfitter_cfg.c **** 
 113:.\Generated_Source\PSoC5/cyfitter_cfg.c ****     /* If we have a clock startup error (bad MHz crystal, PLL lock, etc.),  */
 114:.\Generated_Source\PSoC5/cyfitter_cfg.c ****     /* we will end up here to allow the customer to implement something to  */
 115:.\Generated_Source\PSoC5/cyfitter_cfg.c ****     /* deal with the clock condition.                                       */
 116:.\Generated_Source\PSoC5/cyfitter_cfg.c **** 
 117:.\Generated_Source\PSoC5/cyfitter_cfg.c ****     /* `#END` */
 118:.\Generated_Source\PSoC5/cyfitter_cfg.c **** 
 119:.\Generated_Source\PSoC5/cyfitter_cfg.c ****     /* If nothing else, stop here since the clocks have not started         */
 120:.\Generated_Source\PSoC5/cyfitter_cfg.c ****     /* correctly.                                                           */
 121:.\Generated_Source\PSoC5/cyfitter_cfg.c ****     while(1) {}
 145              		.loc 1 121 0 discriminator 1
 146 000a FEE7     		b	.L5
 147              		.cfi_endproc
 148              	.LFE3:
 149              		.size	CyClockStartupError, .-CyClockStartupError
 150              		.section	.text.cfg_write_bytes32,"ax",%progbits
 151              		.align	2
 152              		.thumb
 153              		.thumb_func
 154              		.type	cfg_write_bytes32, %function
 155              	cfg_write_bytes32:
 156              	.LFB4:
 122:.\Generated_Source\PSoC5/cyfitter_cfg.c **** }
 123:.\Generated_Source\PSoC5/cyfitter_cfg.c **** #endif
 124:.\Generated_Source\PSoC5/cyfitter_cfg.c **** 
 125:.\Generated_Source\PSoC5/cyfitter_cfg.c **** #define CY_CFG_BASE_ADDR_COUNT 17u
 126:.\Generated_Source\PSoC5/cyfitter_cfg.c **** CYPACKED typedef struct
 127:.\Generated_Source\PSoC5/cyfitter_cfg.c **** {
 128:.\Generated_Source\PSoC5/cyfitter_cfg.c **** 	uint8 offset;
 129:.\Generated_Source\PSoC5/cyfitter_cfg.c **** 	uint8 value;
ARM GAS  C:\Users\SCOTTC~1\AppData\Local\Temp\ccSlq9sc.s 			page 6


 130:.\Generated_Source\PSoC5/cyfitter_cfg.c **** } CYPACKED_ATTR cy_cfg_addrvalue_t;
 131:.\Generated_Source\PSoC5/cyfitter_cfg.c **** 
 132:.\Generated_Source\PSoC5/cyfitter_cfg.c **** 
 133:.\Generated_Source\PSoC5/cyfitter_cfg.c **** 
 134:.\Generated_Source\PSoC5/cyfitter_cfg.c **** /*******************************************************************************
 135:.\Generated_Source\PSoC5/cyfitter_cfg.c **** * Function Name: cfg_write_bytes32
 136:.\Generated_Source\PSoC5/cyfitter_cfg.c **** ********************************************************************************
 137:.\Generated_Source\PSoC5/cyfitter_cfg.c **** * Summary:
 138:.\Generated_Source\PSoC5/cyfitter_cfg.c **** *  This function is used for setting up the chip configuration areas that
 139:.\Generated_Source\PSoC5/cyfitter_cfg.c **** *  contain relatively sparse data.
 140:.\Generated_Source\PSoC5/cyfitter_cfg.c **** *
 141:.\Generated_Source\PSoC5/cyfitter_cfg.c **** * Parameters:
 142:.\Generated_Source\PSoC5/cyfitter_cfg.c **** *   void
 143:.\Generated_Source\PSoC5/cyfitter_cfg.c **** *
 144:.\Generated_Source\PSoC5/cyfitter_cfg.c **** * Return:
 145:.\Generated_Source\PSoC5/cyfitter_cfg.c **** *   void
 146:.\Generated_Source\PSoC5/cyfitter_cfg.c **** *
 147:.\Generated_Source\PSoC5/cyfitter_cfg.c **** *******************************************************************************/
 148:.\Generated_Source\PSoC5/cyfitter_cfg.c **** static void cfg_write_bytes32(const uint32 addr_table[], const cy_cfg_addrvalue_t data_table[]);
 149:.\Generated_Source\PSoC5/cyfitter_cfg.c **** static void cfg_write_bytes32(const uint32 addr_table[], const cy_cfg_addrvalue_t data_table[])
 150:.\Generated_Source\PSoC5/cyfitter_cfg.c **** {
 157              		.loc 1 150 0
 158              		.cfi_startproc
 159              		@ args = 0, pretend = 0, frame = 24
 160              		@ frame_needed = 1, uses_anonymous_args = 0
 161              		@ link register save eliminated.
 162 0000 80B4     		push	{r7}
 163              		.cfi_def_cfa_offset 4
 164              		.cfi_offset 7, -4
 165 0002 87B0     		sub	sp, sp, #28
 166              		.cfi_def_cfa_offset 32
 167 0004 00AF     		add	r7, sp, #0
 168              		.cfi_def_cfa_register 7
 169 0006 7860     		str	r0, [r7, #4]
 170 0008 3960     		str	r1, [r7]
 151:.\Generated_Source\PSoC5/cyfitter_cfg.c **** 	/* For 32-bit little-endian architectures */
 152:.\Generated_Source\PSoC5/cyfitter_cfg.c **** 	uint32 i, j = 0u;
 171              		.loc 1 152 0
 172 000a 0023     		movs	r3, #0
 173 000c 3B61     		str	r3, [r7, #16]
 153:.\Generated_Source\PSoC5/cyfitter_cfg.c **** 	for (i = 0u; i < CY_CFG_BASE_ADDR_COUNT; i++)
 174              		.loc 1 153 0
 175 000e 0023     		movs	r3, #0
 176 0010 7B61     		str	r3, [r7, #20]
 177 0012 26E0     		b	.L7
 178              	.L10:
 179              	.LBB2:
 154:.\Generated_Source\PSoC5/cyfitter_cfg.c **** 	{
 155:.\Generated_Source\PSoC5/cyfitter_cfg.c **** 		uint32 baseAddr = addr_table[i];
 180              		.loc 1 155 0
 181 0014 7B69     		ldr	r3, [r7, #20]
 182 0016 9B00     		lsls	r3, r3, #2
 183 0018 7A68     		ldr	r2, [r7, #4]
 184 001a 1344     		add	r3, r3, r2
 185 001c 1B68     		ldr	r3, [r3]
 186 001e BB60     		str	r3, [r7, #8]
 156:.\Generated_Source\PSoC5/cyfitter_cfg.c **** 		uint8 count = (uint8)baseAddr;
ARM GAS  C:\Users\SCOTTC~1\AppData\Local\Temp\ccSlq9sc.s 			page 7


 187              		.loc 1 156 0
 188 0020 BB68     		ldr	r3, [r7, #8]
 189 0022 FB73     		strb	r3, [r7, #15]
 157:.\Generated_Source\PSoC5/cyfitter_cfg.c **** 		baseAddr &= 0xFFFFFF00u;
 190              		.loc 1 157 0
 191 0024 BB68     		ldr	r3, [r7, #8]
 192 0026 23F0FF03 		bic	r3, r3, #255
 193 002a BB60     		str	r3, [r7, #8]
 158:.\Generated_Source\PSoC5/cyfitter_cfg.c **** 		while (count != 0u)
 194              		.loc 1 158 0
 195 002c 13E0     		b	.L8
 196              	.L9:
 159:.\Generated_Source\PSoC5/cyfitter_cfg.c **** 		{
 160:.\Generated_Source\PSoC5/cyfitter_cfg.c **** 			CY_SET_XTND_REG8((void CYFAR *)(baseAddr + data_table[j].offset), data_table[j].value);
 197              		.loc 1 160 0
 198 002e 3B69     		ldr	r3, [r7, #16]
 199 0030 5B00     		lsls	r3, r3, #1
 200 0032 3A68     		ldr	r2, [r7]
 201 0034 1344     		add	r3, r3, r2
 202 0036 1B78     		ldrb	r3, [r3]	@ zero_extendqisi2
 203 0038 1A46     		mov	r2, r3
 204 003a BB68     		ldr	r3, [r7, #8]
 205 003c 1344     		add	r3, r3, r2
 206 003e 3A69     		ldr	r2, [r7, #16]
 207 0040 5200     		lsls	r2, r2, #1
 208 0042 3968     		ldr	r1, [r7]
 209 0044 0A44     		add	r2, r2, r1
 210 0046 5278     		ldrb	r2, [r2, #1]	@ zero_extendqisi2
 211 0048 1A70     		strb	r2, [r3]
 161:.\Generated_Source\PSoC5/cyfitter_cfg.c **** 			j++;
 212              		.loc 1 161 0
 213 004a 3B69     		ldr	r3, [r7, #16]
 214 004c 0133     		adds	r3, r3, #1
 215 004e 3B61     		str	r3, [r7, #16]
 162:.\Generated_Source\PSoC5/cyfitter_cfg.c **** 			count--;
 216              		.loc 1 162 0
 217 0050 FB7B     		ldrb	r3, [r7, #15]	@ zero_extendqisi2
 218 0052 013B     		subs	r3, r3, #1
 219 0054 FB73     		strb	r3, [r7, #15]
 220              	.L8:
 158:.\Generated_Source\PSoC5/cyfitter_cfg.c **** 		while (count != 0u)
 221              		.loc 1 158 0 discriminator 1
 222 0056 FB7B     		ldrb	r3, [r7, #15]	@ zero_extendqisi2
 223 0058 002B     		cmp	r3, #0
 224 005a E8D1     		bne	.L9
 225              	.LBE2:
 153:.\Generated_Source\PSoC5/cyfitter_cfg.c **** 	for (i = 0u; i < CY_CFG_BASE_ADDR_COUNT; i++)
 226              		.loc 1 153 0
 227 005c 7B69     		ldr	r3, [r7, #20]
 228 005e 0133     		adds	r3, r3, #1
 229 0060 7B61     		str	r3, [r7, #20]
 230              	.L7:
 153:.\Generated_Source\PSoC5/cyfitter_cfg.c **** 	for (i = 0u; i < CY_CFG_BASE_ADDR_COUNT; i++)
 231              		.loc 1 153 0 is_stmt 0 discriminator 1
 232 0062 7B69     		ldr	r3, [r7, #20]
 233 0064 102B     		cmp	r3, #16
 234 0066 D5D9     		bls	.L10
ARM GAS  C:\Users\SCOTTC~1\AppData\Local\Temp\ccSlq9sc.s 			page 8


 163:.\Generated_Source\PSoC5/cyfitter_cfg.c **** 		}
 164:.\Generated_Source\PSoC5/cyfitter_cfg.c **** 	}
 165:.\Generated_Source\PSoC5/cyfitter_cfg.c **** }
 235              		.loc 1 165 0 is_stmt 1
 236 0068 1C37     		adds	r7, r7, #28
 237 006a BD46     		mov	sp, r7
 238              		@ sp needed
 239 006c 5DF8047B 		ldr	r7, [sp], #4
 240 0070 7047     		bx	lr
 241              		.cfi_endproc
 242              	.LFE4:
 243              		.size	cfg_write_bytes32, .-cfg_write_bytes32
 244 0072 00BF     		.section	.text.ClockSetup,"ax",%progbits
 245              		.align	2
 246              		.thumb
 247              		.thumb_func
 248              		.type	ClockSetup, %function
 249              	ClockSetup:
 250              	.LFB5:
 166:.\Generated_Source\PSoC5/cyfitter_cfg.c **** 
 167:.\Generated_Source\PSoC5/cyfitter_cfg.c **** /*******************************************************************************
 168:.\Generated_Source\PSoC5/cyfitter_cfg.c **** * Function Name: ClockSetup
 169:.\Generated_Source\PSoC5/cyfitter_cfg.c **** ********************************************************************************
 170:.\Generated_Source\PSoC5/cyfitter_cfg.c **** *
 171:.\Generated_Source\PSoC5/cyfitter_cfg.c **** * Summary:
 172:.\Generated_Source\PSoC5/cyfitter_cfg.c **** *  Performs the initialization of all of the clocks in the device based on the
 173:.\Generated_Source\PSoC5/cyfitter_cfg.c **** *  settings in the Clock tab of the DWR.  This includes enabling the requested
 174:.\Generated_Source\PSoC5/cyfitter_cfg.c **** *  clocks and setting the necessary dividers to produce the desired frequency. 
 175:.\Generated_Source\PSoC5/cyfitter_cfg.c **** *
 176:.\Generated_Source\PSoC5/cyfitter_cfg.c **** * Parameters:
 177:.\Generated_Source\PSoC5/cyfitter_cfg.c **** *  void
 178:.\Generated_Source\PSoC5/cyfitter_cfg.c **** *
 179:.\Generated_Source\PSoC5/cyfitter_cfg.c **** * Return:
 180:.\Generated_Source\PSoC5/cyfitter_cfg.c **** *  void
 181:.\Generated_Source\PSoC5/cyfitter_cfg.c **** *
 182:.\Generated_Source\PSoC5/cyfitter_cfg.c **** *******************************************************************************/
 183:.\Generated_Source\PSoC5/cyfitter_cfg.c **** static void ClockSetup(void);
 184:.\Generated_Source\PSoC5/cyfitter_cfg.c **** static void ClockSetup(void)
 185:.\Generated_Source\PSoC5/cyfitter_cfg.c **** {
 251              		.loc 1 185 0
 252              		.cfi_startproc
 253              		@ args = 0, pretend = 0, frame = 8
 254              		@ frame_needed = 1, uses_anonymous_args = 0
 255 0000 80B5     		push	{r7, lr}
 256              		.cfi_def_cfa_offset 8
 257              		.cfi_offset 7, -8
 258              		.cfi_offset 14, -4
 259 0002 82B0     		sub	sp, sp, #8
 260              		.cfi_def_cfa_offset 16
 261 0004 00AF     		add	r7, sp, #0
 262              		.cfi_def_cfa_register 7
 186:.\Generated_Source\PSoC5/cyfitter_cfg.c **** 	uint32 timeout;
 187:.\Generated_Source\PSoC5/cyfitter_cfg.c **** 	uint8 pllLock;
 188:.\Generated_Source\PSoC5/cyfitter_cfg.c **** 
 189:.\Generated_Source\PSoC5/cyfitter_cfg.c **** 
 190:.\Generated_Source\PSoC5/cyfitter_cfg.c **** 	/* Configure Digital Clocks based on settings from Clock DWR */
 191:.\Generated_Source\PSoC5/cyfitter_cfg.c **** 	CY_SET_XTND_REG16((void CYFAR *)(CYREG_CLKDIST_DCFG0_CFG0), 0x000Cu);
ARM GAS  C:\Users\SCOTTC~1\AppData\Local\Temp\ccSlq9sc.s 			page 9


 263              		.loc 1 191 0
 264 0006 304B     		ldr	r3, .L16
 265 0008 0C22     		movs	r2, #12
 266 000a 1A80     		strh	r2, [r3]	@ movhi
 192:.\Generated_Source\PSoC5/cyfitter_cfg.c **** 	CY_SET_XTND_REG8((void CYFAR *)(CYREG_CLKDIST_DCFG0_CFG0 + 0x2u), 0x18u);
 267              		.loc 1 192 0
 268 000c 2F4B     		ldr	r3, .L16+4
 269 000e 1822     		movs	r2, #24
 270 0010 1A70     		strb	r2, [r3]
 193:.\Generated_Source\PSoC5/cyfitter_cfg.c **** 
 194:.\Generated_Source\PSoC5/cyfitter_cfg.c **** 	/* Configure ILO based on settings from Clock DWR */
 195:.\Generated_Source\PSoC5/cyfitter_cfg.c **** 	CY_SET_XTND_REG8((void CYFAR *)(CYREG_SLOWCLK_ILO_CR0), 0x02u);
 271              		.loc 1 195 0
 272 0012 2F4B     		ldr	r3, .L16+8
 273 0014 0222     		movs	r2, #2
 274 0016 1A70     		strb	r2, [r3]
 196:.\Generated_Source\PSoC5/cyfitter_cfg.c **** 	CY_SET_XTND_REG8((void CYFAR *)(CYREG_CLKDIST_CR), 0x08u);
 275              		.loc 1 196 0
 276 0018 4FF04023 		mov	r3, #1073758208
 277 001c 0822     		movs	r2, #8
 278 001e 1A70     		strb	r2, [r3]
 197:.\Generated_Source\PSoC5/cyfitter_cfg.c **** 
 198:.\Generated_Source\PSoC5/cyfitter_cfg.c **** 	/* Configure IMO based on settings from Clock DWR */
 199:.\Generated_Source\PSoC5/cyfitter_cfg.c **** 	CY_SET_XTND_REG8((void CYFAR *)(CYREG_FASTCLK_IMO_CR), 0x03u);
 279              		.loc 1 199 0
 280 0020 2C4B     		ldr	r3, .L16+12
 281 0022 0322     		movs	r2, #3
 282 0024 1A70     		strb	r2, [r3]
 200:.\Generated_Source\PSoC5/cyfitter_cfg.c **** 	CY_SET_XTND_REG8((void CYFAR *)(CYREG_IMO_TR1), (CY_GET_XTND_REG8((void CYFAR *)CYREG_FLSHID_CUST_
 283              		.loc 1 200 0
 284 0026 2C4B     		ldr	r3, .L16+16
 285 0028 2C4A     		ldr	r2, .L16+20
 286 002a 1278     		ldrb	r2, [r2]
 287 002c D2B2     		uxtb	r2, r2
 288 002e 1A70     		strb	r2, [r3]
 201:.\Generated_Source\PSoC5/cyfitter_cfg.c **** 
 202:.\Generated_Source\PSoC5/cyfitter_cfg.c **** 	/* Configure PLL based on settings from Clock DWR */
 203:.\Generated_Source\PSoC5/cyfitter_cfg.c **** 	CY_SET_XTND_REG16((void CYFAR *)(CYREG_FASTCLK_PLL_P), 0x0008u);
 289              		.loc 1 203 0
 290 0030 2B4B     		ldr	r3, .L16+24
 291 0032 0822     		movs	r2, #8
 292 0034 1A80     		strh	r2, [r3]	@ movhi
 204:.\Generated_Source\PSoC5/cyfitter_cfg.c **** 	CY_SET_XTND_REG16((void CYFAR *)(CYREG_FASTCLK_PLL_CFG0), 0x1251u);
 293              		.loc 1 204 0
 294 0036 2B4B     		ldr	r3, .L16+28
 295 0038 41F25122 		movw	r2, #4689
 296 003c 1A80     		strh	r2, [r3]	@ movhi
 205:.\Generated_Source\PSoC5/cyfitter_cfg.c **** 	/* Wait up to 250us for the PLL to lock */
 206:.\Generated_Source\PSoC5/cyfitter_cfg.c **** 	pllLock = 0u;
 297              		.loc 1 206 0
 298 003e 0023     		movs	r3, #0
 299 0040 FB70     		strb	r3, [r7, #3]
 207:.\Generated_Source\PSoC5/cyfitter_cfg.c **** 	for (timeout = 250u / 10u; (timeout > 0u) && (pllLock != 0x03u); timeout--)
 300              		.loc 1 207 0
 301 0042 1923     		movs	r3, #25
 302 0044 7B60     		str	r3, [r7, #4]
 303 0046 14E0     		b	.L12
ARM GAS  C:\Users\SCOTTC~1\AppData\Local\Temp\ccSlq9sc.s 			page 10


 304              	.L14:
 208:.\Generated_Source\PSoC5/cyfitter_cfg.c **** 	{ 
 209:.\Generated_Source\PSoC5/cyfitter_cfg.c **** 		pllLock = 0x03u & ((uint8)((uint8)pllLock << 1) | ((CY_GET_XTND_REG8((void CYFAR *)CYREG_FASTCLK_
 305              		.loc 1 209 0 discriminator 1
 306 0048 FB78     		ldrb	r3, [r7, #3]
 307 004a 5B00     		lsls	r3, r3, #1
 308 004c DAB2     		uxtb	r2, r3
 309 004e 264B     		ldr	r3, .L16+32
 310 0050 1B78     		ldrb	r3, [r3]
 311 0052 DBB2     		uxtb	r3, r3
 312 0054 03F00103 		and	r3, r3, #1
 313 0058 DBB2     		uxtb	r3, r3
 314 005a 1343     		orrs	r3, r3, r2
 315 005c DBB2     		uxtb	r3, r3
 316 005e 03F00303 		and	r3, r3, #3
 317 0062 FB70     		strb	r3, [r7, #3]
 210:.\Generated_Source\PSoC5/cyfitter_cfg.c **** 		CyDelayCycles(10u * 48u); /* Delay 10us based on 48MHz clock */
 318              		.loc 1 210 0 discriminator 1
 319 0064 4FF4F070 		mov	r0, #480
 320 0068 FFF7FEFF 		bl	CyDelayCycles
 207:.\Generated_Source\PSoC5/cyfitter_cfg.c **** 	for (timeout = 250u / 10u; (timeout > 0u) && (pllLock != 0x03u); timeout--)
 321              		.loc 1 207 0 discriminator 1
 322 006c 7B68     		ldr	r3, [r7, #4]
 323 006e 013B     		subs	r3, r3, #1
 324 0070 7B60     		str	r3, [r7, #4]
 325              	.L12:
 326 0072 7B68     		ldr	r3, [r7, #4]
 327 0074 002B     		cmp	r3, #0
 328 0076 02D0     		beq	.L13
 207:.\Generated_Source\PSoC5/cyfitter_cfg.c **** 	for (timeout = 250u / 10u; (timeout > 0u) && (pllLock != 0x03u); timeout--)
 329              		.loc 1 207 0 is_stmt 0 discriminator 2
 330 0078 FB78     		ldrb	r3, [r7, #3]	@ zero_extendqisi2
 331 007a 032B     		cmp	r3, #3
 332 007c E4D1     		bne	.L14
 333              	.L13:
 211:.\Generated_Source\PSoC5/cyfitter_cfg.c **** 	}
 212:.\Generated_Source\PSoC5/cyfitter_cfg.c **** 	/* If we ran out of time the PLL didn't lock so go to the error function */
 213:.\Generated_Source\PSoC5/cyfitter_cfg.c **** 	if (timeout == 0u)
 334              		.loc 1 213 0 is_stmt 1
 335 007e 7B68     		ldr	r3, [r7, #4]
 336 0080 002B     		cmp	r3, #0
 337 0082 02D1     		bne	.L15
 214:.\Generated_Source\PSoC5/cyfitter_cfg.c **** 	{
 215:.\Generated_Source\PSoC5/cyfitter_cfg.c **** 		CyClockStartupError(CYCLOCKSTART_PLL_ERROR);
 338              		.loc 1 215 0
 339 0084 0320     		movs	r0, #3
 340 0086 FFF7FEFF 		bl	CyClockStartupError
 341              	.L15:
 216:.\Generated_Source\PSoC5/cyfitter_cfg.c **** 	}
 217:.\Generated_Source\PSoC5/cyfitter_cfg.c **** 
 218:.\Generated_Source\PSoC5/cyfitter_cfg.c **** 	/* Configure Bus/Master Clock based on settings from Clock DWR */
 219:.\Generated_Source\PSoC5/cyfitter_cfg.c **** 	CY_SET_XTND_REG16((void CYFAR *)(CYREG_CLKDIST_MSTR0), 0x0100u);
 342              		.loc 1 219 0
 343 008a 184B     		ldr	r3, .L16+36
 344 008c 4FF48072 		mov	r2, #256
 345 0090 1A80     		strh	r2, [r3]	@ movhi
 220:.\Generated_Source\PSoC5/cyfitter_cfg.c **** 	CY_SET_XTND_REG8((void CYFAR *)(CYREG_CLKDIST_MSTR0), 0x07u);
ARM GAS  C:\Users\SCOTTC~1\AppData\Local\Temp\ccSlq9sc.s 			page 11


 346              		.loc 1 220 0
 347 0092 164B     		ldr	r3, .L16+36
 348 0094 0722     		movs	r2, #7
 349 0096 1A70     		strb	r2, [r3]
 221:.\Generated_Source\PSoC5/cyfitter_cfg.c **** 	CY_SET_XTND_REG8((void CYFAR *)(CYREG_CLKDIST_BCFG0), 0x00u);
 350              		.loc 1 221 0
 351 0098 154B     		ldr	r3, .L16+40
 352 009a 0022     		movs	r2, #0
 353 009c 1A70     		strb	r2, [r3]
 222:.\Generated_Source\PSoC5/cyfitter_cfg.c **** 	CY_SET_XTND_REG8((void CYFAR *)(CYREG_CLKDIST_BCFG2), 0x48u);
 354              		.loc 1 222 0
 355 009e 154B     		ldr	r3, .L16+44
 356 00a0 4822     		movs	r2, #72
 357 00a2 1A70     		strb	r2, [r3]
 223:.\Generated_Source\PSoC5/cyfitter_cfg.c **** 	CY_SET_XTND_REG8((void CYFAR *)(CYREG_CLKDIST_MSTR0), 0x00u);
 358              		.loc 1 223 0
 359 00a4 114B     		ldr	r3, .L16+36
 360 00a6 0022     		movs	r2, #0
 361 00a8 1A70     		strb	r2, [r3]
 224:.\Generated_Source\PSoC5/cyfitter_cfg.c **** 	CY_SET_XTND_REG8((void CYFAR *)(CYREG_CLKDIST_LD), 0x02u);
 362              		.loc 1 224 0
 363 00aa 134B     		ldr	r3, .L16+48
 364 00ac 0222     		movs	r2, #2
 365 00ae 1A70     		strb	r2, [r3]
 225:.\Generated_Source\PSoC5/cyfitter_cfg.c **** 
 226:.\Generated_Source\PSoC5/cyfitter_cfg.c **** 	CY_SET_XTND_REG8((void CYFAR *)(CYREG_PM_ACT_CFG2), ((CY_GET_XTND_REG8((void CYFAR *)CYREG_PM_ACT_
 366              		.loc 1 226 0
 367 00b0 124B     		ldr	r3, .L16+52
 368 00b2 124A     		ldr	r2, .L16+52
 369 00b4 1278     		ldrb	r2, [r2]
 370 00b6 D2B2     		uxtb	r2, r2
 371 00b8 42F00102 		orr	r2, r2, #1
 372 00bc D2B2     		uxtb	r2, r2
 373 00be 1A70     		strb	r2, [r3]
 227:.\Generated_Source\PSoC5/cyfitter_cfg.c **** }
 374              		.loc 1 227 0
 375 00c0 0837     		adds	r7, r7, #8
 376 00c2 BD46     		mov	sp, r7
 377              		@ sp needed
 378 00c4 80BD     		pop	{r7, pc}
 379              	.L17:
 380 00c6 00BF     		.align	2
 381              	.L16:
 382 00c8 80400040 		.word	1073758336
 383 00cc 82400040 		.word	1073758338
 384 00d0 00430040 		.word	1073758976
 385 00d4 00420040 		.word	1073758720
 386 00d8 A1460040 		.word	1073759905
 387 00dc 08010049 		.word	1224737032
 388 00e0 22420040 		.word	1073758754
 389 00e4 20420040 		.word	1073758752
 390 00e8 25420040 		.word	1073758757
 391 00ec 04400040 		.word	1073758212
 392 00f0 06400040 		.word	1073758214
 393 00f4 08400040 		.word	1073758216
 394 00f8 01400040 		.word	1073758209
 395 00fc A2430040 		.word	1073759138
ARM GAS  C:\Users\SCOTTC~1\AppData\Local\Temp\ccSlq9sc.s 			page 12


 396              		.cfi_endproc
 397              	.LFE5:
 398              		.size	ClockSetup, .-ClockSetup
 399              		.section	.text.AnalogSetDefault,"ax",%progbits
 400              		.align	2
 401              		.thumb
 402              		.thumb_func
 403              		.type	AnalogSetDefault, %function
 404              	AnalogSetDefault:
 405              	.LFB6:
 228:.\Generated_Source\PSoC5/cyfitter_cfg.c **** 
 229:.\Generated_Source\PSoC5/cyfitter_cfg.c **** 
 230:.\Generated_Source\PSoC5/cyfitter_cfg.c **** /* Analog API Functions */
 231:.\Generated_Source\PSoC5/cyfitter_cfg.c **** 
 232:.\Generated_Source\PSoC5/cyfitter_cfg.c **** 
 233:.\Generated_Source\PSoC5/cyfitter_cfg.c **** /*******************************************************************************
 234:.\Generated_Source\PSoC5/cyfitter_cfg.c **** * Function Name: AnalogSetDefault
 235:.\Generated_Source\PSoC5/cyfitter_cfg.c **** ********************************************************************************
 236:.\Generated_Source\PSoC5/cyfitter_cfg.c **** *
 237:.\Generated_Source\PSoC5/cyfitter_cfg.c **** * Summary:
 238:.\Generated_Source\PSoC5/cyfitter_cfg.c **** *  Sets up the analog portions of the chip to default values based on chip
 239:.\Generated_Source\PSoC5/cyfitter_cfg.c **** *  configuration options from the project.
 240:.\Generated_Source\PSoC5/cyfitter_cfg.c **** *
 241:.\Generated_Source\PSoC5/cyfitter_cfg.c **** * Parameters:
 242:.\Generated_Source\PSoC5/cyfitter_cfg.c **** *  void
 243:.\Generated_Source\PSoC5/cyfitter_cfg.c **** *
 244:.\Generated_Source\PSoC5/cyfitter_cfg.c **** * Return:
 245:.\Generated_Source\PSoC5/cyfitter_cfg.c **** *  void
 246:.\Generated_Source\PSoC5/cyfitter_cfg.c **** *
 247:.\Generated_Source\PSoC5/cyfitter_cfg.c **** *******************************************************************************/
 248:.\Generated_Source\PSoC5/cyfitter_cfg.c **** static void AnalogSetDefault(void);
 249:.\Generated_Source\PSoC5/cyfitter_cfg.c **** static void AnalogSetDefault(void)
 250:.\Generated_Source\PSoC5/cyfitter_cfg.c **** {
 406              		.loc 1 250 0
 407              		.cfi_startproc
 408              		@ args = 0, pretend = 0, frame = 8
 409              		@ frame_needed = 1, uses_anonymous_args = 0
 410              		@ link register save eliminated.
 411 0000 80B4     		push	{r7}
 412              		.cfi_def_cfa_offset 4
 413              		.cfi_offset 7, -4
 414 0002 83B0     		sub	sp, sp, #12
 415              		.cfi_def_cfa_offset 16
 416 0004 00AF     		add	r7, sp, #0
 417              		.cfi_def_cfa_register 7
 251:.\Generated_Source\PSoC5/cyfitter_cfg.c **** 	uint8 bg_xover_inl_trim = CY_GET_XTND_REG8((void CYFAR *)(CYREG_FLSHID_MFG_CFG_BG_XOVER_INL_TRIM +
 418              		.loc 1 251 0
 419 0006 0B4B     		ldr	r3, .L19
 420 0008 1B78     		ldrb	r3, [r3]
 421 000a FB71     		strb	r3, [r7, #7]
 252:.\Generated_Source\PSoC5/cyfitter_cfg.c **** 	CY_SET_XTND_REG8((void CYFAR *)(CYREG_BG_DFT0), (bg_xover_inl_trim & 0x07u));
 422              		.loc 1 252 0
 423 000c 0A4B     		ldr	r3, .L19+4
 424 000e FA79     		ldrb	r2, [r7, #7]
 425 0010 02F00702 		and	r2, r2, #7
 426 0014 D2B2     		uxtb	r2, r2
 427 0016 1A70     		strb	r2, [r3]
ARM GAS  C:\Users\SCOTTC~1\AppData\Local\Temp\ccSlq9sc.s 			page 13


 253:.\Generated_Source\PSoC5/cyfitter_cfg.c **** 	CY_SET_XTND_REG8((void CYFAR *)(CYREG_BG_DFT1), ((bg_xover_inl_trim >> 4) & 0x0Fu));
 428              		.loc 1 253 0
 429 0018 084B     		ldr	r3, .L19+8
 430 001a FA79     		ldrb	r2, [r7, #7]	@ zero_extendqisi2
 431 001c 1209     		lsrs	r2, r2, #4
 432 001e D2B2     		uxtb	r2, r2
 433 0020 1A70     		strb	r2, [r3]
 254:.\Generated_Source\PSoC5/cyfitter_cfg.c **** 	CY_SET_XTND_REG8((void CYFAR *)CYREG_PUMP_CR0, 0x44u);
 434              		.loc 1 254 0
 435 0022 074B     		ldr	r3, .L19+12
 436 0024 4422     		movs	r2, #68
 437 0026 1A70     		strb	r2, [r3]
 255:.\Generated_Source\PSoC5/cyfitter_cfg.c **** }
 438              		.loc 1 255 0
 439 0028 0C37     		adds	r7, r7, #12
 440 002a BD46     		mov	sp, r7
 441              		@ sp needed
 442 002c 5DF8047B 		ldr	r7, [sp], #4
 443 0030 7047     		bx	lr
 444              	.L20:
 445 0032 00BF     		.align	2
 446              	.L19:
 447 0034 CF010049 		.word	1224737231
 448 0038 6E580040 		.word	1073764462
 449 003c 6F580040 		.word	1073764463
 450 0040 76580040 		.word	1073764470
 451              		.cfi_endproc
 452              	.LFE6:
 453              		.size	AnalogSetDefault, .-AnalogSetDefault
 454              		.section	.text.SetAnalogRoutingPumps,"ax",%progbits
 455              		.align	2
 456              		.global	SetAnalogRoutingPumps
 457              		.thumb
 458              		.thumb_func
 459              		.type	SetAnalogRoutingPumps, %function
 460              	SetAnalogRoutingPumps:
 461              	.LFB7:
 256:.\Generated_Source\PSoC5/cyfitter_cfg.c **** 
 257:.\Generated_Source\PSoC5/cyfitter_cfg.c **** 
 258:.\Generated_Source\PSoC5/cyfitter_cfg.c **** /*******************************************************************************
 259:.\Generated_Source\PSoC5/cyfitter_cfg.c **** * Function Name: SetAnalogRoutingPumps
 260:.\Generated_Source\PSoC5/cyfitter_cfg.c **** ********************************************************************************
 261:.\Generated_Source\PSoC5/cyfitter_cfg.c **** *
 262:.\Generated_Source\PSoC5/cyfitter_cfg.c **** * Summary:
 263:.\Generated_Source\PSoC5/cyfitter_cfg.c **** * Enables or disables the analog pumps feeding analog routing switches.
 264:.\Generated_Source\PSoC5/cyfitter_cfg.c **** * Intended to be called at startup, based on the Vdda system configuration;
 265:.\Generated_Source\PSoC5/cyfitter_cfg.c **** * may be called during operation when the user informs us that the Vdda voltage
 266:.\Generated_Source\PSoC5/cyfitter_cfg.c **** * crossed the pump threshold.
 267:.\Generated_Source\PSoC5/cyfitter_cfg.c **** *
 268:.\Generated_Source\PSoC5/cyfitter_cfg.c **** * Parameters:
 269:.\Generated_Source\PSoC5/cyfitter_cfg.c **** *  enabled - 1 to enable the pumps, 0 to disable the pumps
 270:.\Generated_Source\PSoC5/cyfitter_cfg.c **** *
 271:.\Generated_Source\PSoC5/cyfitter_cfg.c **** * Return:
 272:.\Generated_Source\PSoC5/cyfitter_cfg.c **** *  void
 273:.\Generated_Source\PSoC5/cyfitter_cfg.c **** *
 274:.\Generated_Source\PSoC5/cyfitter_cfg.c **** *******************************************************************************/
 275:.\Generated_Source\PSoC5/cyfitter_cfg.c **** void SetAnalogRoutingPumps(uint8 enabled)
ARM GAS  C:\Users\SCOTTC~1\AppData\Local\Temp\ccSlq9sc.s 			page 14


 276:.\Generated_Source\PSoC5/cyfitter_cfg.c **** {
 462              		.loc 1 276 0
 463              		.cfi_startproc
 464              		@ args = 0, pretend = 0, frame = 16
 465              		@ frame_needed = 1, uses_anonymous_args = 0
 466              		@ link register save eliminated.
 467 0000 80B4     		push	{r7}
 468              		.cfi_def_cfa_offset 4
 469              		.cfi_offset 7, -4
 470 0002 85B0     		sub	sp, sp, #20
 471              		.cfi_def_cfa_offset 24
 472 0004 00AF     		add	r7, sp, #0
 473              		.cfi_def_cfa_register 7
 474 0006 0346     		mov	r3, r0
 475 0008 FB71     		strb	r3, [r7, #7]
 277:.\Generated_Source\PSoC5/cyfitter_cfg.c **** 	uint8 regValue = CY_GET_XTND_REG8((void CYFAR *)CYREG_PUMP_CR0);
 476              		.loc 1 277 0
 477 000a 064B     		ldr	r3, .L24
 478 000c 1B78     		ldrb	r3, [r3]
 479 000e FB73     		strb	r3, [r7, #15]
 278:.\Generated_Source\PSoC5/cyfitter_cfg.c **** 	if (enabled != 0u)
 480              		.loc 1 278 0
 481 0010 FB79     		ldrb	r3, [r7, #7]	@ zero_extendqisi2
 482 0012 002B     		cmp	r3, #0
 279:.\Generated_Source\PSoC5/cyfitter_cfg.c **** 	{
 280:.\Generated_Source\PSoC5/cyfitter_cfg.c **** 		regValue |= 0x00u;
 281:.\Generated_Source\PSoC5/cyfitter_cfg.c **** 	}
 282:.\Generated_Source\PSoC5/cyfitter_cfg.c **** 	else
 283:.\Generated_Source\PSoC5/cyfitter_cfg.c **** 	{
 284:.\Generated_Source\PSoC5/cyfitter_cfg.c **** 		regValue &= (uint8)~0x00u;
 285:.\Generated_Source\PSoC5/cyfitter_cfg.c **** 	}
 286:.\Generated_Source\PSoC5/cyfitter_cfg.c **** 	CY_SET_XTND_REG8((void CYFAR *)CYREG_PUMP_CR0, regValue);
 483              		.loc 1 286 0
 484 0014 034B     		ldr	r3, .L24
 485 0016 FA7B     		ldrb	r2, [r7, #15]
 486 0018 1A70     		strb	r2, [r3]
 287:.\Generated_Source\PSoC5/cyfitter_cfg.c **** }
 487              		.loc 1 287 0
 488 001a 1437     		adds	r7, r7, #20
 489 001c BD46     		mov	sp, r7
 490              		@ sp needed
 491 001e 5DF8047B 		ldr	r7, [sp], #4
 492 0022 7047     		bx	lr
 493              	.L25:
 494              		.align	2
 495              	.L24:
 496 0024 76580040 		.word	1073764470
 497              		.cfi_endproc
 498              	.LFE7:
 499              		.size	SetAnalogRoutingPumps, .-SetAnalogRoutingPumps
 500              		.section	.text.cyfitter_cfg,"ax",%progbits
 501              		.align	2
 502              		.global	cyfitter_cfg
 503              		.thumb
 504              		.thumb_func
 505              		.type	cyfitter_cfg, %function
 506              	cyfitter_cfg:
ARM GAS  C:\Users\SCOTTC~1\AppData\Local\Temp\ccSlq9sc.s 			page 15


 507              	.LFB8:
 288:.\Generated_Source\PSoC5/cyfitter_cfg.c **** 
 289:.\Generated_Source\PSoC5/cyfitter_cfg.c **** #define CY_AMUX_UNUSED CYREG_BOOST_SR
 290:.\Generated_Source\PSoC5/cyfitter_cfg.c **** 
 291:.\Generated_Source\PSoC5/cyfitter_cfg.c **** 
 292:.\Generated_Source\PSoC5/cyfitter_cfg.c **** /*******************************************************************************
 293:.\Generated_Source\PSoC5/cyfitter_cfg.c **** * Function Name: cyfitter_cfg
 294:.\Generated_Source\PSoC5/cyfitter_cfg.c **** ********************************************************************************
 295:.\Generated_Source\PSoC5/cyfitter_cfg.c **** * Summary:
 296:.\Generated_Source\PSoC5/cyfitter_cfg.c **** *  This function is called by the start-up code for the selected device. It
 297:.\Generated_Source\PSoC5/cyfitter_cfg.c **** *  performs all of the necessary device configuration based on the design
 298:.\Generated_Source\PSoC5/cyfitter_cfg.c **** *  settings.  This includes settings from the Design Wide Resources (DWR) such
 299:.\Generated_Source\PSoC5/cyfitter_cfg.c **** *  as Clocks and Pins as well as any component configuration that is necessary.
 300:.\Generated_Source\PSoC5/cyfitter_cfg.c **** *
 301:.\Generated_Source\PSoC5/cyfitter_cfg.c **** * Parameters:  
 302:.\Generated_Source\PSoC5/cyfitter_cfg.c **** *   void
 303:.\Generated_Source\PSoC5/cyfitter_cfg.c **** *
 304:.\Generated_Source\PSoC5/cyfitter_cfg.c **** * Return:
 305:.\Generated_Source\PSoC5/cyfitter_cfg.c **** *   void
 306:.\Generated_Source\PSoC5/cyfitter_cfg.c **** *
 307:.\Generated_Source\PSoC5/cyfitter_cfg.c **** *******************************************************************************/
 308:.\Generated_Source\PSoC5/cyfitter_cfg.c **** 
 309:.\Generated_Source\PSoC5/cyfitter_cfg.c **** void cyfitter_cfg(void)
 310:.\Generated_Source\PSoC5/cyfitter_cfg.c **** {
 508              		.loc 1 310 0
 509              		.cfi_startproc
 510              		@ args = 0, pretend = 0, frame = 8
 511              		@ frame_needed = 1, uses_anonymous_args = 0
 512 0000 80B5     		push	{r7, lr}
 513              		.cfi_def_cfa_offset 8
 514              		.cfi_offset 7, -8
 515              		.cfi_offset 14, -4
 516 0002 82B0     		sub	sp, sp, #8
 517              		.cfi_def_cfa_offset 16
 518 0004 00AF     		add	r7, sp, #0
 519              		.cfi_def_cfa_register 7
 311:.\Generated_Source\PSoC5/cyfitter_cfg.c **** 	/* IOPINS0_0 Address: CYREG_PRT0_DR Size (bytes): 10 */
 312:.\Generated_Source\PSoC5/cyfitter_cfg.c **** 	static const uint8 CYCODE BS_IOPINS0_0_VAL[] = {
 313:.\Generated_Source\PSoC5/cyfitter_cfg.c **** 		0x8Cu, 0x00u, 0x04u, 0xFBu, 0xF3u, 0x00u, 0x10u, 0x00u, 0x00u, 0x00u};
 314:.\Generated_Source\PSoC5/cyfitter_cfg.c **** 
 315:.\Generated_Source\PSoC5/cyfitter_cfg.c **** 	/* IOPINS0_2 Address: CYREG_PRT2_DM0 Size (bytes): 8 */
 316:.\Generated_Source\PSoC5/cyfitter_cfg.c **** 	static const uint8 CYCODE BS_IOPINS0_2_VAL[] = {
 317:.\Generated_Source\PSoC5/cyfitter_cfg.c **** 		0x00u, 0xFFu, 0xFFu, 0x00u, 0x80u, 0x00u, 0x00u, 0x00u};
 318:.\Generated_Source\PSoC5/cyfitter_cfg.c **** 
 319:.\Generated_Source\PSoC5/cyfitter_cfg.c **** #ifdef CYGlobalIntDisable
 320:.\Generated_Source\PSoC5/cyfitter_cfg.c **** 	/* Disable interrupts by default. Let user enable if/when they want. */
 321:.\Generated_Source\PSoC5/cyfitter_cfg.c **** 	CYGlobalIntDisable
 520              		.loc 1 321 0
 521              	@ 321 ".\Generated_Source\PSoC5\cyfitter_cfg.c" 1
 522 0006 72B6     		CPSID   i
 523              	@ 0 "" 2
 322:.\Generated_Source\PSoC5/cyfitter_cfg.c **** #endif
 323:.\Generated_Source\PSoC5/cyfitter_cfg.c **** 
 324:.\Generated_Source\PSoC5/cyfitter_cfg.c **** 	/* Enable/Disable Debug functionality based on settings from System DWR */
 325:.\Generated_Source\PSoC5/cyfitter_cfg.c **** 	CY_SET_XTND_REG8((void CYFAR *)CYREG_MLOGIC_DEBUG, (CY_GET_XTND_REG8((void CYFAR *)CYREG_MLOGIC_DE
 524              		.loc 1 325 0
 525              		.thumb
ARM GAS  C:\Users\SCOTTC~1\AppData\Local\Temp\ccSlq9sc.s 			page 16


 526 0008 364B     		ldr	r3, .L29
 527 000a 364A     		ldr	r2, .L29
 528 000c 1278     		ldrb	r2, [r2]
 529 000e D2B2     		uxtb	r2, r2
 530 0010 42F00402 		orr	r2, r2, #4
 531 0014 D2B2     		uxtb	r2, r2
 532 0016 1A70     		strb	r2, [r3]
 533              	.LBB3:
 326:.\Generated_Source\PSoC5/cyfitter_cfg.c **** 
 327:.\Generated_Source\PSoC5/cyfitter_cfg.c **** 	{
 328:.\Generated_Source\PSoC5/cyfitter_cfg.c **** 		static const uint32 CYCODE cy_cfg_addr_table[] = {
 329:.\Generated_Source\PSoC5/cyfitter_cfg.c **** 			0x40005203u, /* Base address: 0x40005200 Count: 3 */
 330:.\Generated_Source\PSoC5/cyfitter_cfg.c **** 			0x40006403u, /* Base address: 0x40006400 Count: 3 */
 331:.\Generated_Source\PSoC5/cyfitter_cfg.c **** 			0x40010052u, /* Base address: 0x40010000 Count: 82 */
 332:.\Generated_Source\PSoC5/cyfitter_cfg.c **** 			0x40010135u, /* Base address: 0x40010100 Count: 53 */
 333:.\Generated_Source\PSoC5/cyfitter_cfg.c **** 			0x40010259u, /* Base address: 0x40010200 Count: 89 */
 334:.\Generated_Source\PSoC5/cyfitter_cfg.c **** 			0x40010342u, /* Base address: 0x40010300 Count: 66 */
 335:.\Generated_Source\PSoC5/cyfitter_cfg.c **** 			0x40010455u, /* Base address: 0x40010400 Count: 85 */
 336:.\Generated_Source\PSoC5/cyfitter_cfg.c **** 			0x4001054Au, /* Base address: 0x40010500 Count: 74 */
 337:.\Generated_Source\PSoC5/cyfitter_cfg.c **** 			0x40010701u, /* Base address: 0x40010700 Count: 1 */
 338:.\Generated_Source\PSoC5/cyfitter_cfg.c **** 			0x40010D01u, /* Base address: 0x40010D00 Count: 1 */
 339:.\Generated_Source\PSoC5/cyfitter_cfg.c **** 			0x40014003u, /* Base address: 0x40014000 Count: 3 */
 340:.\Generated_Source\PSoC5/cyfitter_cfg.c **** 			0x40014109u, /* Base address: 0x40014100 Count: 9 */
 341:.\Generated_Source\PSoC5/cyfitter_cfg.c **** 			0x40014203u, /* Base address: 0x40014200 Count: 3 */
 342:.\Generated_Source\PSoC5/cyfitter_cfg.c **** 			0x40014302u, /* Base address: 0x40014300 Count: 2 */
 343:.\Generated_Source\PSoC5/cyfitter_cfg.c **** 			0x40014504u, /* Base address: 0x40014500 Count: 4 */
 344:.\Generated_Source\PSoC5/cyfitter_cfg.c **** 			0x40015003u, /* Base address: 0x40015000 Count: 3 */
 345:.\Generated_Source\PSoC5/cyfitter_cfg.c **** 			0x40015101u, /* Base address: 0x40015100 Count: 1 */
 346:.\Generated_Source\PSoC5/cyfitter_cfg.c **** 		};
 347:.\Generated_Source\PSoC5/cyfitter_cfg.c **** 
 348:.\Generated_Source\PSoC5/cyfitter_cfg.c **** 		static const cy_cfg_addrvalue_t CYCODE cy_cfg_data_table[] = {
 349:.\Generated_Source\PSoC5/cyfitter_cfg.c **** 			{0x01u, 0x10u},
 350:.\Generated_Source\PSoC5/cyfitter_cfg.c **** 			{0x04u, 0x04u},
 351:.\Generated_Source\PSoC5/cyfitter_cfg.c **** 			{0x10u, 0x80u},
 352:.\Generated_Source\PSoC5/cyfitter_cfg.c **** 			{0x81u, 0x0Fu},
 353:.\Generated_Source\PSoC5/cyfitter_cfg.c **** 			{0x83u, 0x38u},
 354:.\Generated_Source\PSoC5/cyfitter_cfg.c **** 			{0x85u, 0x76u},
 355:.\Generated_Source\PSoC5/cyfitter_cfg.c **** 			{0x03u, 0x02u},
 356:.\Generated_Source\PSoC5/cyfitter_cfg.c **** 			{0x07u, 0x02u},
 357:.\Generated_Source\PSoC5/cyfitter_cfg.c **** 			{0x08u, 0x06u},
 358:.\Generated_Source\PSoC5/cyfitter_cfg.c **** 			{0x0Au, 0x18u},
 359:.\Generated_Source\PSoC5/cyfitter_cfg.c **** 			{0x0Bu, 0x01u},
 360:.\Generated_Source\PSoC5/cyfitter_cfg.c **** 			{0x12u, 0x01u},
 361:.\Generated_Source\PSoC5/cyfitter_cfg.c **** 			{0x15u, 0x01u},
 362:.\Generated_Source\PSoC5/cyfitter_cfg.c **** 			{0x16u, 0x1Cu},
 363:.\Generated_Source\PSoC5/cyfitter_cfg.c **** 			{0x19u, 0x01u},
 364:.\Generated_Source\PSoC5/cyfitter_cfg.c **** 			{0x1Cu, 0x12u},
 365:.\Generated_Source\PSoC5/cyfitter_cfg.c **** 			{0x1Fu, 0x01u},
 366:.\Generated_Source\PSoC5/cyfitter_cfg.c **** 			{0x24u, 0x06u},
 367:.\Generated_Source\PSoC5/cyfitter_cfg.c **** 			{0x26u, 0x08u},
 368:.\Generated_Source\PSoC5/cyfitter_cfg.c **** 			{0x28u, 0x06u},
 369:.\Generated_Source\PSoC5/cyfitter_cfg.c **** 			{0x2Au, 0x08u},
 370:.\Generated_Source\PSoC5/cyfitter_cfg.c **** 			{0x2Bu, 0x01u},
 371:.\Generated_Source\PSoC5/cyfitter_cfg.c **** 			{0x2Eu, 0x01u},
 372:.\Generated_Source\PSoC5/cyfitter_cfg.c **** 			{0x31u, 0x01u},
 373:.\Generated_Source\PSoC5/cyfitter_cfg.c **** 			{0x32u, 0x1Eu},
 374:.\Generated_Source\PSoC5/cyfitter_cfg.c **** 			{0x34u, 0x01u},
ARM GAS  C:\Users\SCOTTC~1\AppData\Local\Temp\ccSlq9sc.s 			page 17


 375:.\Generated_Source\PSoC5/cyfitter_cfg.c **** 			{0x37u, 0x02u},
 376:.\Generated_Source\PSoC5/cyfitter_cfg.c **** 			{0x3Au, 0x08u},
 377:.\Generated_Source\PSoC5/cyfitter_cfg.c **** 			{0x3Bu, 0x08u},
 378:.\Generated_Source\PSoC5/cyfitter_cfg.c **** 			{0x3Eu, 0x10u},
 379:.\Generated_Source\PSoC5/cyfitter_cfg.c **** 			{0x3Fu, 0x41u},
 380:.\Generated_Source\PSoC5/cyfitter_cfg.c **** 			{0x58u, 0x04u},
 381:.\Generated_Source\PSoC5/cyfitter_cfg.c **** 			{0x59u, 0x04u},
 382:.\Generated_Source\PSoC5/cyfitter_cfg.c **** 			{0x5Fu, 0x01u},
 383:.\Generated_Source\PSoC5/cyfitter_cfg.c **** 			{0x80u, 0x24u},
 384:.\Generated_Source\PSoC5/cyfitter_cfg.c **** 			{0x81u, 0x20u},
 385:.\Generated_Source\PSoC5/cyfitter_cfg.c **** 			{0x82u, 0xDBu},
 386:.\Generated_Source\PSoC5/cyfitter_cfg.c **** 			{0x84u, 0xB6u},
 387:.\Generated_Source\PSoC5/cyfitter_cfg.c **** 			{0x85u, 0x14u},
 388:.\Generated_Source\PSoC5/cyfitter_cfg.c **** 			{0x86u, 0x49u},
 389:.\Generated_Source\PSoC5/cyfitter_cfg.c **** 			{0x88u, 0xB6u},
 390:.\Generated_Source\PSoC5/cyfitter_cfg.c **** 			{0x89u, 0x0Cu},
 391:.\Generated_Source\PSoC5/cyfitter_cfg.c **** 			{0x8Au, 0x49u},
 392:.\Generated_Source\PSoC5/cyfitter_cfg.c **** 			{0x8Bu, 0x11u},
 393:.\Generated_Source\PSoC5/cyfitter_cfg.c **** 			{0x90u, 0x03u},
 394:.\Generated_Source\PSoC5/cyfitter_cfg.c **** 			{0x92u, 0x1Cu},
 395:.\Generated_Source\PSoC5/cyfitter_cfg.c **** 			{0x93u, 0x03u},
 396:.\Generated_Source\PSoC5/cyfitter_cfg.c **** 			{0x95u, 0x10u},
 397:.\Generated_Source\PSoC5/cyfitter_cfg.c **** 			{0x97u, 0x0Cu},
 398:.\Generated_Source\PSoC5/cyfitter_cfg.c **** 			{0x98u, 0xE0u},
 399:.\Generated_Source\PSoC5/cyfitter_cfg.c **** 			{0x9Au, 0x1Cu},
 400:.\Generated_Source\PSoC5/cyfitter_cfg.c **** 			{0x9Cu, 0x6Du},
 401:.\Generated_Source\PSoC5/cyfitter_cfg.c **** 			{0x9Eu, 0x92u},
 402:.\Generated_Source\PSoC5/cyfitter_cfg.c **** 			{0xA0u, 0x92u},
 403:.\Generated_Source\PSoC5/cyfitter_cfg.c **** 			{0xA1u, 0x1Cu},
 404:.\Generated_Source\PSoC5/cyfitter_cfg.c **** 			{0xA2u, 0x49u},
 405:.\Generated_Source\PSoC5/cyfitter_cfg.c **** 			{0xA3u, 0x02u},
 406:.\Generated_Source\PSoC5/cyfitter_cfg.c **** 			{0xA7u, 0x10u},
 407:.\Generated_Source\PSoC5/cyfitter_cfg.c **** 			{0xA9u, 0x09u},
 408:.\Generated_Source\PSoC5/cyfitter_cfg.c **** 			{0xABu, 0x10u},
 409:.\Generated_Source\PSoC5/cyfitter_cfg.c **** 			{0xACu, 0x1Cu},
 410:.\Generated_Source\PSoC5/cyfitter_cfg.c **** 			{0xAEu, 0xE3u},
 411:.\Generated_Source\PSoC5/cyfitter_cfg.c **** 			{0xB1u, 0x1Fu},
 412:.\Generated_Source\PSoC5/cyfitter_cfg.c **** 			{0xB2u, 0xFFu},
 413:.\Generated_Source\PSoC5/cyfitter_cfg.c **** 			{0xB5u, 0x20u},
 414:.\Generated_Source\PSoC5/cyfitter_cfg.c **** 			{0xBEu, 0x04u},
 415:.\Generated_Source\PSoC5/cyfitter_cfg.c **** 			{0xBFu, 0x10u},
 416:.\Generated_Source\PSoC5/cyfitter_cfg.c **** 			{0xC0u, 0x36u},
 417:.\Generated_Source\PSoC5/cyfitter_cfg.c **** 			{0xC1u, 0x02u},
 418:.\Generated_Source\PSoC5/cyfitter_cfg.c **** 			{0xC5u, 0xEBu},
 419:.\Generated_Source\PSoC5/cyfitter_cfg.c **** 			{0xC6u, 0xC0u},
 420:.\Generated_Source\PSoC5/cyfitter_cfg.c **** 			{0xC8u, 0x0Bu},
 421:.\Generated_Source\PSoC5/cyfitter_cfg.c **** 			{0xC9u, 0xFFu},
 422:.\Generated_Source\PSoC5/cyfitter_cfg.c **** 			{0xCAu, 0xFFu},
 423:.\Generated_Source\PSoC5/cyfitter_cfg.c **** 			{0xCBu, 0xFFu},
 424:.\Generated_Source\PSoC5/cyfitter_cfg.c **** 			{0xCEu, 0xF0u},
 425:.\Generated_Source\PSoC5/cyfitter_cfg.c **** 			{0xCFu, 0x44u},
 426:.\Generated_Source\PSoC5/cyfitter_cfg.c **** 			{0xD0u, 0x0Cu},
 427:.\Generated_Source\PSoC5/cyfitter_cfg.c **** 			{0xD4u, 0x01u},
 428:.\Generated_Source\PSoC5/cyfitter_cfg.c **** 			{0xD6u, 0x04u},
 429:.\Generated_Source\PSoC5/cyfitter_cfg.c **** 			{0xD8u, 0x04u},
 430:.\Generated_Source\PSoC5/cyfitter_cfg.c **** 			{0xD9u, 0x04u},
 431:.\Generated_Source\PSoC5/cyfitter_cfg.c **** 			{0xDAu, 0x04u},
ARM GAS  C:\Users\SCOTTC~1\AppData\Local\Temp\ccSlq9sc.s 			page 18


 432:.\Generated_Source\PSoC5/cyfitter_cfg.c **** 			{0xDBu, 0x04u},
 433:.\Generated_Source\PSoC5/cyfitter_cfg.c **** 			{0xDFu, 0x01u},
 434:.\Generated_Source\PSoC5/cyfitter_cfg.c **** 			{0xE6u, 0xC0u},
 435:.\Generated_Source\PSoC5/cyfitter_cfg.c **** 			{0xEAu, 0x40u},
 436:.\Generated_Source\PSoC5/cyfitter_cfg.c **** 			{0xEBu, 0x02u},
 437:.\Generated_Source\PSoC5/cyfitter_cfg.c **** 			{0x03u, 0x04u},
 438:.\Generated_Source\PSoC5/cyfitter_cfg.c **** 			{0x04u, 0x2Au},
 439:.\Generated_Source\PSoC5/cyfitter_cfg.c **** 			{0x08u, 0x48u},
 440:.\Generated_Source\PSoC5/cyfitter_cfg.c **** 			{0x0Au, 0x80u},
 441:.\Generated_Source\PSoC5/cyfitter_cfg.c **** 			{0x0Eu, 0x0Au},
 442:.\Generated_Source\PSoC5/cyfitter_cfg.c **** 			{0x0Fu, 0x40u},
 443:.\Generated_Source\PSoC5/cyfitter_cfg.c **** 			{0x12u, 0x11u},
 444:.\Generated_Source\PSoC5/cyfitter_cfg.c **** 			{0x13u, 0x20u},
 445:.\Generated_Source\PSoC5/cyfitter_cfg.c **** 			{0x17u, 0x41u},
 446:.\Generated_Source\PSoC5/cyfitter_cfg.c **** 			{0x18u, 0x04u},
 447:.\Generated_Source\PSoC5/cyfitter_cfg.c **** 			{0x19u, 0x04u},
 448:.\Generated_Source\PSoC5/cyfitter_cfg.c **** 			{0x1Eu, 0x10u},
 449:.\Generated_Source\PSoC5/cyfitter_cfg.c **** 			{0x20u, 0x40u},
 450:.\Generated_Source\PSoC5/cyfitter_cfg.c **** 			{0x22u, 0x08u},
 451:.\Generated_Source\PSoC5/cyfitter_cfg.c **** 			{0x23u, 0x01u},
 452:.\Generated_Source\PSoC5/cyfitter_cfg.c **** 			{0x24u, 0x80u},
 453:.\Generated_Source\PSoC5/cyfitter_cfg.c **** 			{0x26u, 0x02u},
 454:.\Generated_Source\PSoC5/cyfitter_cfg.c **** 			{0x27u, 0x08u},
 455:.\Generated_Source\PSoC5/cyfitter_cfg.c **** 			{0x28u, 0x08u},
 456:.\Generated_Source\PSoC5/cyfitter_cfg.c **** 			{0x2Bu, 0x0Cu},
 457:.\Generated_Source\PSoC5/cyfitter_cfg.c **** 			{0x2Eu, 0x08u},
 458:.\Generated_Source\PSoC5/cyfitter_cfg.c **** 			{0x2Fu, 0x88u},
 459:.\Generated_Source\PSoC5/cyfitter_cfg.c **** 			{0x30u, 0x40u},
 460:.\Generated_Source\PSoC5/cyfitter_cfg.c **** 			{0x31u, 0x24u},
 461:.\Generated_Source\PSoC5/cyfitter_cfg.c **** 			{0x32u, 0x80u},
 462:.\Generated_Source\PSoC5/cyfitter_cfg.c **** 			{0x33u, 0x84u},
 463:.\Generated_Source\PSoC5/cyfitter_cfg.c **** 			{0x35u, 0x04u},
 464:.\Generated_Source\PSoC5/cyfitter_cfg.c **** 			{0x36u, 0x02u},
 465:.\Generated_Source\PSoC5/cyfitter_cfg.c **** 			{0x38u, 0x10u},
 466:.\Generated_Source\PSoC5/cyfitter_cfg.c **** 			{0x39u, 0x0Au},
 467:.\Generated_Source\PSoC5/cyfitter_cfg.c **** 			{0x3Au, 0x10u},
 468:.\Generated_Source\PSoC5/cyfitter_cfg.c **** 			{0x3Du, 0x21u},
 469:.\Generated_Source\PSoC5/cyfitter_cfg.c **** 			{0x3Fu, 0x04u},
 470:.\Generated_Source\PSoC5/cyfitter_cfg.c **** 			{0x45u, 0x30u},
 471:.\Generated_Source\PSoC5/cyfitter_cfg.c **** 			{0x47u, 0x24u},
 472:.\Generated_Source\PSoC5/cyfitter_cfg.c **** 			{0x4Du, 0x01u},
 473:.\Generated_Source\PSoC5/cyfitter_cfg.c **** 			{0x4Eu, 0x04u},
 474:.\Generated_Source\PSoC5/cyfitter_cfg.c **** 			{0x4Fu, 0x04u},
 475:.\Generated_Source\PSoC5/cyfitter_cfg.c **** 			{0x56u, 0x10u},
 476:.\Generated_Source\PSoC5/cyfitter_cfg.c **** 			{0x5Cu, 0x50u},
 477:.\Generated_Source\PSoC5/cyfitter_cfg.c **** 			{0x5Du, 0x01u},
 478:.\Generated_Source\PSoC5/cyfitter_cfg.c **** 			{0x5Fu, 0x08u},
 479:.\Generated_Source\PSoC5/cyfitter_cfg.c **** 			{0x65u, 0x01u},
 480:.\Generated_Source\PSoC5/cyfitter_cfg.c **** 			{0xC0u, 0x72u},
 481:.\Generated_Source\PSoC5/cyfitter_cfg.c **** 			{0xC2u, 0xDDu},
 482:.\Generated_Source\PSoC5/cyfitter_cfg.c **** 			{0xC4u, 0x97u},
 483:.\Generated_Source\PSoC5/cyfitter_cfg.c **** 			{0xCAu, 0xE4u},
 484:.\Generated_Source\PSoC5/cyfitter_cfg.c **** 			{0xCCu, 0xCEu},
 485:.\Generated_Source\PSoC5/cyfitter_cfg.c **** 			{0xCEu, 0xE7u},
 486:.\Generated_Source\PSoC5/cyfitter_cfg.c **** 			{0xD0u, 0x60u},
 487:.\Generated_Source\PSoC5/cyfitter_cfg.c **** 			{0xD2u, 0x20u},
 488:.\Generated_Source\PSoC5/cyfitter_cfg.c **** 			{0xD6u, 0xF0u},
ARM GAS  C:\Users\SCOTTC~1\AppData\Local\Temp\ccSlq9sc.s 			page 19


 489:.\Generated_Source\PSoC5/cyfitter_cfg.c **** 			{0xD8u, 0x80u},
 490:.\Generated_Source\PSoC5/cyfitter_cfg.c **** 			{0x00u, 0x01u},
 491:.\Generated_Source\PSoC5/cyfitter_cfg.c **** 			{0x01u, 0x5Bu},
 492:.\Generated_Source\PSoC5/cyfitter_cfg.c **** 			{0x02u, 0x02u},
 493:.\Generated_Source\PSoC5/cyfitter_cfg.c **** 			{0x03u, 0x24u},
 494:.\Generated_Source\PSoC5/cyfitter_cfg.c **** 			{0x04u, 0x01u},
 495:.\Generated_Source\PSoC5/cyfitter_cfg.c **** 			{0x05u, 0x38u},
 496:.\Generated_Source\PSoC5/cyfitter_cfg.c **** 			{0x06u, 0x02u},
 497:.\Generated_Source\PSoC5/cyfitter_cfg.c **** 			{0x07u, 0x07u},
 498:.\Generated_Source\PSoC5/cyfitter_cfg.c **** 			{0x08u, 0x01u},
 499:.\Generated_Source\PSoC5/cyfitter_cfg.c **** 			{0x0Au, 0x02u},
 500:.\Generated_Source\PSoC5/cyfitter_cfg.c **** 			{0x0Bu, 0x80u},
 501:.\Generated_Source\PSoC5/cyfitter_cfg.c **** 			{0x0Du, 0x47u},
 502:.\Generated_Source\PSoC5/cyfitter_cfg.c **** 			{0x0Fu, 0x38u},
 503:.\Generated_Source\PSoC5/cyfitter_cfg.c **** 			{0x10u, 0x18u},
 504:.\Generated_Source\PSoC5/cyfitter_cfg.c **** 			{0x11u, 0x24u},
 505:.\Generated_Source\PSoC5/cyfitter_cfg.c **** 			{0x13u, 0x12u},
 506:.\Generated_Source\PSoC5/cyfitter_cfg.c **** 			{0x14u, 0x08u},
 507:.\Generated_Source\PSoC5/cyfitter_cfg.c **** 			{0x1Au, 0x1Cu},
 508:.\Generated_Source\PSoC5/cyfitter_cfg.c **** 			{0x1Cu, 0x03u},
 509:.\Generated_Source\PSoC5/cyfitter_cfg.c **** 			{0x1Fu, 0x40u},
 510:.\Generated_Source\PSoC5/cyfitter_cfg.c **** 			{0x20u, 0x01u},
 511:.\Generated_Source\PSoC5/cyfitter_cfg.c **** 			{0x21u, 0x49u},
 512:.\Generated_Source\PSoC5/cyfitter_cfg.c **** 			{0x22u, 0x02u},
 513:.\Generated_Source\PSoC5/cyfitter_cfg.c **** 			{0x23u, 0x36u},
 514:.\Generated_Source\PSoC5/cyfitter_cfg.c **** 			{0x25u, 0x6Du},
 515:.\Generated_Source\PSoC5/cyfitter_cfg.c **** 			{0x26u, 0x14u},
 516:.\Generated_Source\PSoC5/cyfitter_cfg.c **** 			{0x27u, 0x12u},
 517:.\Generated_Source\PSoC5/cyfitter_cfg.c **** 			{0x29u, 0x6Du},
 518:.\Generated_Source\PSoC5/cyfitter_cfg.c **** 			{0x2Au, 0x0Cu},
 519:.\Generated_Source\PSoC5/cyfitter_cfg.c **** 			{0x2Bu, 0x12u},
 520:.\Generated_Source\PSoC5/cyfitter_cfg.c **** 			{0x30u, 0x03u},
 521:.\Generated_Source\PSoC5/cyfitter_cfg.c **** 			{0x31u, 0xC0u},
 522:.\Generated_Source\PSoC5/cyfitter_cfg.c **** 			{0x32u, 0x1Cu},
 523:.\Generated_Source\PSoC5/cyfitter_cfg.c **** 			{0x33u, 0x3Fu},
 524:.\Generated_Source\PSoC5/cyfitter_cfg.c **** 			{0x3Au, 0x08u},
 525:.\Generated_Source\PSoC5/cyfitter_cfg.c **** 			{0x40u, 0x02u},
 526:.\Generated_Source\PSoC5/cyfitter_cfg.c **** 			{0x45u, 0x10u},
 527:.\Generated_Source\PSoC5/cyfitter_cfg.c **** 			{0x47u, 0x05u},
 528:.\Generated_Source\PSoC5/cyfitter_cfg.c **** 			{0x48u, 0x12u},
 529:.\Generated_Source\PSoC5/cyfitter_cfg.c **** 			{0x49u, 0xFFu},
 530:.\Generated_Source\PSoC5/cyfitter_cfg.c **** 			{0x4Au, 0x0Fu},
 531:.\Generated_Source\PSoC5/cyfitter_cfg.c **** 			{0x4Bu, 0xFFu},
 532:.\Generated_Source\PSoC5/cyfitter_cfg.c **** 			{0x4Cu, 0x40u},
 533:.\Generated_Source\PSoC5/cyfitter_cfg.c **** 			{0x4Du, 0x20u},
 534:.\Generated_Source\PSoC5/cyfitter_cfg.c **** 			{0x4Eu, 0xF0u},
 535:.\Generated_Source\PSoC5/cyfitter_cfg.c **** 			{0x4Fu, 0x05u},
 536:.\Generated_Source\PSoC5/cyfitter_cfg.c **** 			{0x50u, 0x08u},
 537:.\Generated_Source\PSoC5/cyfitter_cfg.c **** 			{0x58u, 0x04u},
 538:.\Generated_Source\PSoC5/cyfitter_cfg.c **** 			{0x59u, 0x04u},
 539:.\Generated_Source\PSoC5/cyfitter_cfg.c **** 			{0x5Au, 0x04u},
 540:.\Generated_Source\PSoC5/cyfitter_cfg.c **** 			{0x5Fu, 0x01u},
 541:.\Generated_Source\PSoC5/cyfitter_cfg.c **** 			{0x60u, 0x40u},
 542:.\Generated_Source\PSoC5/cyfitter_cfg.c **** 			{0x61u, 0xA8u},
 543:.\Generated_Source\PSoC5/cyfitter_cfg.c **** 			{0x62u, 0x40u},
 544:.\Generated_Source\PSoC5/cyfitter_cfg.c **** 			{0x63u, 0x20u},
 545:.\Generated_Source\PSoC5/cyfitter_cfg.c **** 			{0x80u, 0x80u},
ARM GAS  C:\Users\SCOTTC~1\AppData\Local\Temp\ccSlq9sc.s 			page 20


 546:.\Generated_Source\PSoC5/cyfitter_cfg.c **** 			{0x82u, 0x18u},
 547:.\Generated_Source\PSoC5/cyfitter_cfg.c **** 			{0x84u, 0x08u},
 548:.\Generated_Source\PSoC5/cyfitter_cfg.c **** 			{0x85u, 0x01u},
 549:.\Generated_Source\PSoC5/cyfitter_cfg.c **** 			{0x87u, 0x02u},
 550:.\Generated_Source\PSoC5/cyfitter_cfg.c **** 			{0x88u, 0x10u},
 551:.\Generated_Source\PSoC5/cyfitter_cfg.c **** 			{0x8Eu, 0x06u},
 552:.\Generated_Source\PSoC5/cyfitter_cfg.c **** 			{0x90u, 0x59u},
 553:.\Generated_Source\PSoC5/cyfitter_cfg.c **** 			{0x92u, 0x04u},
 554:.\Generated_Source\PSoC5/cyfitter_cfg.c **** 			{0x94u, 0x47u},
 555:.\Generated_Source\PSoC5/cyfitter_cfg.c **** 			{0x96u, 0x18u},
 556:.\Generated_Source\PSoC5/cyfitter_cfg.c **** 			{0x98u, 0x59u},
 557:.\Generated_Source\PSoC5/cyfitter_cfg.c **** 			{0x9Au, 0x02u},
 558:.\Generated_Source\PSoC5/cyfitter_cfg.c **** 			{0x9Eu, 0x01u},
 559:.\Generated_Source\PSoC5/cyfitter_cfg.c **** 			{0xA0u, 0x20u},
 560:.\Generated_Source\PSoC5/cyfitter_cfg.c **** 			{0xA4u, 0x01u},
 561:.\Generated_Source\PSoC5/cyfitter_cfg.c **** 			{0xA8u, 0x5Fu},
 562:.\Generated_Source\PSoC5/cyfitter_cfg.c **** 			{0xACu, 0x80u},
 563:.\Generated_Source\PSoC5/cyfitter_cfg.c **** 			{0xB0u, 0x1Fu},
 564:.\Generated_Source\PSoC5/cyfitter_cfg.c **** 			{0xB1u, 0x02u},
 565:.\Generated_Source\PSoC5/cyfitter_cfg.c **** 			{0xB2u, 0x20u},
 566:.\Generated_Source\PSoC5/cyfitter_cfg.c **** 			{0xB3u, 0x01u},
 567:.\Generated_Source\PSoC5/cyfitter_cfg.c **** 			{0xB4u, 0x20u},
 568:.\Generated_Source\PSoC5/cyfitter_cfg.c **** 			{0xB6u, 0xC0u},
 569:.\Generated_Source\PSoC5/cyfitter_cfg.c **** 			{0xB8u, 0x80u},
 570:.\Generated_Source\PSoC5/cyfitter_cfg.c **** 			{0xBAu, 0x02u},
 571:.\Generated_Source\PSoC5/cyfitter_cfg.c **** 			{0xBEu, 0x10u},
 572:.\Generated_Source\PSoC5/cyfitter_cfg.c **** 			{0xBFu, 0x04u},
 573:.\Generated_Source\PSoC5/cyfitter_cfg.c **** 			{0xD4u, 0x18u},
 574:.\Generated_Source\PSoC5/cyfitter_cfg.c **** 			{0xD6u, 0x04u},
 575:.\Generated_Source\PSoC5/cyfitter_cfg.c **** 			{0xD8u, 0x04u},
 576:.\Generated_Source\PSoC5/cyfitter_cfg.c **** 			{0xD9u, 0x04u},
 577:.\Generated_Source\PSoC5/cyfitter_cfg.c **** 			{0xDBu, 0x04u},
 578:.\Generated_Source\PSoC5/cyfitter_cfg.c **** 			{0xDFu, 0x01u},
 579:.\Generated_Source\PSoC5/cyfitter_cfg.c **** 			{0x00u, 0x28u},
 580:.\Generated_Source\PSoC5/cyfitter_cfg.c **** 			{0x03u, 0x82u},
 581:.\Generated_Source\PSoC5/cyfitter_cfg.c **** 			{0x04u, 0x2Au},
 582:.\Generated_Source\PSoC5/cyfitter_cfg.c **** 			{0x09u, 0x28u},
 583:.\Generated_Source\PSoC5/cyfitter_cfg.c **** 			{0x0Au, 0x42u},
 584:.\Generated_Source\PSoC5/cyfitter_cfg.c **** 			{0x0Cu, 0x08u},
 585:.\Generated_Source\PSoC5/cyfitter_cfg.c **** 			{0x0Eu, 0x82u},
 586:.\Generated_Source\PSoC5/cyfitter_cfg.c **** 			{0x0Fu, 0x08u},
 587:.\Generated_Source\PSoC5/cyfitter_cfg.c **** 			{0x10u, 0x82u},
 588:.\Generated_Source\PSoC5/cyfitter_cfg.c **** 			{0x11u, 0x04u},
 589:.\Generated_Source\PSoC5/cyfitter_cfg.c **** 			{0x12u, 0x08u},
 590:.\Generated_Source\PSoC5/cyfitter_cfg.c **** 			{0x17u, 0x25u},
 591:.\Generated_Source\PSoC5/cyfitter_cfg.c **** 			{0x18u, 0x02u},
 592:.\Generated_Source\PSoC5/cyfitter_cfg.c **** 			{0x1Au, 0x48u},
 593:.\Generated_Source\PSoC5/cyfitter_cfg.c **** 			{0x1Bu, 0x84u},
 594:.\Generated_Source\PSoC5/cyfitter_cfg.c **** 			{0x1Eu, 0x20u},
 595:.\Generated_Source\PSoC5/cyfitter_cfg.c **** 			{0x1Fu, 0x02u},
 596:.\Generated_Source\PSoC5/cyfitter_cfg.c **** 			{0x22u, 0x01u},
 597:.\Generated_Source\PSoC5/cyfitter_cfg.c **** 			{0x23u, 0x10u},
 598:.\Generated_Source\PSoC5/cyfitter_cfg.c **** 			{0x24u, 0x10u},
 599:.\Generated_Source\PSoC5/cyfitter_cfg.c **** 			{0x25u, 0x05u},
 600:.\Generated_Source\PSoC5/cyfitter_cfg.c **** 			{0x26u, 0x04u},
 601:.\Generated_Source\PSoC5/cyfitter_cfg.c **** 			{0x27u, 0x40u},
 602:.\Generated_Source\PSoC5/cyfitter_cfg.c **** 			{0x2Eu, 0x04u},
ARM GAS  C:\Users\SCOTTC~1\AppData\Local\Temp\ccSlq9sc.s 			page 21


 603:.\Generated_Source\PSoC5/cyfitter_cfg.c **** 			{0x2Fu, 0x88u},
 604:.\Generated_Source\PSoC5/cyfitter_cfg.c **** 			{0x37u, 0x41u},
 605:.\Generated_Source\PSoC5/cyfitter_cfg.c **** 			{0x39u, 0x04u},
 606:.\Generated_Source\PSoC5/cyfitter_cfg.c **** 			{0x3Du, 0x09u},
 607:.\Generated_Source\PSoC5/cyfitter_cfg.c **** 			{0x3Eu, 0x10u},
 608:.\Generated_Source\PSoC5/cyfitter_cfg.c **** 			{0x3Fu, 0x40u},
 609:.\Generated_Source\PSoC5/cyfitter_cfg.c **** 			{0x47u, 0x10u},
 610:.\Generated_Source\PSoC5/cyfitter_cfg.c **** 			{0x4Cu, 0x80u},
 611:.\Generated_Source\PSoC5/cyfitter_cfg.c **** 			{0x54u, 0x08u},
 612:.\Generated_Source\PSoC5/cyfitter_cfg.c **** 			{0x56u, 0x08u},
 613:.\Generated_Source\PSoC5/cyfitter_cfg.c **** 			{0x5Au, 0x01u},
 614:.\Generated_Source\PSoC5/cyfitter_cfg.c **** 			{0x5Eu, 0x20u},
 615:.\Generated_Source\PSoC5/cyfitter_cfg.c **** 			{0x5Fu, 0x20u},
 616:.\Generated_Source\PSoC5/cyfitter_cfg.c **** 			{0x60u, 0x84u},
 617:.\Generated_Source\PSoC5/cyfitter_cfg.c **** 			{0x63u, 0x01u},
 618:.\Generated_Source\PSoC5/cyfitter_cfg.c **** 			{0x80u, 0x80u},
 619:.\Generated_Source\PSoC5/cyfitter_cfg.c **** 			{0x8Bu, 0x10u},
 620:.\Generated_Source\PSoC5/cyfitter_cfg.c **** 			{0x90u, 0x84u},
 621:.\Generated_Source\PSoC5/cyfitter_cfg.c **** 			{0x92u, 0x10u},
 622:.\Generated_Source\PSoC5/cyfitter_cfg.c **** 			{0x93u, 0x01u},
 623:.\Generated_Source\PSoC5/cyfitter_cfg.c **** 			{0x94u, 0x2Au},
 624:.\Generated_Source\PSoC5/cyfitter_cfg.c **** 			{0x95u, 0x0Au},
 625:.\Generated_Source\PSoC5/cyfitter_cfg.c **** 			{0x96u, 0x88u},
 626:.\Generated_Source\PSoC5/cyfitter_cfg.c **** 			{0x97u, 0x40u},
 627:.\Generated_Source\PSoC5/cyfitter_cfg.c **** 			{0x99u, 0x04u},
 628:.\Generated_Source\PSoC5/cyfitter_cfg.c **** 			{0x9Bu, 0x04u},
 629:.\Generated_Source\PSoC5/cyfitter_cfg.c **** 			{0x9Eu, 0x09u},
 630:.\Generated_Source\PSoC5/cyfitter_cfg.c **** 			{0x9Fu, 0x61u},
 631:.\Generated_Source\PSoC5/cyfitter_cfg.c **** 			{0xA2u, 0x08u},
 632:.\Generated_Source\PSoC5/cyfitter_cfg.c **** 			{0xA6u, 0x85u},
 633:.\Generated_Source\PSoC5/cyfitter_cfg.c **** 			{0xA7u, 0x04u},
 634:.\Generated_Source\PSoC5/cyfitter_cfg.c **** 			{0xB5u, 0x01u},
 635:.\Generated_Source\PSoC5/cyfitter_cfg.c **** 			{0xC0u, 0x7Fu},
 636:.\Generated_Source\PSoC5/cyfitter_cfg.c **** 			{0xC2u, 0xFFu},
 637:.\Generated_Source\PSoC5/cyfitter_cfg.c **** 			{0xC4u, 0x7Fu},
 638:.\Generated_Source\PSoC5/cyfitter_cfg.c **** 			{0xCAu, 0xE0u},
 639:.\Generated_Source\PSoC5/cyfitter_cfg.c **** 			{0xCCu, 0x90u},
 640:.\Generated_Source\PSoC5/cyfitter_cfg.c **** 			{0xCEu, 0xF2u},
 641:.\Generated_Source\PSoC5/cyfitter_cfg.c **** 			{0xD0u, 0x20u},
 642:.\Generated_Source\PSoC5/cyfitter_cfg.c **** 			{0xD6u, 0x01u},
 643:.\Generated_Source\PSoC5/cyfitter_cfg.c **** 			{0xD8u, 0x0Du},
 644:.\Generated_Source\PSoC5/cyfitter_cfg.c **** 			{0xEEu, 0x40u},
 645:.\Generated_Source\PSoC5/cyfitter_cfg.c **** 			{0x03u, 0x0Cu},
 646:.\Generated_Source\PSoC5/cyfitter_cfg.c **** 			{0x05u, 0x01u},
 647:.\Generated_Source\PSoC5/cyfitter_cfg.c **** 			{0x08u, 0x02u},
 648:.\Generated_Source\PSoC5/cyfitter_cfg.c **** 			{0x09u, 0x04u},
 649:.\Generated_Source\PSoC5/cyfitter_cfg.c **** 			{0x0Au, 0x10u},
 650:.\Generated_Source\PSoC5/cyfitter_cfg.c **** 			{0x0Eu, 0x03u},
 651:.\Generated_Source\PSoC5/cyfitter_cfg.c **** 			{0x10u, 0x08u},
 652:.\Generated_Source\PSoC5/cyfitter_cfg.c **** 			{0x12u, 0x07u},
 653:.\Generated_Source\PSoC5/cyfitter_cfg.c **** 			{0x13u, 0x33u},
 654:.\Generated_Source\PSoC5/cyfitter_cfg.c **** 			{0x14u, 0x0Fu},
 655:.\Generated_Source\PSoC5/cyfitter_cfg.c **** 			{0x15u, 0x08u},
 656:.\Generated_Source\PSoC5/cyfitter_cfg.c **** 			{0x18u, 0x08u},
 657:.\Generated_Source\PSoC5/cyfitter_cfg.c **** 			{0x19u, 0x0Fu},
 658:.\Generated_Source\PSoC5/cyfitter_cfg.c **** 			{0x1Au, 0x07u},
 659:.\Generated_Source\PSoC5/cyfitter_cfg.c **** 			{0x1Bu, 0x30u},
ARM GAS  C:\Users\SCOTTC~1\AppData\Local\Temp\ccSlq9sc.s 			page 22


 660:.\Generated_Source\PSoC5/cyfitter_cfg.c **** 			{0x1Du, 0x03u},
 661:.\Generated_Source\PSoC5/cyfitter_cfg.c **** 			{0x20u, 0x03u},
 662:.\Generated_Source\PSoC5/cyfitter_cfg.c **** 			{0x21u, 0x3Fu},
 663:.\Generated_Source\PSoC5/cyfitter_cfg.c **** 			{0x22u, 0x20u},
 664:.\Generated_Source\PSoC5/cyfitter_cfg.c **** 			{0x25u, 0x33u},
 665:.\Generated_Source\PSoC5/cyfitter_cfg.c **** 			{0x27u, 0x0Cu},
 666:.\Generated_Source\PSoC5/cyfitter_cfg.c **** 			{0x28u, 0x0Fu},
 667:.\Generated_Source\PSoC5/cyfitter_cfg.c **** 			{0x29u, 0x02u},
 668:.\Generated_Source\PSoC5/cyfitter_cfg.c **** 			{0x2Cu, 0x01u},
 669:.\Generated_Source\PSoC5/cyfitter_cfg.c **** 			{0x2Du, 0x2Cu},
 670:.\Generated_Source\PSoC5/cyfitter_cfg.c **** 			{0x2Eu, 0x10u},
 671:.\Generated_Source\PSoC5/cyfitter_cfg.c **** 			{0x2Fu, 0x13u},
 672:.\Generated_Source\PSoC5/cyfitter_cfg.c **** 			{0x30u, 0x04u},
 673:.\Generated_Source\PSoC5/cyfitter_cfg.c **** 			{0x31u, 0x2Cu},
 674:.\Generated_Source\PSoC5/cyfitter_cfg.c **** 			{0x32u, 0x08u},
 675:.\Generated_Source\PSoC5/cyfitter_cfg.c **** 			{0x33u, 0x0Fu},
 676:.\Generated_Source\PSoC5/cyfitter_cfg.c **** 			{0x34u, 0x30u},
 677:.\Generated_Source\PSoC5/cyfitter_cfg.c **** 			{0x35u, 0x1Cu},
 678:.\Generated_Source\PSoC5/cyfitter_cfg.c **** 			{0x36u, 0x03u},
 679:.\Generated_Source\PSoC5/cyfitter_cfg.c **** 			{0x38u, 0x02u},
 680:.\Generated_Source\PSoC5/cyfitter_cfg.c **** 			{0x3Bu, 0x28u},
 681:.\Generated_Source\PSoC5/cyfitter_cfg.c **** 			{0x3Eu, 0x14u},
 682:.\Generated_Source\PSoC5/cyfitter_cfg.c **** 			{0x40u, 0x34u},
 683:.\Generated_Source\PSoC5/cyfitter_cfg.c **** 			{0x41u, 0x06u},
 684:.\Generated_Source\PSoC5/cyfitter_cfg.c **** 			{0x42u, 0x05u},
 685:.\Generated_Source\PSoC5/cyfitter_cfg.c **** 			{0x44u, 0x02u},
 686:.\Generated_Source\PSoC5/cyfitter_cfg.c **** 			{0x47u, 0xECu},
 687:.\Generated_Source\PSoC5/cyfitter_cfg.c **** 			{0x48u, 0x30u},
 688:.\Generated_Source\PSoC5/cyfitter_cfg.c **** 			{0x49u, 0xFFu},
 689:.\Generated_Source\PSoC5/cyfitter_cfg.c **** 			{0x4Au, 0xFFu},
 690:.\Generated_Source\PSoC5/cyfitter_cfg.c **** 			{0x4Bu, 0xFFu},
 691:.\Generated_Source\PSoC5/cyfitter_cfg.c **** 			{0x4Cu, 0x62u},
 692:.\Generated_Source\PSoC5/cyfitter_cfg.c **** 			{0x4Du, 0xA0u},
 693:.\Generated_Source\PSoC5/cyfitter_cfg.c **** 			{0x4Eu, 0xF0u},
 694:.\Generated_Source\PSoC5/cyfitter_cfg.c **** 			{0x4Fu, 0x41u},
 695:.\Generated_Source\PSoC5/cyfitter_cfg.c **** 			{0x50u, 0x0Cu},
 696:.\Generated_Source\PSoC5/cyfitter_cfg.c **** 			{0x58u, 0x04u},
 697:.\Generated_Source\PSoC5/cyfitter_cfg.c **** 			{0x59u, 0x04u},
 698:.\Generated_Source\PSoC5/cyfitter_cfg.c **** 			{0x5Au, 0x04u},
 699:.\Generated_Source\PSoC5/cyfitter_cfg.c **** 			{0x5Fu, 0x01u},
 700:.\Generated_Source\PSoC5/cyfitter_cfg.c **** 			{0x66u, 0x40u},
 701:.\Generated_Source\PSoC5/cyfitter_cfg.c **** 			{0x67u, 0x02u},
 702:.\Generated_Source\PSoC5/cyfitter_cfg.c **** 			{0x69u, 0x10u},
 703:.\Generated_Source\PSoC5/cyfitter_cfg.c **** 			{0x6Au, 0x30u},
 704:.\Generated_Source\PSoC5/cyfitter_cfg.c **** 			{0x6Bu, 0x10u},
 705:.\Generated_Source\PSoC5/cyfitter_cfg.c **** 			{0x6Du, 0x10u},
 706:.\Generated_Source\PSoC5/cyfitter_cfg.c **** 			{0x6Eu, 0x10u},
 707:.\Generated_Source\PSoC5/cyfitter_cfg.c **** 			{0x6Fu, 0x12u},
 708:.\Generated_Source\PSoC5/cyfitter_cfg.c **** 			{0x87u, 0x1Eu},
 709:.\Generated_Source\PSoC5/cyfitter_cfg.c **** 			{0x8Cu, 0x01u},
 710:.\Generated_Source\PSoC5/cyfitter_cfg.c **** 			{0x95u, 0x07u},
 711:.\Generated_Source\PSoC5/cyfitter_cfg.c **** 			{0x97u, 0x08u},
 712:.\Generated_Source\PSoC5/cyfitter_cfg.c **** 			{0x99u, 0x07u},
 713:.\Generated_Source\PSoC5/cyfitter_cfg.c **** 			{0x9Bu, 0x18u},
 714:.\Generated_Source\PSoC5/cyfitter_cfg.c **** 			{0x9Du, 0x11u},
 715:.\Generated_Source\PSoC5/cyfitter_cfg.c **** 			{0x9Fu, 0x04u},
 716:.\Generated_Source\PSoC5/cyfitter_cfg.c **** 			{0xA9u, 0x10u},
ARM GAS  C:\Users\SCOTTC~1\AppData\Local\Temp\ccSlq9sc.s 			page 23


 717:.\Generated_Source\PSoC5/cyfitter_cfg.c **** 			{0xB0u, 0x01u},
 718:.\Generated_Source\PSoC5/cyfitter_cfg.c **** 			{0xB3u, 0x03u},
 719:.\Generated_Source\PSoC5/cyfitter_cfg.c **** 			{0xB7u, 0x1Cu},
 720:.\Generated_Source\PSoC5/cyfitter_cfg.c **** 			{0xB9u, 0x08u},
 721:.\Generated_Source\PSoC5/cyfitter_cfg.c **** 			{0xBBu, 0x80u},
 722:.\Generated_Source\PSoC5/cyfitter_cfg.c **** 			{0xBEu, 0x01u},
 723:.\Generated_Source\PSoC5/cyfitter_cfg.c **** 			{0xBFu, 0x04u},
 724:.\Generated_Source\PSoC5/cyfitter_cfg.c **** 			{0xD6u, 0x02u},
 725:.\Generated_Source\PSoC5/cyfitter_cfg.c **** 			{0xD7u, 0x11u},
 726:.\Generated_Source\PSoC5/cyfitter_cfg.c **** 			{0xD8u, 0x04u},
 727:.\Generated_Source\PSoC5/cyfitter_cfg.c **** 			{0xD9u, 0x04u},
 728:.\Generated_Source\PSoC5/cyfitter_cfg.c **** 			{0xDBu, 0x04u},
 729:.\Generated_Source\PSoC5/cyfitter_cfg.c **** 			{0xDFu, 0x01u},
 730:.\Generated_Source\PSoC5/cyfitter_cfg.c **** 			{0x00u, 0x10u},
 731:.\Generated_Source\PSoC5/cyfitter_cfg.c **** 			{0x01u, 0x20u},
 732:.\Generated_Source\PSoC5/cyfitter_cfg.c **** 			{0x03u, 0x02u},
 733:.\Generated_Source\PSoC5/cyfitter_cfg.c **** 			{0x04u, 0x80u},
 734:.\Generated_Source\PSoC5/cyfitter_cfg.c **** 			{0x08u, 0x01u},
 735:.\Generated_Source\PSoC5/cyfitter_cfg.c **** 			{0x09u, 0x28u},
 736:.\Generated_Source\PSoC5/cyfitter_cfg.c **** 			{0x0Au, 0x40u},
 737:.\Generated_Source\PSoC5/cyfitter_cfg.c **** 			{0x11u, 0x02u},
 738:.\Generated_Source\PSoC5/cyfitter_cfg.c **** 			{0x12u, 0x08u},
 739:.\Generated_Source\PSoC5/cyfitter_cfg.c **** 			{0x13u, 0x40u},
 740:.\Generated_Source\PSoC5/cyfitter_cfg.c **** 			{0x18u, 0x04u},
 741:.\Generated_Source\PSoC5/cyfitter_cfg.c **** 			{0x1Au, 0x91u},
 742:.\Generated_Source\PSoC5/cyfitter_cfg.c **** 			{0x1Cu, 0x80u},
 743:.\Generated_Source\PSoC5/cyfitter_cfg.c **** 			{0x21u, 0x29u},
 744:.\Generated_Source\PSoC5/cyfitter_cfg.c **** 			{0x22u, 0x02u},
 745:.\Generated_Source\PSoC5/cyfitter_cfg.c **** 			{0x26u, 0xC0u},
 746:.\Generated_Source\PSoC5/cyfitter_cfg.c **** 			{0x27u, 0x10u},
 747:.\Generated_Source\PSoC5/cyfitter_cfg.c **** 			{0x28u, 0x21u},
 748:.\Generated_Source\PSoC5/cyfitter_cfg.c **** 			{0x29u, 0x21u},
 749:.\Generated_Source\PSoC5/cyfitter_cfg.c **** 			{0x2Cu, 0x08u},
 750:.\Generated_Source\PSoC5/cyfitter_cfg.c **** 			{0x31u, 0x20u},
 751:.\Generated_Source\PSoC5/cyfitter_cfg.c **** 			{0x33u, 0x46u},
 752:.\Generated_Source\PSoC5/cyfitter_cfg.c **** 			{0x35u, 0x04u},
 753:.\Generated_Source\PSoC5/cyfitter_cfg.c **** 			{0x36u, 0x50u},
 754:.\Generated_Source\PSoC5/cyfitter_cfg.c **** 			{0x38u, 0x02u},
 755:.\Generated_Source\PSoC5/cyfitter_cfg.c **** 			{0x39u, 0x04u},
 756:.\Generated_Source\PSoC5/cyfitter_cfg.c **** 			{0x3Au, 0x10u},
 757:.\Generated_Source\PSoC5/cyfitter_cfg.c **** 			{0x3Fu, 0x08u},
 758:.\Generated_Source\PSoC5/cyfitter_cfg.c **** 			{0x40u, 0x24u},
 759:.\Generated_Source\PSoC5/cyfitter_cfg.c **** 			{0x41u, 0x08u},
 760:.\Generated_Source\PSoC5/cyfitter_cfg.c **** 			{0x43u, 0x02u},
 761:.\Generated_Source\PSoC5/cyfitter_cfg.c **** 			{0x4Au, 0x0Au},
 762:.\Generated_Source\PSoC5/cyfitter_cfg.c **** 			{0x51u, 0x04u},
 763:.\Generated_Source\PSoC5/cyfitter_cfg.c **** 			{0x52u, 0x01u},
 764:.\Generated_Source\PSoC5/cyfitter_cfg.c **** 			{0x5Eu, 0x10u},
 765:.\Generated_Source\PSoC5/cyfitter_cfg.c **** 			{0x6Cu, 0x14u},
 766:.\Generated_Source\PSoC5/cyfitter_cfg.c **** 			{0x6Du, 0x01u},
 767:.\Generated_Source\PSoC5/cyfitter_cfg.c **** 			{0x6Eu, 0x06u},
 768:.\Generated_Source\PSoC5/cyfitter_cfg.c **** 			{0x6Fu, 0x09u},
 769:.\Generated_Source\PSoC5/cyfitter_cfg.c **** 			{0x74u, 0x16u},
 770:.\Generated_Source\PSoC5/cyfitter_cfg.c **** 			{0x76u, 0x10u},
 771:.\Generated_Source\PSoC5/cyfitter_cfg.c **** 			{0x77u, 0x04u},
 772:.\Generated_Source\PSoC5/cyfitter_cfg.c **** 			{0x81u, 0x01u},
 773:.\Generated_Source\PSoC5/cyfitter_cfg.c **** 			{0x82u, 0x08u},
ARM GAS  C:\Users\SCOTTC~1\AppData\Local\Temp\ccSlq9sc.s 			page 24


 774:.\Generated_Source\PSoC5/cyfitter_cfg.c **** 			{0x90u, 0x92u},
 775:.\Generated_Source\PSoC5/cyfitter_cfg.c **** 			{0x91u, 0x04u},
 776:.\Generated_Source\PSoC5/cyfitter_cfg.c **** 			{0x92u, 0x40u},
 777:.\Generated_Source\PSoC5/cyfitter_cfg.c **** 			{0x93u, 0x40u},
 778:.\Generated_Source\PSoC5/cyfitter_cfg.c **** 			{0x94u, 0x28u},
 779:.\Generated_Source\PSoC5/cyfitter_cfg.c **** 			{0x95u, 0x0Bu},
 780:.\Generated_Source\PSoC5/cyfitter_cfg.c **** 			{0x96u, 0x85u},
 781:.\Generated_Source\PSoC5/cyfitter_cfg.c **** 			{0x99u, 0x04u},
 782:.\Generated_Source\PSoC5/cyfitter_cfg.c **** 			{0x9Bu, 0x40u},
 783:.\Generated_Source\PSoC5/cyfitter_cfg.c **** 			{0x9Eu, 0x01u},
 784:.\Generated_Source\PSoC5/cyfitter_cfg.c **** 			{0x9Fu, 0x11u},
 785:.\Generated_Source\PSoC5/cyfitter_cfg.c **** 			{0xA0u, 0x08u},
 786:.\Generated_Source\PSoC5/cyfitter_cfg.c **** 			{0xA1u, 0x01u},
 787:.\Generated_Source\PSoC5/cyfitter_cfg.c **** 			{0xA2u, 0x18u},
 788:.\Generated_Source\PSoC5/cyfitter_cfg.c **** 			{0xA3u, 0x06u},
 789:.\Generated_Source\PSoC5/cyfitter_cfg.c **** 			{0xA4u, 0x16u},
 790:.\Generated_Source\PSoC5/cyfitter_cfg.c **** 			{0xA5u, 0x28u},
 791:.\Generated_Source\PSoC5/cyfitter_cfg.c **** 			{0xA6u, 0xC1u},
 792:.\Generated_Source\PSoC5/cyfitter_cfg.c **** 			{0xA7u, 0x08u},
 793:.\Generated_Source\PSoC5/cyfitter_cfg.c **** 			{0xADu, 0x04u},
 794:.\Generated_Source\PSoC5/cyfitter_cfg.c **** 			{0xAFu, 0x40u},
 795:.\Generated_Source\PSoC5/cyfitter_cfg.c **** 			{0xC0u, 0x83u},
 796:.\Generated_Source\PSoC5/cyfitter_cfg.c **** 			{0xC2u, 0x0Eu},
 797:.\Generated_Source\PSoC5/cyfitter_cfg.c **** 			{0xC4u, 0x0Bu},
 798:.\Generated_Source\PSoC5/cyfitter_cfg.c **** 			{0xCAu, 0x2Fu},
 799:.\Generated_Source\PSoC5/cyfitter_cfg.c **** 			{0xCCu, 0x7Fu},
 800:.\Generated_Source\PSoC5/cyfitter_cfg.c **** 			{0xCEu, 0x47u},
 801:.\Generated_Source\PSoC5/cyfitter_cfg.c **** 			{0xD0u, 0x07u},
 802:.\Generated_Source\PSoC5/cyfitter_cfg.c **** 			{0xD2u, 0x0Cu},
 803:.\Generated_Source\PSoC5/cyfitter_cfg.c **** 			{0xD6u, 0x20u},
 804:.\Generated_Source\PSoC5/cyfitter_cfg.c **** 			{0xACu, 0x40u},
 805:.\Generated_Source\PSoC5/cyfitter_cfg.c **** 			{0xE4u, 0x80u},
 806:.\Generated_Source\PSoC5/cyfitter_cfg.c **** 			{0x33u, 0x48u},
 807:.\Generated_Source\PSoC5/cyfitter_cfg.c **** 			{0x35u, 0x80u},
 808:.\Generated_Source\PSoC5/cyfitter_cfg.c **** 			{0xCCu, 0x70u},
 809:.\Generated_Source\PSoC5/cyfitter_cfg.c **** 			{0x01u, 0x20u},
 810:.\Generated_Source\PSoC5/cyfitter_cfg.c **** 			{0x62u, 0x02u},
 811:.\Generated_Source\PSoC5/cyfitter_cfg.c **** 			{0x83u, 0x48u},
 812:.\Generated_Source\PSoC5/cyfitter_cfg.c **** 			{0x9Fu, 0x40u},
 813:.\Generated_Source\PSoC5/cyfitter_cfg.c **** 			{0xA7u, 0x08u},
 814:.\Generated_Source\PSoC5/cyfitter_cfg.c **** 			{0xB5u, 0x80u},
 815:.\Generated_Source\PSoC5/cyfitter_cfg.c **** 			{0xC0u, 0x40u},
 816:.\Generated_Source\PSoC5/cyfitter_cfg.c **** 			{0xD8u, 0x40u},
 817:.\Generated_Source\PSoC5/cyfitter_cfg.c **** 			{0xE6u, 0x80u},
 818:.\Generated_Source\PSoC5/cyfitter_cfg.c **** 			{0xA6u, 0x02u},
 819:.\Generated_Source\PSoC5/cyfitter_cfg.c **** 			{0xADu, 0x20u},
 820:.\Generated_Source\PSoC5/cyfitter_cfg.c **** 			{0xECu, 0x40u},
 821:.\Generated_Source\PSoC5/cyfitter_cfg.c **** 			{0xAEu, 0x02u},
 822:.\Generated_Source\PSoC5/cyfitter_cfg.c **** 			{0xEAu, 0x40u},
 823:.\Generated_Source\PSoC5/cyfitter_cfg.c **** 			{0x5Du, 0x01u},
 824:.\Generated_Source\PSoC5/cyfitter_cfg.c **** 			{0x89u, 0x01u},
 825:.\Generated_Source\PSoC5/cyfitter_cfg.c **** 			{0xD6u, 0x01u},
 826:.\Generated_Source\PSoC5/cyfitter_cfg.c **** 			{0xE4u, 0x01u},
 827:.\Generated_Source\PSoC5/cyfitter_cfg.c **** 			{0x00u, 0x01u},
 828:.\Generated_Source\PSoC5/cyfitter_cfg.c **** 			{0x08u, 0x01u},
 829:.\Generated_Source\PSoC5/cyfitter_cfg.c **** 			{0x0Au, 0x01u},
 830:.\Generated_Source\PSoC5/cyfitter_cfg.c **** 			{0x00u, 0x3Fu},
ARM GAS  C:\Users\SCOTTC~1\AppData\Local\Temp\ccSlq9sc.s 			page 25


 831:.\Generated_Source\PSoC5/cyfitter_cfg.c **** 		};
 832:.\Generated_Source\PSoC5/cyfitter_cfg.c **** 
 833:.\Generated_Source\PSoC5/cyfitter_cfg.c **** 
 834:.\Generated_Source\PSoC5/cyfitter_cfg.c **** 
 835:.\Generated_Source\PSoC5/cyfitter_cfg.c **** 		CYPACKED typedef struct {
 836:.\Generated_Source\PSoC5/cyfitter_cfg.c **** 			void CYFAR *address;
 837:.\Generated_Source\PSoC5/cyfitter_cfg.c **** 			uint16 size;
 838:.\Generated_Source\PSoC5/cyfitter_cfg.c **** 		} CYPACKED_ATTR cfg_memset_t;
 839:.\Generated_Source\PSoC5/cyfitter_cfg.c **** 
 840:.\Generated_Source\PSoC5/cyfitter_cfg.c **** 		static const cfg_memset_t CYCODE cfg_memset_list [] = {
 841:.\Generated_Source\PSoC5/cyfitter_cfg.c **** 			/* address, size */
 842:.\Generated_Source\PSoC5/cyfitter_cfg.c **** 			{(void CYFAR *)(CYREG_PRT1_DR), 16u},
 843:.\Generated_Source\PSoC5/cyfitter_cfg.c **** 			{(void CYFAR *)(CYREG_PRT3_DR), 64u},
 844:.\Generated_Source\PSoC5/cyfitter_cfg.c **** 			{(void CYFAR *)(CYREG_PRT12_DR), 16u},
 845:.\Generated_Source\PSoC5/cyfitter_cfg.c **** 			{(void CYFAR *)(CYREG_PRT15_DR), 16u},
 846:.\Generated_Source\PSoC5/cyfitter_cfg.c **** 			{(void CYFAR *)(CYDEV_UCFG_B0_P0_U0_BASE), 4096u},
 847:.\Generated_Source\PSoC5/cyfitter_cfg.c **** 			{(void CYFAR *)(CYDEV_UCFG_B1_P2_U0_BASE), 2048u},
 848:.\Generated_Source\PSoC5/cyfitter_cfg.c **** 			{(void CYFAR *)(CYDEV_UCFG_DSI0_BASE), 2560u},
 849:.\Generated_Source\PSoC5/cyfitter_cfg.c **** 			{(void CYFAR *)(CYDEV_UCFG_DSI12_BASE), 512u},
 850:.\Generated_Source\PSoC5/cyfitter_cfg.c **** 			{(void CYFAR *)(CYREG_BCTL0_MDCLK_EN), 32u},
 851:.\Generated_Source\PSoC5/cyfitter_cfg.c **** 		};
 852:.\Generated_Source\PSoC5/cyfitter_cfg.c **** 
 853:.\Generated_Source\PSoC5/cyfitter_cfg.c **** 		uint8 CYDATA i;
 854:.\Generated_Source\PSoC5/cyfitter_cfg.c **** 
 855:.\Generated_Source\PSoC5/cyfitter_cfg.c **** 		/* Zero out critical memory blocks before beginning configuration */
 856:.\Generated_Source\PSoC5/cyfitter_cfg.c **** 		for (i = 0u; i < (sizeof(cfg_memset_list)/sizeof(cfg_memset_list[0])); i++)
 534              		.loc 1 856 0
 535 0018 0023     		movs	r3, #0
 536 001a FB71     		strb	r3, [r7, #7]
 537 001c 13E0     		b	.L27
 538              	.L28:
 539              	.LBB4:
 857:.\Generated_Source\PSoC5/cyfitter_cfg.c **** 		{
 858:.\Generated_Source\PSoC5/cyfitter_cfg.c **** 			const cfg_memset_t CYCODE * CYDATA ms = &cfg_memset_list[i];
 540              		.loc 1 858 0 discriminator 2
 541 001e FA79     		ldrb	r2, [r7, #7]	@ zero_extendqisi2
 542 0020 1346     		mov	r3, r2
 543 0022 5B00     		lsls	r3, r3, #1
 544 0024 1344     		add	r3, r3, r2
 545 0026 5B00     		lsls	r3, r3, #1
 546 0028 2F4A     		ldr	r2, .L29+4
 547 002a 1344     		add	r3, r3, r2
 548 002c 3B60     		str	r3, [r7]
 859:.\Generated_Source\PSoC5/cyfitter_cfg.c **** 			CYMEMZERO(ms->address, (size_t)(uint32)(ms->size));
 549              		.loc 1 859 0 discriminator 2
 550 002e 3B68     		ldr	r3, [r7]
 551 0030 1A68     		ldr	r2, [r3]	@ unaligned
 552 0032 3B68     		ldr	r3, [r7]
 553 0034 9B88     		ldrh	r3, [r3, #4]	@ unaligned
 554 0036 9BB2     		uxth	r3, r3
 555 0038 1046     		mov	r0, r2
 556 003a 1946     		mov	r1, r3
 557 003c FFF7FEFF 		bl	CYMEMZERO
 558              	.LBE4:
 856:.\Generated_Source\PSoC5/cyfitter_cfg.c **** 		for (i = 0u; i < (sizeof(cfg_memset_list)/sizeof(cfg_memset_list[0])); i++)
 559              		.loc 1 856 0 discriminator 2
 560 0040 FB79     		ldrb	r3, [r7, #7]	@ zero_extendqisi2
ARM GAS  C:\Users\SCOTTC~1\AppData\Local\Temp\ccSlq9sc.s 			page 26


 561 0042 0133     		adds	r3, r3, #1
 562 0044 FB71     		strb	r3, [r7, #7]
 563              	.L27:
 856:.\Generated_Source\PSoC5/cyfitter_cfg.c **** 		for (i = 0u; i < (sizeof(cfg_memset_list)/sizeof(cfg_memset_list[0])); i++)
 564              		.loc 1 856 0 is_stmt 0 discriminator 1
 565 0046 FB79     		ldrb	r3, [r7, #7]	@ zero_extendqisi2
 566 0048 082B     		cmp	r3, #8
 567 004a E8D9     		bls	.L28
 860:.\Generated_Source\PSoC5/cyfitter_cfg.c **** 		}
 861:.\Generated_Source\PSoC5/cyfitter_cfg.c **** 
 862:.\Generated_Source\PSoC5/cyfitter_cfg.c **** 		cfg_write_bytes32(cy_cfg_addr_table, cy_cfg_data_table);
 568              		.loc 1 862 0 is_stmt 1
 569 004c 2748     		ldr	r0, .L29+8
 570 004e 2849     		ldr	r1, .L29+12
 571 0050 FFF7FEFF 		bl	cfg_write_bytes32
 863:.\Generated_Source\PSoC5/cyfitter_cfg.c **** 
 864:.\Generated_Source\PSoC5/cyfitter_cfg.c **** 		/* Enable digital routing */
 865:.\Generated_Source\PSoC5/cyfitter_cfg.c **** 		CY_SET_XTND_REG8((void CYFAR *)CYREG_BCTL0_BANK_CTL, CY_GET_XTND_REG8((void CYFAR *)CYREG_BCTL0_B
 572              		.loc 1 865 0
 573 0054 274B     		ldr	r3, .L29+16
 574 0056 274A     		ldr	r2, .L29+16
 575 0058 1278     		ldrb	r2, [r2]
 576 005a D2B2     		uxtb	r2, r2
 577 005c 42F00202 		orr	r2, r2, #2
 578 0060 D2B2     		uxtb	r2, r2
 579 0062 1A70     		strb	r2, [r3]
 866:.\Generated_Source\PSoC5/cyfitter_cfg.c **** 		CY_SET_XTND_REG8((void CYFAR *)CYREG_BCTL1_BANK_CTL, CY_GET_XTND_REG8((void CYFAR *)CYREG_BCTL1_B
 580              		.loc 1 866 0
 581 0064 244B     		ldr	r3, .L29+20
 582 0066 244A     		ldr	r2, .L29+20
 583 0068 1278     		ldrb	r2, [r2]
 584 006a D2B2     		uxtb	r2, r2
 585 006c 42F00202 		orr	r2, r2, #2
 586 0070 D2B2     		uxtb	r2, r2
 587 0072 1A70     		strb	r2, [r3]
 867:.\Generated_Source\PSoC5/cyfitter_cfg.c **** 
 868:.\Generated_Source\PSoC5/cyfitter_cfg.c **** 		/* Enable UDB array */
 869:.\Generated_Source\PSoC5/cyfitter_cfg.c **** 		CY_SET_XTND_REG8((void CYFAR *)CYREG_PM_ACT_CFG0, CY_GET_XTND_REG8((void CYFAR *)CYREG_PM_ACT_CFG
 588              		.loc 1 869 0
 589 0074 214B     		ldr	r3, .L29+24
 590 0076 214A     		ldr	r2, .L29+24
 591 0078 1278     		ldrb	r2, [r2]
 592 007a D2B2     		uxtb	r2, r2
 593 007c 42F04002 		orr	r2, r2, #64
 594 0080 D2B2     		uxtb	r2, r2
 595 0082 1A70     		strb	r2, [r3]
 870:.\Generated_Source\PSoC5/cyfitter_cfg.c **** 		CY_SET_XTND_REG8((void CYFAR *)CYREG_PM_AVAIL_CR2, CY_GET_XTND_REG8((void CYFAR *)CYREG_PM_AVAIL_
 596              		.loc 1 870 0
 597 0084 1E4B     		ldr	r3, .L29+28
 598 0086 1E4A     		ldr	r2, .L29+28
 599 0088 1278     		ldrb	r2, [r2]
 600 008a D2B2     		uxtb	r2, r2
 601 008c 42F01002 		orr	r2, r2, #16
 602 0090 D2B2     		uxtb	r2, r2
 603 0092 1A70     		strb	r2, [r3]
 604              	.LBE3:
 871:.\Generated_Source\PSoC5/cyfitter_cfg.c **** 	}
ARM GAS  C:\Users\SCOTTC~1\AppData\Local\Temp\ccSlq9sc.s 			page 27


 872:.\Generated_Source\PSoC5/cyfitter_cfg.c **** 
 873:.\Generated_Source\PSoC5/cyfitter_cfg.c **** 
 874:.\Generated_Source\PSoC5/cyfitter_cfg.c **** 	/* Perform second pass device configuration. These items must be configured in specific order afte
 875:.\Generated_Source\PSoC5/cyfitter_cfg.c **** 	CYCONFIGCPYCODE((void CYFAR *)(CYREG_PRT0_DR), (const void CYCODE *)(BS_IOPINS0_0_VAL), 10u);
 605              		.loc 1 875 0
 606 0094 1B48     		ldr	r0, .L29+32
 607 0096 1C49     		ldr	r1, .L29+36
 608 0098 0A22     		movs	r2, #10
 609 009a FFF7FEFF 		bl	CYCONFIGCPYCODE
 876:.\Generated_Source\PSoC5/cyfitter_cfg.c **** 	CYCONFIGCPYCODE((void CYFAR *)(CYREG_PRT2_DM0), (const void CYCODE *)(BS_IOPINS0_2_VAL), 8u);
 610              		.loc 1 876 0
 611 009e 1B48     		ldr	r0, .L29+40
 612 00a0 1B49     		ldr	r1, .L29+44
 613 00a2 0822     		movs	r2, #8
 614 00a4 FFF7FEFF 		bl	CYCONFIGCPYCODE
 877:.\Generated_Source\PSoC5/cyfitter_cfg.c **** 	/* Switch Boost to the precision bandgap reference from its internal reference */
 878:.\Generated_Source\PSoC5/cyfitter_cfg.c **** 	CY_SET_REG8((void CYXDATA *)CYREG_BOOST_CR2, (CY_GET_REG8((void CYXDATA *)CYREG_BOOST_CR2) | 0x08u
 615              		.loc 1 878 0
 616 00a8 1A4B     		ldr	r3, .L29+48
 617 00aa 1A4A     		ldr	r2, .L29+48
 618 00ac 1278     		ldrb	r2, [r2]
 619 00ae D2B2     		uxtb	r2, r2
 620 00b0 42F00802 		orr	r2, r2, #8
 621 00b4 D2B2     		uxtb	r2, r2
 622 00b6 1A70     		strb	r2, [r3]
 879:.\Generated_Source\PSoC5/cyfitter_cfg.c **** 
 880:.\Generated_Source\PSoC5/cyfitter_cfg.c **** 	/* Set Flash Cycles based on max possible frequency in case a glitch occurs during ClockSetup(). *
 881:.\Generated_Source\PSoC5/cyfitter_cfg.c **** 	CY_SET_XTND_REG8((void CYFAR *)(CYREG_CACHE_CC_CTL), (((CYDEV_INSTRUCT_CACHE_ENABLED) != 0) ? 0x01
 623              		.loc 1 881 0
 624 00b8 174B     		ldr	r3, .L29+52
 625 00ba 0122     		movs	r2, #1
 626 00bc 1A70     		strb	r2, [r3]
 882:.\Generated_Source\PSoC5/cyfitter_cfg.c **** 	/* Setup clocks based on selections from Clock DWR */
 883:.\Generated_Source\PSoC5/cyfitter_cfg.c **** 	ClockSetup();
 627              		.loc 1 883 0
 628 00be FFF7FEFF 		bl	ClockSetup
 884:.\Generated_Source\PSoC5/cyfitter_cfg.c **** 	/* Set Flash Cycles based on newly configured 24.00MHz Bus Clock. */
 885:.\Generated_Source\PSoC5/cyfitter_cfg.c **** 	CY_SET_XTND_REG8((void CYFAR *)(CYREG_CACHE_CC_CTL), (((CYDEV_INSTRUCT_CACHE_ENABLED) != 0) ? 0x81
 629              		.loc 1 885 0
 630 00c2 154B     		ldr	r3, .L29+52
 631 00c4 8122     		movs	r2, #129
 632 00c6 1A70     		strb	r2, [r3]
 886:.\Generated_Source\PSoC5/cyfitter_cfg.c **** 	CY_SET_XTND_REG8((void CYFAR *)(CYREG_PANTHER_WAITPIPE), 0x01u);
 633              		.loc 1 886 0
 634 00c8 144B     		ldr	r3, .L29+56
 635 00ca 0122     		movs	r2, #1
 636 00cc 1A70     		strb	r2, [r3]
 887:.\Generated_Source\PSoC5/cyfitter_cfg.c **** 
 888:.\Generated_Source\PSoC5/cyfitter_cfg.c **** 	/* Perform basic analog initialization to defaults */
 889:.\Generated_Source\PSoC5/cyfitter_cfg.c **** 	AnalogSetDefault();
 637              		.loc 1 889 0
 638 00ce FFF7FEFF 		bl	AnalogSetDefault
 890:.\Generated_Source\PSoC5/cyfitter_cfg.c **** 
 891:.\Generated_Source\PSoC5/cyfitter_cfg.c **** 	/* Configure alternate active mode */
 892:.\Generated_Source\PSoC5/cyfitter_cfg.c **** 	CYCONFIGCPY((void CYFAR *)CYDEV_PM_STBY_BASE, (const void CYFAR *)CYDEV_PM_ACT_BASE, 14u);
 639              		.loc 1 892 0
 640 00d2 1348     		ldr	r0, .L29+60
ARM GAS  C:\Users\SCOTTC~1\AppData\Local\Temp\ccSlq9sc.s 			page 28


 641 00d4 0949     		ldr	r1, .L29+24
 642 00d6 0E22     		movs	r2, #14
 643 00d8 FFF7FEFF 		bl	CYCONFIGCPY
 893:.\Generated_Source\PSoC5/cyfitter_cfg.c **** }
 644              		.loc 1 893 0
 645 00dc 0837     		adds	r7, r7, #8
 646 00de BD46     		mov	sp, r7
 647              		@ sp needed
 648 00e0 80BD     		pop	{r7, pc}
 649              	.L30:
 650 00e2 00BF     		.align	2
 651              	.L29:
 652 00e4 E8460040 		.word	1073759976
 653 00e8 00000000 		.word	cfg_memset_list.4847
 654 00ec 38000000 		.word	cy_cfg_addr_table.4841
 655 00f0 7C000000 		.word	cy_cfg_data_table.4842
 656 00f4 03500140 		.word	1073827843
 657 00f8 13500140 		.word	1073827859
 658 00fc A0430040 		.word	1073759136
 659 0100 C2430040 		.word	1073759170
 660 0104 00510040 		.word	1073762560
 661 0108 40040000 		.word	BS_IOPINS0_0_VAL.4839
 662 010c 22510040 		.word	1073762594
 663 0110 4C040000 		.word	BS_IOPINS0_2_VAL.4840
 664 0114 22430040 		.word	1073759010
 665 0118 00480040 		.word	1073760256
 666 011c 04000840 		.word	1074266116
 667 0120 B0430040 		.word	1073759152
 668              		.cfi_endproc
 669              	.LFE8:
 670              		.size	cyfitter_cfg, .-cyfitter_cfg
 671              		.section	.rodata
 672              		.align	2
 673              		.type	cfg_memset_list.4847, %object
 674              		.size	cfg_memset_list.4847, 54
 675              	cfg_memset_list.4847:
 676 0000 10510040 		.word	1073762576
 677 0004 1000     		.short	16
 678 0006 30510040 		.4byte	1073762608
 679 000a 4000     		.short	64
 680 000c C0510040 		.word	1073762752
 681 0010 1000     		.short	16
 682 0012 F0510040 		.4byte	1073762800
 683 0016 1000     		.short	16
 684 0018 00000140 		.word	1073807360
 685 001c 0010     		.short	4096
 686 001e 00140140 		.4byte	1073812480
 687 0022 0008     		.short	2048
 688 0024 00400140 		.word	1073823744
 689 0028 000A     		.short	2560
 690 002a 004C0140 		.4byte	1073826816
 691 002e 0002     		.short	512
 692 0030 00500140 		.word	1073827840
 693 0034 2000     		.short	32
 694 0036 0000     		.align	2
 695              		.type	cy_cfg_addr_table.4841, %object
 696              		.size	cy_cfg_addr_table.4841, 68
ARM GAS  C:\Users\SCOTTC~1\AppData\Local\Temp\ccSlq9sc.s 			page 29


 697              	cy_cfg_addr_table.4841:
 698 0038 03520040 		.word	1073762819
 699 003c 03640040 		.word	1073767427
 700 0040 52000140 		.word	1073807442
 701 0044 35010140 		.word	1073807669
 702 0048 59020140 		.word	1073807961
 703 004c 42030140 		.word	1073808194
 704 0050 55040140 		.word	1073808469
 705 0054 4A050140 		.word	1073808714
 706 0058 01070140 		.word	1073809153
 707 005c 010D0140 		.word	1073810689
 708 0060 03400140 		.word	1073823747
 709 0064 09410140 		.word	1073824009
 710 0068 03420140 		.word	1073824259
 711 006c 02430140 		.word	1073824514
 712 0070 04450140 		.word	1073825028
 713 0074 03500140 		.word	1073827843
 714 0078 01510140 		.word	1073828097
 715              		.align	2
 716              		.type	cy_cfg_data_table.4842, %object
 717              		.size	cy_cfg_data_table.4842, 964
 718              	cy_cfg_data_table.4842:
 719 007c 01       		.byte	1
 720 007d 10       		.byte	16
 721 007e 04       		.byte	4
 722 007f 04       		.byte	4
 723 0080 10       		.byte	16
 724 0081 80       		.byte	-128
 725 0082 81       		.byte	-127
 726 0083 0F       		.byte	15
 727 0084 83       		.byte	-125
 728 0085 38       		.byte	56
 729 0086 85       		.byte	-123
 730 0087 76       		.byte	118
 731 0088 03       		.byte	3
 732 0089 02       		.byte	2
 733 008a 07       		.byte	7
 734 008b 02       		.byte	2
 735 008c 08       		.byte	8
 736 008d 06       		.byte	6
 737 008e 0A       		.byte	10
 738 008f 18       		.byte	24
 739 0090 0B       		.byte	11
 740 0091 01       		.byte	1
 741 0092 12       		.byte	18
 742 0093 01       		.byte	1
 743 0094 15       		.byte	21
 744 0095 01       		.byte	1
 745 0096 16       		.byte	22
 746 0097 1C       		.byte	28
 747 0098 19       		.byte	25
 748 0099 01       		.byte	1
 749 009a 1C       		.byte	28
 750 009b 12       		.byte	18
 751 009c 1F       		.byte	31
 752 009d 01       		.byte	1
 753 009e 24       		.byte	36
ARM GAS  C:\Users\SCOTTC~1\AppData\Local\Temp\ccSlq9sc.s 			page 30


 754 009f 06       		.byte	6
 755 00a0 26       		.byte	38
 756 00a1 08       		.byte	8
 757 00a2 28       		.byte	40
 758 00a3 06       		.byte	6
 759 00a4 2A       		.byte	42
 760 00a5 08       		.byte	8
 761 00a6 2B       		.byte	43
 762 00a7 01       		.byte	1
 763 00a8 2E       		.byte	46
 764 00a9 01       		.byte	1
 765 00aa 31       		.byte	49
 766 00ab 01       		.byte	1
 767 00ac 32       		.byte	50
 768 00ad 1E       		.byte	30
 769 00ae 34       		.byte	52
 770 00af 01       		.byte	1
 771 00b0 37       		.byte	55
 772 00b1 02       		.byte	2
 773 00b2 3A       		.byte	58
 774 00b3 08       		.byte	8
 775 00b4 3B       		.byte	59
 776 00b5 08       		.byte	8
 777 00b6 3E       		.byte	62
 778 00b7 10       		.byte	16
 779 00b8 3F       		.byte	63
 780 00b9 41       		.byte	65
 781 00ba 58       		.byte	88
 782 00bb 04       		.byte	4
 783 00bc 59       		.byte	89
 784 00bd 04       		.byte	4
 785 00be 5F       		.byte	95
 786 00bf 01       		.byte	1
 787 00c0 80       		.byte	-128
 788 00c1 24       		.byte	36
 789 00c2 81       		.byte	-127
 790 00c3 20       		.byte	32
 791 00c4 82       		.byte	-126
 792 00c5 DB       		.byte	-37
 793 00c6 84       		.byte	-124
 794 00c7 B6       		.byte	-74
 795 00c8 85       		.byte	-123
 796 00c9 14       		.byte	20
 797 00ca 86       		.byte	-122
 798 00cb 49       		.byte	73
 799 00cc 88       		.byte	-120
 800 00cd B6       		.byte	-74
 801 00ce 89       		.byte	-119
 802 00cf 0C       		.byte	12
 803 00d0 8A       		.byte	-118
 804 00d1 49       		.byte	73
 805 00d2 8B       		.byte	-117
 806 00d3 11       		.byte	17
 807 00d4 90       		.byte	-112
 808 00d5 03       		.byte	3
 809 00d6 92       		.byte	-110
 810 00d7 1C       		.byte	28
ARM GAS  C:\Users\SCOTTC~1\AppData\Local\Temp\ccSlq9sc.s 			page 31


 811 00d8 93       		.byte	-109
 812 00d9 03       		.byte	3
 813 00da 95       		.byte	-107
 814 00db 10       		.byte	16
 815 00dc 97       		.byte	-105
 816 00dd 0C       		.byte	12
 817 00de 98       		.byte	-104
 818 00df E0       		.byte	-32
 819 00e0 9A       		.byte	-102
 820 00e1 1C       		.byte	28
 821 00e2 9C       		.byte	-100
 822 00e3 6D       		.byte	109
 823 00e4 9E       		.byte	-98
 824 00e5 92       		.byte	-110
 825 00e6 A0       		.byte	-96
 826 00e7 92       		.byte	-110
 827 00e8 A1       		.byte	-95
 828 00e9 1C       		.byte	28
 829 00ea A2       		.byte	-94
 830 00eb 49       		.byte	73
 831 00ec A3       		.byte	-93
 832 00ed 02       		.byte	2
 833 00ee A7       		.byte	-89
 834 00ef 10       		.byte	16
 835 00f0 A9       		.byte	-87
 836 00f1 09       		.byte	9
 837 00f2 AB       		.byte	-85
 838 00f3 10       		.byte	16
 839 00f4 AC       		.byte	-84
 840 00f5 1C       		.byte	28
 841 00f6 AE       		.byte	-82
 842 00f7 E3       		.byte	-29
 843 00f8 B1       		.byte	-79
 844 00f9 1F       		.byte	31
 845 00fa B2       		.byte	-78
 846 00fb FF       		.byte	-1
 847 00fc B5       		.byte	-75
 848 00fd 20       		.byte	32
 849 00fe BE       		.byte	-66
 850 00ff 04       		.byte	4
 851 0100 BF       		.byte	-65
 852 0101 10       		.byte	16
 853 0102 C0       		.byte	-64
 854 0103 36       		.byte	54
 855 0104 C1       		.byte	-63
 856 0105 02       		.byte	2
 857 0106 C5       		.byte	-59
 858 0107 EB       		.byte	-21
 859 0108 C6       		.byte	-58
 860 0109 C0       		.byte	-64
 861 010a C8       		.byte	-56
 862 010b 0B       		.byte	11
 863 010c C9       		.byte	-55
 864 010d FF       		.byte	-1
 865 010e CA       		.byte	-54
 866 010f FF       		.byte	-1
 867 0110 CB       		.byte	-53
ARM GAS  C:\Users\SCOTTC~1\AppData\Local\Temp\ccSlq9sc.s 			page 32


 868 0111 FF       		.byte	-1
 869 0112 CE       		.byte	-50
 870 0113 F0       		.byte	-16
 871 0114 CF       		.byte	-49
 872 0115 44       		.byte	68
 873 0116 D0       		.byte	-48
 874 0117 0C       		.byte	12
 875 0118 D4       		.byte	-44
 876 0119 01       		.byte	1
 877 011a D6       		.byte	-42
 878 011b 04       		.byte	4
 879 011c D8       		.byte	-40
 880 011d 04       		.byte	4
 881 011e D9       		.byte	-39
 882 011f 04       		.byte	4
 883 0120 DA       		.byte	-38
 884 0121 04       		.byte	4
 885 0122 DB       		.byte	-37
 886 0123 04       		.byte	4
 887 0124 DF       		.byte	-33
 888 0125 01       		.byte	1
 889 0126 E6       		.byte	-26
 890 0127 C0       		.byte	-64
 891 0128 EA       		.byte	-22
 892 0129 40       		.byte	64
 893 012a EB       		.byte	-21
 894 012b 02       		.byte	2
 895 012c 03       		.byte	3
 896 012d 04       		.byte	4
 897 012e 04       		.byte	4
 898 012f 2A       		.byte	42
 899 0130 08       		.byte	8
 900 0131 48       		.byte	72
 901 0132 0A       		.byte	10
 902 0133 80       		.byte	-128
 903 0134 0E       		.byte	14
 904 0135 0A       		.byte	10
 905 0136 0F       		.byte	15
 906 0137 40       		.byte	64
 907 0138 12       		.byte	18
 908 0139 11       		.byte	17
 909 013a 13       		.byte	19
 910 013b 20       		.byte	32
 911 013c 17       		.byte	23
 912 013d 41       		.byte	65
 913 013e 18       		.byte	24
 914 013f 04       		.byte	4
 915 0140 19       		.byte	25
 916 0141 04       		.byte	4
 917 0142 1E       		.byte	30
 918 0143 10       		.byte	16
 919 0144 20       		.byte	32
 920 0145 40       		.byte	64
 921 0146 22       		.byte	34
 922 0147 08       		.byte	8
 923 0148 23       		.byte	35
 924 0149 01       		.byte	1
ARM GAS  C:\Users\SCOTTC~1\AppData\Local\Temp\ccSlq9sc.s 			page 33


 925 014a 24       		.byte	36
 926 014b 80       		.byte	-128
 927 014c 26       		.byte	38
 928 014d 02       		.byte	2
 929 014e 27       		.byte	39
 930 014f 08       		.byte	8
 931 0150 28       		.byte	40
 932 0151 08       		.byte	8
 933 0152 2B       		.byte	43
 934 0153 0C       		.byte	12
 935 0154 2E       		.byte	46
 936 0155 08       		.byte	8
 937 0156 2F       		.byte	47
 938 0157 88       		.byte	-120
 939 0158 30       		.byte	48
 940 0159 40       		.byte	64
 941 015a 31       		.byte	49
 942 015b 24       		.byte	36
 943 015c 32       		.byte	50
 944 015d 80       		.byte	-128
 945 015e 33       		.byte	51
 946 015f 84       		.byte	-124
 947 0160 35       		.byte	53
 948 0161 04       		.byte	4
 949 0162 36       		.byte	54
 950 0163 02       		.byte	2
 951 0164 38       		.byte	56
 952 0165 10       		.byte	16
 953 0166 39       		.byte	57
 954 0167 0A       		.byte	10
 955 0168 3A       		.byte	58
 956 0169 10       		.byte	16
 957 016a 3D       		.byte	61
 958 016b 21       		.byte	33
 959 016c 3F       		.byte	63
 960 016d 04       		.byte	4
 961 016e 45       		.byte	69
 962 016f 30       		.byte	48
 963 0170 47       		.byte	71
 964 0171 24       		.byte	36
 965 0172 4D       		.byte	77
 966 0173 01       		.byte	1
 967 0174 4E       		.byte	78
 968 0175 04       		.byte	4
 969 0176 4F       		.byte	79
 970 0177 04       		.byte	4
 971 0178 56       		.byte	86
 972 0179 10       		.byte	16
 973 017a 5C       		.byte	92
 974 017b 50       		.byte	80
 975 017c 5D       		.byte	93
 976 017d 01       		.byte	1
 977 017e 5F       		.byte	95
 978 017f 08       		.byte	8
 979 0180 65       		.byte	101
 980 0181 01       		.byte	1
 981 0182 C0       		.byte	-64
ARM GAS  C:\Users\SCOTTC~1\AppData\Local\Temp\ccSlq9sc.s 			page 34


 982 0183 72       		.byte	114
 983 0184 C2       		.byte	-62
 984 0185 DD       		.byte	-35
 985 0186 C4       		.byte	-60
 986 0187 97       		.byte	-105
 987 0188 CA       		.byte	-54
 988 0189 E4       		.byte	-28
 989 018a CC       		.byte	-52
 990 018b CE       		.byte	-50
 991 018c CE       		.byte	-50
 992 018d E7       		.byte	-25
 993 018e D0       		.byte	-48
 994 018f 60       		.byte	96
 995 0190 D2       		.byte	-46
 996 0191 20       		.byte	32
 997 0192 D6       		.byte	-42
 998 0193 F0       		.byte	-16
 999 0194 D8       		.byte	-40
 1000 0195 80       		.byte	-128
 1001 0196 00       		.byte	0
 1002 0197 01       		.byte	1
 1003 0198 01       		.byte	1
 1004 0199 5B       		.byte	91
 1005 019a 02       		.byte	2
 1006 019b 02       		.byte	2
 1007 019c 03       		.byte	3
 1008 019d 24       		.byte	36
 1009 019e 04       		.byte	4
 1010 019f 01       		.byte	1
 1011 01a0 05       		.byte	5
 1012 01a1 38       		.byte	56
 1013 01a2 06       		.byte	6
 1014 01a3 02       		.byte	2
 1015 01a4 07       		.byte	7
 1016 01a5 07       		.byte	7
 1017 01a6 08       		.byte	8
 1018 01a7 01       		.byte	1
 1019 01a8 0A       		.byte	10
 1020 01a9 02       		.byte	2
 1021 01aa 0B       		.byte	11
 1022 01ab 80       		.byte	-128
 1023 01ac 0D       		.byte	13
 1024 01ad 47       		.byte	71
 1025 01ae 0F       		.byte	15
 1026 01af 38       		.byte	56
 1027 01b0 10       		.byte	16
 1028 01b1 18       		.byte	24
 1029 01b2 11       		.byte	17
 1030 01b3 24       		.byte	36
 1031 01b4 13       		.byte	19
 1032 01b5 12       		.byte	18
 1033 01b6 14       		.byte	20
 1034 01b7 08       		.byte	8
 1035 01b8 1A       		.byte	26
 1036 01b9 1C       		.byte	28
 1037 01ba 1C       		.byte	28
 1038 01bb 03       		.byte	3
ARM GAS  C:\Users\SCOTTC~1\AppData\Local\Temp\ccSlq9sc.s 			page 35


 1039 01bc 1F       		.byte	31
 1040 01bd 40       		.byte	64
 1041 01be 20       		.byte	32
 1042 01bf 01       		.byte	1
 1043 01c0 21       		.byte	33
 1044 01c1 49       		.byte	73
 1045 01c2 22       		.byte	34
 1046 01c3 02       		.byte	2
 1047 01c4 23       		.byte	35
 1048 01c5 36       		.byte	54
 1049 01c6 25       		.byte	37
 1050 01c7 6D       		.byte	109
 1051 01c8 26       		.byte	38
 1052 01c9 14       		.byte	20
 1053 01ca 27       		.byte	39
 1054 01cb 12       		.byte	18
 1055 01cc 29       		.byte	41
 1056 01cd 6D       		.byte	109
 1057 01ce 2A       		.byte	42
 1058 01cf 0C       		.byte	12
 1059 01d0 2B       		.byte	43
 1060 01d1 12       		.byte	18
 1061 01d2 30       		.byte	48
 1062 01d3 03       		.byte	3
 1063 01d4 31       		.byte	49
 1064 01d5 C0       		.byte	-64
 1065 01d6 32       		.byte	50
 1066 01d7 1C       		.byte	28
 1067 01d8 33       		.byte	51
 1068 01d9 3F       		.byte	63
 1069 01da 3A       		.byte	58
 1070 01db 08       		.byte	8
 1071 01dc 40       		.byte	64
 1072 01dd 02       		.byte	2
 1073 01de 45       		.byte	69
 1074 01df 10       		.byte	16
 1075 01e0 47       		.byte	71
 1076 01e1 05       		.byte	5
 1077 01e2 48       		.byte	72
 1078 01e3 12       		.byte	18
 1079 01e4 49       		.byte	73
 1080 01e5 FF       		.byte	-1
 1081 01e6 4A       		.byte	74
 1082 01e7 0F       		.byte	15
 1083 01e8 4B       		.byte	75
 1084 01e9 FF       		.byte	-1
 1085 01ea 4C       		.byte	76
 1086 01eb 40       		.byte	64
 1087 01ec 4D       		.byte	77
 1088 01ed 20       		.byte	32
 1089 01ee 4E       		.byte	78
 1090 01ef F0       		.byte	-16
 1091 01f0 4F       		.byte	79
 1092 01f1 05       		.byte	5
 1093 01f2 50       		.byte	80
 1094 01f3 08       		.byte	8
 1095 01f4 58       		.byte	88
ARM GAS  C:\Users\SCOTTC~1\AppData\Local\Temp\ccSlq9sc.s 			page 36


 1096 01f5 04       		.byte	4
 1097 01f6 59       		.byte	89
 1098 01f7 04       		.byte	4
 1099 01f8 5A       		.byte	90
 1100 01f9 04       		.byte	4
 1101 01fa 5F       		.byte	95
 1102 01fb 01       		.byte	1
 1103 01fc 60       		.byte	96
 1104 01fd 40       		.byte	64
 1105 01fe 61       		.byte	97
 1106 01ff A8       		.byte	-88
 1107 0200 62       		.byte	98
 1108 0201 40       		.byte	64
 1109 0202 63       		.byte	99
 1110 0203 20       		.byte	32
 1111 0204 80       		.byte	-128
 1112 0205 80       		.byte	-128
 1113 0206 82       		.byte	-126
 1114 0207 18       		.byte	24
 1115 0208 84       		.byte	-124
 1116 0209 08       		.byte	8
 1117 020a 85       		.byte	-123
 1118 020b 01       		.byte	1
 1119 020c 87       		.byte	-121
 1120 020d 02       		.byte	2
 1121 020e 88       		.byte	-120
 1122 020f 10       		.byte	16
 1123 0210 8E       		.byte	-114
 1124 0211 06       		.byte	6
 1125 0212 90       		.byte	-112
 1126 0213 59       		.byte	89
 1127 0214 92       		.byte	-110
 1128 0215 04       		.byte	4
 1129 0216 94       		.byte	-108
 1130 0217 47       		.byte	71
 1131 0218 96       		.byte	-106
 1132 0219 18       		.byte	24
 1133 021a 98       		.byte	-104
 1134 021b 59       		.byte	89
 1135 021c 9A       		.byte	-102
 1136 021d 02       		.byte	2
 1137 021e 9E       		.byte	-98
 1138 021f 01       		.byte	1
 1139 0220 A0       		.byte	-96
 1140 0221 20       		.byte	32
 1141 0222 A4       		.byte	-92
 1142 0223 01       		.byte	1
 1143 0224 A8       		.byte	-88
 1144 0225 5F       		.byte	95
 1145 0226 AC       		.byte	-84
 1146 0227 80       		.byte	-128
 1147 0228 B0       		.byte	-80
 1148 0229 1F       		.byte	31
 1149 022a B1       		.byte	-79
 1150 022b 02       		.byte	2
 1151 022c B2       		.byte	-78
 1152 022d 20       		.byte	32
ARM GAS  C:\Users\SCOTTC~1\AppData\Local\Temp\ccSlq9sc.s 			page 37


 1153 022e B3       		.byte	-77
 1154 022f 01       		.byte	1
 1155 0230 B4       		.byte	-76
 1156 0231 20       		.byte	32
 1157 0232 B6       		.byte	-74
 1158 0233 C0       		.byte	-64
 1159 0234 B8       		.byte	-72
 1160 0235 80       		.byte	-128
 1161 0236 BA       		.byte	-70
 1162 0237 02       		.byte	2
 1163 0238 BE       		.byte	-66
 1164 0239 10       		.byte	16
 1165 023a BF       		.byte	-65
 1166 023b 04       		.byte	4
 1167 023c D4       		.byte	-44
 1168 023d 18       		.byte	24
 1169 023e D6       		.byte	-42
 1170 023f 04       		.byte	4
 1171 0240 D8       		.byte	-40
 1172 0241 04       		.byte	4
 1173 0242 D9       		.byte	-39
 1174 0243 04       		.byte	4
 1175 0244 DB       		.byte	-37
 1176 0245 04       		.byte	4
 1177 0246 DF       		.byte	-33
 1178 0247 01       		.byte	1
 1179 0248 00       		.byte	0
 1180 0249 28       		.byte	40
 1181 024a 03       		.byte	3
 1182 024b 82       		.byte	-126
 1183 024c 04       		.byte	4
 1184 024d 2A       		.byte	42
 1185 024e 09       		.byte	9
 1186 024f 28       		.byte	40
 1187 0250 0A       		.byte	10
 1188 0251 42       		.byte	66
 1189 0252 0C       		.byte	12
 1190 0253 08       		.byte	8
 1191 0254 0E       		.byte	14
 1192 0255 82       		.byte	-126
 1193 0256 0F       		.byte	15
 1194 0257 08       		.byte	8
 1195 0258 10       		.byte	16
 1196 0259 82       		.byte	-126
 1197 025a 11       		.byte	17
 1198 025b 04       		.byte	4
 1199 025c 12       		.byte	18
 1200 025d 08       		.byte	8
 1201 025e 17       		.byte	23
 1202 025f 25       		.byte	37
 1203 0260 18       		.byte	24
 1204 0261 02       		.byte	2
 1205 0262 1A       		.byte	26
 1206 0263 48       		.byte	72
 1207 0264 1B       		.byte	27
 1208 0265 84       		.byte	-124
 1209 0266 1E       		.byte	30
ARM GAS  C:\Users\SCOTTC~1\AppData\Local\Temp\ccSlq9sc.s 			page 38


 1210 0267 20       		.byte	32
 1211 0268 1F       		.byte	31
 1212 0269 02       		.byte	2
 1213 026a 22       		.byte	34
 1214 026b 01       		.byte	1
 1215 026c 23       		.byte	35
 1216 026d 10       		.byte	16
 1217 026e 24       		.byte	36
 1218 026f 10       		.byte	16
 1219 0270 25       		.byte	37
 1220 0271 05       		.byte	5
 1221 0272 26       		.byte	38
 1222 0273 04       		.byte	4
 1223 0274 27       		.byte	39
 1224 0275 40       		.byte	64
 1225 0276 2E       		.byte	46
 1226 0277 04       		.byte	4
 1227 0278 2F       		.byte	47
 1228 0279 88       		.byte	-120
 1229 027a 37       		.byte	55
 1230 027b 41       		.byte	65
 1231 027c 39       		.byte	57
 1232 027d 04       		.byte	4
 1233 027e 3D       		.byte	61
 1234 027f 09       		.byte	9
 1235 0280 3E       		.byte	62
 1236 0281 10       		.byte	16
 1237 0282 3F       		.byte	63
 1238 0283 40       		.byte	64
 1239 0284 47       		.byte	71
 1240 0285 10       		.byte	16
 1241 0286 4C       		.byte	76
 1242 0287 80       		.byte	-128
 1243 0288 54       		.byte	84
 1244 0289 08       		.byte	8
 1245 028a 56       		.byte	86
 1246 028b 08       		.byte	8
 1247 028c 5A       		.byte	90
 1248 028d 01       		.byte	1
 1249 028e 5E       		.byte	94
 1250 028f 20       		.byte	32
 1251 0290 5F       		.byte	95
 1252 0291 20       		.byte	32
 1253 0292 60       		.byte	96
 1254 0293 84       		.byte	-124
 1255 0294 63       		.byte	99
 1256 0295 01       		.byte	1
 1257 0296 80       		.byte	-128
 1258 0297 80       		.byte	-128
 1259 0298 8B       		.byte	-117
 1260 0299 10       		.byte	16
 1261 029a 90       		.byte	-112
 1262 029b 84       		.byte	-124
 1263 029c 92       		.byte	-110
 1264 029d 10       		.byte	16
 1265 029e 93       		.byte	-109
 1266 029f 01       		.byte	1
ARM GAS  C:\Users\SCOTTC~1\AppData\Local\Temp\ccSlq9sc.s 			page 39


 1267 02a0 94       		.byte	-108
 1268 02a1 2A       		.byte	42
 1269 02a2 95       		.byte	-107
 1270 02a3 0A       		.byte	10
 1271 02a4 96       		.byte	-106
 1272 02a5 88       		.byte	-120
 1273 02a6 97       		.byte	-105
 1274 02a7 40       		.byte	64
 1275 02a8 99       		.byte	-103
 1276 02a9 04       		.byte	4
 1277 02aa 9B       		.byte	-101
 1278 02ab 04       		.byte	4
 1279 02ac 9E       		.byte	-98
 1280 02ad 09       		.byte	9
 1281 02ae 9F       		.byte	-97
 1282 02af 61       		.byte	97
 1283 02b0 A2       		.byte	-94
 1284 02b1 08       		.byte	8
 1285 02b2 A6       		.byte	-90
 1286 02b3 85       		.byte	-123
 1287 02b4 A7       		.byte	-89
 1288 02b5 04       		.byte	4
 1289 02b6 B5       		.byte	-75
 1290 02b7 01       		.byte	1
 1291 02b8 C0       		.byte	-64
 1292 02b9 7F       		.byte	127
 1293 02ba C2       		.byte	-62
 1294 02bb FF       		.byte	-1
 1295 02bc C4       		.byte	-60
 1296 02bd 7F       		.byte	127
 1297 02be CA       		.byte	-54
 1298 02bf E0       		.byte	-32
 1299 02c0 CC       		.byte	-52
 1300 02c1 90       		.byte	-112
 1301 02c2 CE       		.byte	-50
 1302 02c3 F2       		.byte	-14
 1303 02c4 D0       		.byte	-48
 1304 02c5 20       		.byte	32
 1305 02c6 D6       		.byte	-42
 1306 02c7 01       		.byte	1
 1307 02c8 D8       		.byte	-40
 1308 02c9 0D       		.byte	13
 1309 02ca EE       		.byte	-18
 1310 02cb 40       		.byte	64
 1311 02cc 03       		.byte	3
 1312 02cd 0C       		.byte	12
 1313 02ce 05       		.byte	5
 1314 02cf 01       		.byte	1
 1315 02d0 08       		.byte	8
 1316 02d1 02       		.byte	2
 1317 02d2 09       		.byte	9
 1318 02d3 04       		.byte	4
 1319 02d4 0A       		.byte	10
 1320 02d5 10       		.byte	16
 1321 02d6 0E       		.byte	14
 1322 02d7 03       		.byte	3
 1323 02d8 10       		.byte	16
ARM GAS  C:\Users\SCOTTC~1\AppData\Local\Temp\ccSlq9sc.s 			page 40


 1324 02d9 08       		.byte	8
 1325 02da 12       		.byte	18
 1326 02db 07       		.byte	7
 1327 02dc 13       		.byte	19
 1328 02dd 33       		.byte	51
 1329 02de 14       		.byte	20
 1330 02df 0F       		.byte	15
 1331 02e0 15       		.byte	21
 1332 02e1 08       		.byte	8
 1333 02e2 18       		.byte	24
 1334 02e3 08       		.byte	8
 1335 02e4 19       		.byte	25
 1336 02e5 0F       		.byte	15
 1337 02e6 1A       		.byte	26
 1338 02e7 07       		.byte	7
 1339 02e8 1B       		.byte	27
 1340 02e9 30       		.byte	48
 1341 02ea 1D       		.byte	29
 1342 02eb 03       		.byte	3
 1343 02ec 20       		.byte	32
 1344 02ed 03       		.byte	3
 1345 02ee 21       		.byte	33
 1346 02ef 3F       		.byte	63
 1347 02f0 22       		.byte	34
 1348 02f1 20       		.byte	32
 1349 02f2 25       		.byte	37
 1350 02f3 33       		.byte	51
 1351 02f4 27       		.byte	39
 1352 02f5 0C       		.byte	12
 1353 02f6 28       		.byte	40
 1354 02f7 0F       		.byte	15
 1355 02f8 29       		.byte	41
 1356 02f9 02       		.byte	2
 1357 02fa 2C       		.byte	44
 1358 02fb 01       		.byte	1
 1359 02fc 2D       		.byte	45
 1360 02fd 2C       		.byte	44
 1361 02fe 2E       		.byte	46
 1362 02ff 10       		.byte	16
 1363 0300 2F       		.byte	47
 1364 0301 13       		.byte	19
 1365 0302 30       		.byte	48
 1366 0303 04       		.byte	4
 1367 0304 31       		.byte	49
 1368 0305 2C       		.byte	44
 1369 0306 32       		.byte	50
 1370 0307 08       		.byte	8
 1371 0308 33       		.byte	51
 1372 0309 0F       		.byte	15
 1373 030a 34       		.byte	52
 1374 030b 30       		.byte	48
 1375 030c 35       		.byte	53
 1376 030d 1C       		.byte	28
 1377 030e 36       		.byte	54
 1378 030f 03       		.byte	3
 1379 0310 38       		.byte	56
 1380 0311 02       		.byte	2
ARM GAS  C:\Users\SCOTTC~1\AppData\Local\Temp\ccSlq9sc.s 			page 41


 1381 0312 3B       		.byte	59
 1382 0313 28       		.byte	40
 1383 0314 3E       		.byte	62
 1384 0315 14       		.byte	20
 1385 0316 40       		.byte	64
 1386 0317 34       		.byte	52
 1387 0318 41       		.byte	65
 1388 0319 06       		.byte	6
 1389 031a 42       		.byte	66
 1390 031b 05       		.byte	5
 1391 031c 44       		.byte	68
 1392 031d 02       		.byte	2
 1393 031e 47       		.byte	71
 1394 031f EC       		.byte	-20
 1395 0320 48       		.byte	72
 1396 0321 30       		.byte	48
 1397 0322 49       		.byte	73
 1398 0323 FF       		.byte	-1
 1399 0324 4A       		.byte	74
 1400 0325 FF       		.byte	-1
 1401 0326 4B       		.byte	75
 1402 0327 FF       		.byte	-1
 1403 0328 4C       		.byte	76
 1404 0329 62       		.byte	98
 1405 032a 4D       		.byte	77
 1406 032b A0       		.byte	-96
 1407 032c 4E       		.byte	78
 1408 032d F0       		.byte	-16
 1409 032e 4F       		.byte	79
 1410 032f 41       		.byte	65
 1411 0330 50       		.byte	80
 1412 0331 0C       		.byte	12
 1413 0332 58       		.byte	88
 1414 0333 04       		.byte	4
 1415 0334 59       		.byte	89
 1416 0335 04       		.byte	4
 1417 0336 5A       		.byte	90
 1418 0337 04       		.byte	4
 1419 0338 5F       		.byte	95
 1420 0339 01       		.byte	1
 1421 033a 66       		.byte	102
 1422 033b 40       		.byte	64
 1423 033c 67       		.byte	103
 1424 033d 02       		.byte	2
 1425 033e 69       		.byte	105
 1426 033f 10       		.byte	16
 1427 0340 6A       		.byte	106
 1428 0341 30       		.byte	48
 1429 0342 6B       		.byte	107
 1430 0343 10       		.byte	16
 1431 0344 6D       		.byte	109
 1432 0345 10       		.byte	16
 1433 0346 6E       		.byte	110
 1434 0347 10       		.byte	16
 1435 0348 6F       		.byte	111
 1436 0349 12       		.byte	18
 1437 034a 87       		.byte	-121
ARM GAS  C:\Users\SCOTTC~1\AppData\Local\Temp\ccSlq9sc.s 			page 42


 1438 034b 1E       		.byte	30
 1439 034c 8C       		.byte	-116
 1440 034d 01       		.byte	1
 1441 034e 95       		.byte	-107
 1442 034f 07       		.byte	7
 1443 0350 97       		.byte	-105
 1444 0351 08       		.byte	8
 1445 0352 99       		.byte	-103
 1446 0353 07       		.byte	7
 1447 0354 9B       		.byte	-101
 1448 0355 18       		.byte	24
 1449 0356 9D       		.byte	-99
 1450 0357 11       		.byte	17
 1451 0358 9F       		.byte	-97
 1452 0359 04       		.byte	4
 1453 035a A9       		.byte	-87
 1454 035b 10       		.byte	16
 1455 035c B0       		.byte	-80
 1456 035d 01       		.byte	1
 1457 035e B3       		.byte	-77
 1458 035f 03       		.byte	3
 1459 0360 B7       		.byte	-73
 1460 0361 1C       		.byte	28
 1461 0362 B9       		.byte	-71
 1462 0363 08       		.byte	8
 1463 0364 BB       		.byte	-69
 1464 0365 80       		.byte	-128
 1465 0366 BE       		.byte	-66
 1466 0367 01       		.byte	1
 1467 0368 BF       		.byte	-65
 1468 0369 04       		.byte	4
 1469 036a D6       		.byte	-42
 1470 036b 02       		.byte	2
 1471 036c D7       		.byte	-41
 1472 036d 11       		.byte	17
 1473 036e D8       		.byte	-40
 1474 036f 04       		.byte	4
 1475 0370 D9       		.byte	-39
 1476 0371 04       		.byte	4
 1477 0372 DB       		.byte	-37
 1478 0373 04       		.byte	4
 1479 0374 DF       		.byte	-33
 1480 0375 01       		.byte	1
 1481 0376 00       		.byte	0
 1482 0377 10       		.byte	16
 1483 0378 01       		.byte	1
 1484 0379 20       		.byte	32
 1485 037a 03       		.byte	3
 1486 037b 02       		.byte	2
 1487 037c 04       		.byte	4
 1488 037d 80       		.byte	-128
 1489 037e 08       		.byte	8
 1490 037f 01       		.byte	1
 1491 0380 09       		.byte	9
 1492 0381 28       		.byte	40
 1493 0382 0A       		.byte	10
 1494 0383 40       		.byte	64
ARM GAS  C:\Users\SCOTTC~1\AppData\Local\Temp\ccSlq9sc.s 			page 43


 1495 0384 11       		.byte	17
 1496 0385 02       		.byte	2
 1497 0386 12       		.byte	18
 1498 0387 08       		.byte	8
 1499 0388 13       		.byte	19
 1500 0389 40       		.byte	64
 1501 038a 18       		.byte	24
 1502 038b 04       		.byte	4
 1503 038c 1A       		.byte	26
 1504 038d 91       		.byte	-111
 1505 038e 1C       		.byte	28
 1506 038f 80       		.byte	-128
 1507 0390 21       		.byte	33
 1508 0391 29       		.byte	41
 1509 0392 22       		.byte	34
 1510 0393 02       		.byte	2
 1511 0394 26       		.byte	38
 1512 0395 C0       		.byte	-64
 1513 0396 27       		.byte	39
 1514 0397 10       		.byte	16
 1515 0398 28       		.byte	40
 1516 0399 21       		.byte	33
 1517 039a 29       		.byte	41
 1518 039b 21       		.byte	33
 1519 039c 2C       		.byte	44
 1520 039d 08       		.byte	8
 1521 039e 31       		.byte	49
 1522 039f 20       		.byte	32
 1523 03a0 33       		.byte	51
 1524 03a1 46       		.byte	70
 1525 03a2 35       		.byte	53
 1526 03a3 04       		.byte	4
 1527 03a4 36       		.byte	54
 1528 03a5 50       		.byte	80
 1529 03a6 38       		.byte	56
 1530 03a7 02       		.byte	2
 1531 03a8 39       		.byte	57
 1532 03a9 04       		.byte	4
 1533 03aa 3A       		.byte	58
 1534 03ab 10       		.byte	16
 1535 03ac 3F       		.byte	63
 1536 03ad 08       		.byte	8
 1537 03ae 40       		.byte	64
 1538 03af 24       		.byte	36
 1539 03b0 41       		.byte	65
 1540 03b1 08       		.byte	8
 1541 03b2 43       		.byte	67
 1542 03b3 02       		.byte	2
 1543 03b4 4A       		.byte	74
 1544 03b5 0A       		.byte	10
 1545 03b6 51       		.byte	81
 1546 03b7 04       		.byte	4
 1547 03b8 52       		.byte	82
 1548 03b9 01       		.byte	1
 1549 03ba 5E       		.byte	94
 1550 03bb 10       		.byte	16
 1551 03bc 6C       		.byte	108
ARM GAS  C:\Users\SCOTTC~1\AppData\Local\Temp\ccSlq9sc.s 			page 44


 1552 03bd 14       		.byte	20
 1553 03be 6D       		.byte	109
 1554 03bf 01       		.byte	1
 1555 03c0 6E       		.byte	110
 1556 03c1 06       		.byte	6
 1557 03c2 6F       		.byte	111
 1558 03c3 09       		.byte	9
 1559 03c4 74       		.byte	116
 1560 03c5 16       		.byte	22
 1561 03c6 76       		.byte	118
 1562 03c7 10       		.byte	16
 1563 03c8 77       		.byte	119
 1564 03c9 04       		.byte	4
 1565 03ca 81       		.byte	-127
 1566 03cb 01       		.byte	1
 1567 03cc 82       		.byte	-126
 1568 03cd 08       		.byte	8
 1569 03ce 90       		.byte	-112
 1570 03cf 92       		.byte	-110
 1571 03d0 91       		.byte	-111
 1572 03d1 04       		.byte	4
 1573 03d2 92       		.byte	-110
 1574 03d3 40       		.byte	64
 1575 03d4 93       		.byte	-109
 1576 03d5 40       		.byte	64
 1577 03d6 94       		.byte	-108
 1578 03d7 28       		.byte	40
 1579 03d8 95       		.byte	-107
 1580 03d9 0B       		.byte	11
 1581 03da 96       		.byte	-106
 1582 03db 85       		.byte	-123
 1583 03dc 99       		.byte	-103
 1584 03dd 04       		.byte	4
 1585 03de 9B       		.byte	-101
 1586 03df 40       		.byte	64
 1587 03e0 9E       		.byte	-98
 1588 03e1 01       		.byte	1
 1589 03e2 9F       		.byte	-97
 1590 03e3 11       		.byte	17
 1591 03e4 A0       		.byte	-96
 1592 03e5 08       		.byte	8
 1593 03e6 A1       		.byte	-95
 1594 03e7 01       		.byte	1
 1595 03e8 A2       		.byte	-94
 1596 03e9 18       		.byte	24
 1597 03ea A3       		.byte	-93
 1598 03eb 06       		.byte	6
 1599 03ec A4       		.byte	-92
 1600 03ed 16       		.byte	22
 1601 03ee A5       		.byte	-91
 1602 03ef 28       		.byte	40
 1603 03f0 A6       		.byte	-90
 1604 03f1 C1       		.byte	-63
 1605 03f2 A7       		.byte	-89
 1606 03f3 08       		.byte	8
 1607 03f4 AD       		.byte	-83
 1608 03f5 04       		.byte	4
ARM GAS  C:\Users\SCOTTC~1\AppData\Local\Temp\ccSlq9sc.s 			page 45


 1609 03f6 AF       		.byte	-81
 1610 03f7 40       		.byte	64
 1611 03f8 C0       		.byte	-64
 1612 03f9 83       		.byte	-125
 1613 03fa C2       		.byte	-62
 1614 03fb 0E       		.byte	14
 1615 03fc C4       		.byte	-60
 1616 03fd 0B       		.byte	11
 1617 03fe CA       		.byte	-54
 1618 03ff 2F       		.byte	47
 1619 0400 CC       		.byte	-52
 1620 0401 7F       		.byte	127
 1621 0402 CE       		.byte	-50
 1622 0403 47       		.byte	71
 1623 0404 D0       		.byte	-48
 1624 0405 07       		.byte	7
 1625 0406 D2       		.byte	-46
 1626 0407 0C       		.byte	12
 1627 0408 D6       		.byte	-42
 1628 0409 20       		.byte	32
 1629 040a AC       		.byte	-84
 1630 040b 40       		.byte	64
 1631 040c E4       		.byte	-28
 1632 040d 80       		.byte	-128
 1633 040e 33       		.byte	51
 1634 040f 48       		.byte	72
 1635 0410 35       		.byte	53
 1636 0411 80       		.byte	-128
 1637 0412 CC       		.byte	-52
 1638 0413 70       		.byte	112
 1639 0414 01       		.byte	1
 1640 0415 20       		.byte	32
 1641 0416 62       		.byte	98
 1642 0417 02       		.byte	2
 1643 0418 83       		.byte	-125
 1644 0419 48       		.byte	72
 1645 041a 9F       		.byte	-97
 1646 041b 40       		.byte	64
 1647 041c A7       		.byte	-89
 1648 041d 08       		.byte	8
 1649 041e B5       		.byte	-75
 1650 041f 80       		.byte	-128
 1651 0420 C0       		.byte	-64
 1652 0421 40       		.byte	64
 1653 0422 D8       		.byte	-40
 1654 0423 40       		.byte	64
 1655 0424 E6       		.byte	-26
 1656 0425 80       		.byte	-128
 1657 0426 A6       		.byte	-90
 1658 0427 02       		.byte	2
 1659 0428 AD       		.byte	-83
 1660 0429 20       		.byte	32
 1661 042a EC       		.byte	-20
 1662 042b 40       		.byte	64
 1663 042c AE       		.byte	-82
 1664 042d 02       		.byte	2
 1665 042e EA       		.byte	-22
ARM GAS  C:\Users\SCOTTC~1\AppData\Local\Temp\ccSlq9sc.s 			page 46


 1666 042f 40       		.byte	64
 1667 0430 5D       		.byte	93
 1668 0431 01       		.byte	1
 1669 0432 89       		.byte	-119
 1670 0433 01       		.byte	1
 1671 0434 D6       		.byte	-42
 1672 0435 01       		.byte	1
 1673 0436 E4       		.byte	-28
 1674 0437 01       		.byte	1
 1675 0438 00       		.byte	0
 1676 0439 01       		.byte	1
 1677 043a 08       		.byte	8
 1678 043b 01       		.byte	1
 1679 043c 0A       		.byte	10
 1680 043d 01       		.byte	1
 1681 043e 00       		.byte	0
 1682 043f 3F       		.byte	63
 1683              		.align	2
 1684              		.type	BS_IOPINS0_0_VAL.4839, %object
 1685              		.size	BS_IOPINS0_0_VAL.4839, 10
 1686              	BS_IOPINS0_0_VAL.4839:
 1687 0440 8C       		.byte	-116
 1688 0441 00       		.byte	0
 1689 0442 04       		.byte	4
 1690 0443 FB       		.byte	-5
 1691 0444 F3       		.byte	-13
 1692 0445 00       		.byte	0
 1693 0446 10       		.byte	16
 1694 0447 00       		.byte	0
 1695 0448 00       		.byte	0
 1696 0449 00       		.byte	0
 1697 044a 0000     		.align	2
 1698              		.type	BS_IOPINS0_2_VAL.4840, %object
 1699              		.size	BS_IOPINS0_2_VAL.4840, 8
 1700              	BS_IOPINS0_2_VAL.4840:
 1701 044c 00       		.byte	0
 1702 044d FF       		.byte	-1
 1703 044e FF       		.byte	-1
 1704 044f 00       		.byte	0
 1705 0450 80       		.byte	-128
 1706 0451 00       		.byte	0
 1707 0452 00       		.byte	0
 1708 0453 00       		.byte	0
 1709              		.text
 1710              	.Letext0:
 1711              		.file 2 "c:\\program files\\cypress\\psoc creator\\3.2\\psoc creator\\import\\gnu\\arm\\4.8.4\\lib
 1712              		.file 3 ".\\Generated_Source\\PSoC5\\cytypes.h"