ARM GAS  C:\Users\SCOTTC~1\AppData\Local\Temp\ccJ3w8Xz.s 			page 1


   1              		.syntax unified
   2              		.cpu cortex-m3
   3              		.fpu softvfp
   4              		.eabi_attribute 20, 1
   5              		.eabi_attribute 21, 1
   6              		.eabi_attribute 23, 3
   7              		.eabi_attribute 24, 1
   8              		.eabi_attribute 25, 1
   9              		.eabi_attribute 26, 1
  10              		.eabi_attribute 30, 6
  11              		.eabi_attribute 34, 1
  12              		.eabi_attribute 18, 4
  13              		.thumb
  14              		.file	"UART_INT.c"
  15              		.text
  16              	.Ltext0:
  17              		.cfi_sections	.debug_frame
  18              		.section	.text.UART_RXISR,"ax",%progbits
  19              		.align	2
  20              		.global	UART_RXISR
  21              		.thumb
  22              		.thumb_func
  23              		.type	UART_RXISR, %function
  24              	UART_RXISR:
  25              	.LFB0:
  26              		.file 1 ".\\Generated_Source\\PSoC5\\UART_INT.c"
   1:.\Generated_Source\PSoC5/UART_INT.c **** /*******************************************************************************
   2:.\Generated_Source\PSoC5/UART_INT.c **** * File Name: UART_INT.c
   3:.\Generated_Source\PSoC5/UART_INT.c **** * Version 2.30
   4:.\Generated_Source\PSoC5/UART_INT.c **** *
   5:.\Generated_Source\PSoC5/UART_INT.c **** * Description:
   6:.\Generated_Source\PSoC5/UART_INT.c **** *  This file provides all Interrupt Service functionality of the UART component
   7:.\Generated_Source\PSoC5/UART_INT.c **** *
   8:.\Generated_Source\PSoC5/UART_INT.c **** * Note:
   9:.\Generated_Source\PSoC5/UART_INT.c **** *  Any unusual or non-standard behavior should be noted here. Other-
  10:.\Generated_Source\PSoC5/UART_INT.c **** *  wise, this section should remain blank.
  11:.\Generated_Source\PSoC5/UART_INT.c **** *
  12:.\Generated_Source\PSoC5/UART_INT.c **** ********************************************************************************
  13:.\Generated_Source\PSoC5/UART_INT.c **** * Copyright 2008-2012, Cypress Semiconductor Corporation.  All rights reserved.
  14:.\Generated_Source\PSoC5/UART_INT.c **** * You may use this file only in accordance with the license, terms, conditions,
  15:.\Generated_Source\PSoC5/UART_INT.c **** * disclaimers, and limitations in the end user license agreement accompanying
  16:.\Generated_Source\PSoC5/UART_INT.c **** * the software package with which this file was provided.
  17:.\Generated_Source\PSoC5/UART_INT.c **** *******************************************************************************/
  18:.\Generated_Source\PSoC5/UART_INT.c **** 
  19:.\Generated_Source\PSoC5/UART_INT.c **** #include "UART.h"
  20:.\Generated_Source\PSoC5/UART_INT.c **** #include "CyLib.h"
  21:.\Generated_Source\PSoC5/UART_INT.c **** 
  22:.\Generated_Source\PSoC5/UART_INT.c **** 
  23:.\Generated_Source\PSoC5/UART_INT.c **** /***************************************
  24:.\Generated_Source\PSoC5/UART_INT.c **** * Custom Declratations
  25:.\Generated_Source\PSoC5/UART_INT.c **** ***************************************/
  26:.\Generated_Source\PSoC5/UART_INT.c **** /* `#START CUSTOM_DECLARATIONS` Place your declaration here */
  27:.\Generated_Source\PSoC5/UART_INT.c **** 
  28:.\Generated_Source\PSoC5/UART_INT.c **** /* `#END` */
  29:.\Generated_Source\PSoC5/UART_INT.c **** 
  30:.\Generated_Source\PSoC5/UART_INT.c **** #if( (UART_RX_ENABLED || UART_HD_ENABLED) && \
  31:.\Generated_Source\PSoC5/UART_INT.c ****      (UART_RXBUFFERSIZE > UART_FIFO_LENGTH))
ARM GAS  C:\Users\SCOTTC~1\AppData\Local\Temp\ccJ3w8Xz.s 			page 2


  32:.\Generated_Source\PSoC5/UART_INT.c **** 
  33:.\Generated_Source\PSoC5/UART_INT.c **** 
  34:.\Generated_Source\PSoC5/UART_INT.c ****     /*******************************************************************************
  35:.\Generated_Source\PSoC5/UART_INT.c ****     * Function Name: UART_RXISR
  36:.\Generated_Source\PSoC5/UART_INT.c ****     ********************************************************************************
  37:.\Generated_Source\PSoC5/UART_INT.c ****     *
  38:.\Generated_Source\PSoC5/UART_INT.c ****     * Summary:
  39:.\Generated_Source\PSoC5/UART_INT.c ****     *  Interrupt Service Routine for RX portion of the UART
  40:.\Generated_Source\PSoC5/UART_INT.c ****     *
  41:.\Generated_Source\PSoC5/UART_INT.c ****     * Parameters:
  42:.\Generated_Source\PSoC5/UART_INT.c ****     *  None.
  43:.\Generated_Source\PSoC5/UART_INT.c ****     *
  44:.\Generated_Source\PSoC5/UART_INT.c ****     * Return:
  45:.\Generated_Source\PSoC5/UART_INT.c ****     *  None.
  46:.\Generated_Source\PSoC5/UART_INT.c ****     *
  47:.\Generated_Source\PSoC5/UART_INT.c ****     * Global Variables:
  48:.\Generated_Source\PSoC5/UART_INT.c ****     *  UART_rxBuffer - RAM buffer pointer for save received data.
  49:.\Generated_Source\PSoC5/UART_INT.c ****     *  UART_rxBufferWrite - cyclic index for write to rxBuffer,
  50:.\Generated_Source\PSoC5/UART_INT.c ****     *     increments after each byte saved to buffer.
  51:.\Generated_Source\PSoC5/UART_INT.c ****     *  UART_rxBufferRead - cyclic index for read from rxBuffer,
  52:.\Generated_Source\PSoC5/UART_INT.c ****     *     checked to detect overflow condition.
  53:.\Generated_Source\PSoC5/UART_INT.c ****     *  UART_rxBufferOverflow - software overflow flag. Set to one
  54:.\Generated_Source\PSoC5/UART_INT.c ****     *     when UART_rxBufferWrite index overtakes
  55:.\Generated_Source\PSoC5/UART_INT.c ****     *     UART_rxBufferRead index.
  56:.\Generated_Source\PSoC5/UART_INT.c ****     *  UART_rxBufferLoopDetect - additional variable to detect overflow.
  57:.\Generated_Source\PSoC5/UART_INT.c ****     *     Set to one when UART_rxBufferWrite is equal to
  58:.\Generated_Source\PSoC5/UART_INT.c ****     *    UART_rxBufferRead
  59:.\Generated_Source\PSoC5/UART_INT.c ****     *  UART_rxAddressMode - this variable contains the Address mode,
  60:.\Generated_Source\PSoC5/UART_INT.c ****     *     selected in customizer or set by UART_SetRxAddressMode() API.
  61:.\Generated_Source\PSoC5/UART_INT.c ****     *  UART_rxAddressDetected - set to 1 when correct address received,
  62:.\Generated_Source\PSoC5/UART_INT.c ****     *     and analysed to store following addressed data bytes to the buffer.
  63:.\Generated_Source\PSoC5/UART_INT.c ****     *     When not correct address received, set to 0 to skip following data bytes.
  64:.\Generated_Source\PSoC5/UART_INT.c ****     *
  65:.\Generated_Source\PSoC5/UART_INT.c ****     *******************************************************************************/
  66:.\Generated_Source\PSoC5/UART_INT.c ****     CY_ISR(UART_RXISR)
  67:.\Generated_Source\PSoC5/UART_INT.c ****     {
  27              		.loc 1 67 0
  28              		.cfi_startproc
  29              		@ args = 0, pretend = 0, frame = 8
  30              		@ frame_needed = 1, uses_anonymous_args = 0
  31              		@ link register save eliminated.
  32 0000 80B4     		push	{r7}
  33              		.cfi_def_cfa_offset 4
  34              		.cfi_offset 7, -4
  35 0002 83B0     		sub	sp, sp, #12
  36              		.cfi_def_cfa_offset 16
  37 0004 00AF     		add	r7, sp, #0
  38              		.cfi_def_cfa_register 7
  68:.\Generated_Source\PSoC5/UART_INT.c ****         uint8 readData;
  69:.\Generated_Source\PSoC5/UART_INT.c ****         uint8 increment_pointer = 0u;
  39              		.loc 1 69 0
  40 0006 0023     		movs	r3, #0
  41 0008 BB71     		strb	r3, [r7, #6]
  70:.\Generated_Source\PSoC5/UART_INT.c ****         #if(CY_PSOC3)
  71:.\Generated_Source\PSoC5/UART_INT.c ****             uint8 int_en;
  72:.\Generated_Source\PSoC5/UART_INT.c ****         #endif /* CY_PSOC3 */
  73:.\Generated_Source\PSoC5/UART_INT.c **** 
ARM GAS  C:\Users\SCOTTC~1\AppData\Local\Temp\ccJ3w8Xz.s 			page 3


  74:.\Generated_Source\PSoC5/UART_INT.c ****         /* User code required at start of ISR */
  75:.\Generated_Source\PSoC5/UART_INT.c ****         /* `#START UART_RXISR_START` */
  76:.\Generated_Source\PSoC5/UART_INT.c **** 
  77:.\Generated_Source\PSoC5/UART_INT.c ****         /* `#END` */
  78:.\Generated_Source\PSoC5/UART_INT.c **** 
  79:.\Generated_Source\PSoC5/UART_INT.c ****         #if(CY_PSOC3)   /* Make sure nested interrupt is enabled */
  80:.\Generated_Source\PSoC5/UART_INT.c ****             int_en = EA;
  81:.\Generated_Source\PSoC5/UART_INT.c ****             CyGlobalIntEnable;
  82:.\Generated_Source\PSoC5/UART_INT.c ****         #endif /* CY_PSOC3 */
  83:.\Generated_Source\PSoC5/UART_INT.c **** 
  84:.\Generated_Source\PSoC5/UART_INT.c ****         readData = UART_RXSTATUS_REG;
  42              		.loc 1 84 0
  43 000a 204B     		ldr	r3, .L7
  44 000c 1B78     		ldrb	r3, [r3]
  45 000e FB71     		strb	r3, [r7, #7]
  85:.\Generated_Source\PSoC5/UART_INT.c **** 
  86:.\Generated_Source\PSoC5/UART_INT.c ****         if((readData & (UART_RX_STS_BREAK | UART_RX_STS_PAR_ERROR |
  87:.\Generated_Source\PSoC5/UART_INT.c ****                         UART_RX_STS_STOP_ERROR | UART_RX_STS_OVERRUN)) != 0u)
  88:.\Generated_Source\PSoC5/UART_INT.c ****         {
  89:.\Generated_Source\PSoC5/UART_INT.c ****             /* ERROR handling. */
  90:.\Generated_Source\PSoC5/UART_INT.c ****             /* `#START UART_RXISR_ERROR` */
  91:.\Generated_Source\PSoC5/UART_INT.c **** 
  92:.\Generated_Source\PSoC5/UART_INT.c ****             /* `#END` */
  93:.\Generated_Source\PSoC5/UART_INT.c ****         }
  94:.\Generated_Source\PSoC5/UART_INT.c **** 
  95:.\Generated_Source\PSoC5/UART_INT.c ****         while((readData & UART_RX_STS_FIFO_NOTEMPTY) != 0u)
  46              		.loc 1 95 0
  47 0010 31E0     		b	.L2
  48              	.L6:
  96:.\Generated_Source\PSoC5/UART_INT.c ****         {
  97:.\Generated_Source\PSoC5/UART_INT.c **** 
  98:.\Generated_Source\PSoC5/UART_INT.c ****             #if (UART_RXHW_ADDRESS_ENABLED)
  99:.\Generated_Source\PSoC5/UART_INT.c ****                 if(UART_rxAddressMode == (uint8)UART__B_UART__AM_SW_DETECT_TO_BUFFER)
 100:.\Generated_Source\PSoC5/UART_INT.c ****                 {
 101:.\Generated_Source\PSoC5/UART_INT.c ****                     if((readData & UART_RX_STS_MRKSPC) != 0u)
 102:.\Generated_Source\PSoC5/UART_INT.c ****                     {
 103:.\Generated_Source\PSoC5/UART_INT.c ****                         if ((readData & UART_RX_STS_ADDR_MATCH) != 0u)
 104:.\Generated_Source\PSoC5/UART_INT.c ****                         {
 105:.\Generated_Source\PSoC5/UART_INT.c ****                             UART_rxAddressDetected = 1u;
 106:.\Generated_Source\PSoC5/UART_INT.c ****                         }
 107:.\Generated_Source\PSoC5/UART_INT.c ****                         else
 108:.\Generated_Source\PSoC5/UART_INT.c ****                         {
 109:.\Generated_Source\PSoC5/UART_INT.c ****                             UART_rxAddressDetected = 0u;
 110:.\Generated_Source\PSoC5/UART_INT.c ****                         }
 111:.\Generated_Source\PSoC5/UART_INT.c ****                     }
 112:.\Generated_Source\PSoC5/UART_INT.c **** 
 113:.\Generated_Source\PSoC5/UART_INT.c ****                     readData = UART_RXDATA_REG;
 114:.\Generated_Source\PSoC5/UART_INT.c ****                     if(UART_rxAddressDetected != 0u)
 115:.\Generated_Source\PSoC5/UART_INT.c ****                     {   /* store only addressed data */
 116:.\Generated_Source\PSoC5/UART_INT.c ****                         UART_rxBuffer[UART_rxBufferWrite] = readData;
 117:.\Generated_Source\PSoC5/UART_INT.c ****                         increment_pointer = 1u;
 118:.\Generated_Source\PSoC5/UART_INT.c ****                     }
 119:.\Generated_Source\PSoC5/UART_INT.c ****                 }
 120:.\Generated_Source\PSoC5/UART_INT.c ****                 else /* without software addressing */
 121:.\Generated_Source\PSoC5/UART_INT.c ****                 {
 122:.\Generated_Source\PSoC5/UART_INT.c ****                     UART_rxBuffer[UART_rxBufferWrite] = UART_RXDATA_REG;
 123:.\Generated_Source\PSoC5/UART_INT.c ****                     increment_pointer = 1u;
ARM GAS  C:\Users\SCOTTC~1\AppData\Local\Temp\ccJ3w8Xz.s 			page 4


 124:.\Generated_Source\PSoC5/UART_INT.c ****                 }
 125:.\Generated_Source\PSoC5/UART_INT.c ****             #else  /* without addressing */
 126:.\Generated_Source\PSoC5/UART_INT.c ****                 UART_rxBuffer[UART_rxBufferWrite] = UART_RXDATA_REG;
  49              		.loc 1 126 0
  50 0012 1F4B     		ldr	r3, .L7+4
  51 0014 1B78     		ldrb	r3, [r3]
  52 0016 DBB2     		uxtb	r3, r3
  53 0018 1E4A     		ldr	r2, .L7+8
  54 001a 1278     		ldrb	r2, [r2]
  55 001c D1B2     		uxtb	r1, r2
  56 001e 1E4A     		ldr	r2, .L7+12
  57 0020 D154     		strb	r1, [r2, r3]
 127:.\Generated_Source\PSoC5/UART_INT.c ****                 increment_pointer = 1u;
  58              		.loc 1 127 0
  59 0022 0123     		movs	r3, #1
  60 0024 BB71     		strb	r3, [r7, #6]
 128:.\Generated_Source\PSoC5/UART_INT.c ****             #endif /* End SW_DETECT_TO_BUFFER */
 129:.\Generated_Source\PSoC5/UART_INT.c **** 
 130:.\Generated_Source\PSoC5/UART_INT.c ****             /* do not increment buffer pointer when skip not adderessed data */
 131:.\Generated_Source\PSoC5/UART_INT.c ****             if( increment_pointer != 0u )
  61              		.loc 1 131 0
  62 0026 BB79     		ldrb	r3, [r7, #6]	@ zero_extendqisi2
  63 0028 002B     		cmp	r3, #0
  64 002a 21D0     		beq	.L3
 132:.\Generated_Source\PSoC5/UART_INT.c ****             {
 133:.\Generated_Source\PSoC5/UART_INT.c ****                 if(UART_rxBufferLoopDetect != 0u)
  65              		.loc 1 133 0
  66 002c 1B4B     		ldr	r3, .L7+16
  67 002e 1B78     		ldrb	r3, [r3]
  68 0030 DBB2     		uxtb	r3, r3
  69 0032 002B     		cmp	r3, #0
  70 0034 02D0     		beq	.L4
 134:.\Generated_Source\PSoC5/UART_INT.c ****                 {   /* Set Software Buffer status Overflow */
 135:.\Generated_Source\PSoC5/UART_INT.c ****                     UART_rxBufferOverflow = 1u;
  71              		.loc 1 135 0
  72 0036 1A4B     		ldr	r3, .L7+20
  73 0038 0122     		movs	r2, #1
  74 003a 1A70     		strb	r2, [r3]
  75              	.L4:
 136:.\Generated_Source\PSoC5/UART_INT.c ****                 }
 137:.\Generated_Source\PSoC5/UART_INT.c ****                 /* Set next pointer. */
 138:.\Generated_Source\PSoC5/UART_INT.c ****                 UART_rxBufferWrite++;
  76              		.loc 1 138 0
  77 003c 144B     		ldr	r3, .L7+4
  78 003e 1B78     		ldrb	r3, [r3]
  79 0040 DBB2     		uxtb	r3, r3
  80 0042 0133     		adds	r3, r3, #1
  81 0044 DAB2     		uxtb	r2, r3
  82 0046 124B     		ldr	r3, .L7+4
  83 0048 1A70     		strb	r2, [r3]
 139:.\Generated_Source\PSoC5/UART_INT.c **** 
 140:.\Generated_Source\PSoC5/UART_INT.c ****                 /* Check pointer for a loop condition */
 141:.\Generated_Source\PSoC5/UART_INT.c ****                 if(UART_rxBufferWrite >= UART_RXBUFFERSIZE)
  84              		.loc 1 141 0
  85 004a 114B     		ldr	r3, .L7+4
  86 004c 1B78     		ldrb	r3, [r3]
  87 004e DBB2     		uxtb	r3, r3
ARM GAS  C:\Users\SCOTTC~1\AppData\Local\Temp\ccJ3w8Xz.s 			page 5


  88 0050 FF2B     		cmp	r3, #255
  89 0052 02D1     		bne	.L5
 142:.\Generated_Source\PSoC5/UART_INT.c ****                 {
 143:.\Generated_Source\PSoC5/UART_INT.c ****                     UART_rxBufferWrite = 0u;
  90              		.loc 1 143 0
  91 0054 0E4B     		ldr	r3, .L7+4
  92 0056 0022     		movs	r2, #0
  93 0058 1A70     		strb	r2, [r3]
  94              	.L5:
 144:.\Generated_Source\PSoC5/UART_INT.c ****                 }
 145:.\Generated_Source\PSoC5/UART_INT.c ****                 /* Detect pre-overload condition and set flag */
 146:.\Generated_Source\PSoC5/UART_INT.c ****                 if(UART_rxBufferWrite == UART_rxBufferRead)
  95              		.loc 1 146 0
  96 005a 0D4B     		ldr	r3, .L7+4
  97 005c 1B78     		ldrb	r3, [r3]
  98 005e DAB2     		uxtb	r2, r3
  99 0060 104B     		ldr	r3, .L7+24
 100 0062 1B78     		ldrb	r3, [r3]
 101 0064 DBB2     		uxtb	r3, r3
 102 0066 9A42     		cmp	r2, r3
 103 0068 02D1     		bne	.L3
 147:.\Generated_Source\PSoC5/UART_INT.c ****                 {
 148:.\Generated_Source\PSoC5/UART_INT.c ****                     UART_rxBufferLoopDetect = 1u;
 104              		.loc 1 148 0
 105 006a 0C4B     		ldr	r3, .L7+16
 106 006c 0122     		movs	r2, #1
 107 006e 1A70     		strb	r2, [r3]
 108              	.L3:
 149:.\Generated_Source\PSoC5/UART_INT.c ****                     /* When Hardware Flow Control selected */
 150:.\Generated_Source\PSoC5/UART_INT.c ****                     #if(UART_FLOW_CONTROL != 0u)
 151:.\Generated_Source\PSoC5/UART_INT.c ****                     /* Disable RX interrupt mask, it will be enabled when user read data from the b
 152:.\Generated_Source\PSoC5/UART_INT.c ****                         UART_RXSTATUS_MASK_REG  &= (uint8)~UART_RX_STS_FIFO_NOTEMPTY;
 153:.\Generated_Source\PSoC5/UART_INT.c ****                         CyIntClearPending(UART_RX_VECT_NUM);
 154:.\Generated_Source\PSoC5/UART_INT.c ****                         break; /* Break the reading of the FIFO loop, leave the data there for gene
 155:.\Generated_Source\PSoC5/UART_INT.c ****                     #endif /* End UART_FLOW_CONTROL != 0 */
 156:.\Generated_Source\PSoC5/UART_INT.c ****                 }
 157:.\Generated_Source\PSoC5/UART_INT.c ****             }
 158:.\Generated_Source\PSoC5/UART_INT.c **** 
 159:.\Generated_Source\PSoC5/UART_INT.c ****             /* Check again if there is data. */
 160:.\Generated_Source\PSoC5/UART_INT.c ****             readData = UART_RXSTATUS_REG;
 109              		.loc 1 160 0
 110 0070 064B     		ldr	r3, .L7
 111 0072 1B78     		ldrb	r3, [r3]
 112 0074 FB71     		strb	r3, [r7, #7]
 113              	.L2:
  95:.\Generated_Source\PSoC5/UART_INT.c ****         while((readData & UART_RX_STS_FIFO_NOTEMPTY) != 0u)
 114              		.loc 1 95 0 discriminator 1
 115 0076 FB79     		ldrb	r3, [r7, #7]	@ zero_extendqisi2
 116 0078 03F02003 		and	r3, r3, #32
 117 007c 002B     		cmp	r3, #0
 118 007e C8D1     		bne	.L6
 161:.\Generated_Source\PSoC5/UART_INT.c ****         }
 162:.\Generated_Source\PSoC5/UART_INT.c **** 
 163:.\Generated_Source\PSoC5/UART_INT.c ****         /* User code required at end of ISR (Optional) */
 164:.\Generated_Source\PSoC5/UART_INT.c ****         /* `#START UART_RXISR_END` */
 165:.\Generated_Source\PSoC5/UART_INT.c **** 
 166:.\Generated_Source\PSoC5/UART_INT.c ****         /* `#END` */
ARM GAS  C:\Users\SCOTTC~1\AppData\Local\Temp\ccJ3w8Xz.s 			page 6


 167:.\Generated_Source\PSoC5/UART_INT.c **** 
 168:.\Generated_Source\PSoC5/UART_INT.c ****         #if(CY_PSOC3)
 169:.\Generated_Source\PSoC5/UART_INT.c ****             EA = int_en;
 170:.\Generated_Source\PSoC5/UART_INT.c ****         #endif /* CY_PSOC3 */
 171:.\Generated_Source\PSoC5/UART_INT.c **** 
 172:.\Generated_Source\PSoC5/UART_INT.c ****     }
 119              		.loc 1 172 0
 120 0080 0C37     		adds	r7, r7, #12
 121 0082 BD46     		mov	sp, r7
 122              		@ sp needed
 123 0084 5DF8047B 		ldr	r7, [sp], #4
 124 0088 7047     		bx	lr
 125              	.L8:
 126 008a 00BF     		.align	2
 127              	.L7:
 128 008c 63640040 		.word	1073767523
 129 0090 00000000 		.word	UART_rxBufferWrite
 130 0094 44640040 		.word	1073767492
 131 0098 00000000 		.word	UART_rxBuffer
 132 009c 00000000 		.word	UART_rxBufferLoopDetect
 133 00a0 00000000 		.word	UART_rxBufferOverflow
 134 00a4 00000000 		.word	UART_rxBufferRead
 135              		.cfi_endproc
 136              	.LFE0:
 137              		.size	UART_RXISR, .-UART_RXISR
 138              		.section	.text.UART_TXISR,"ax",%progbits
 139              		.align	2
 140              		.global	UART_TXISR
 141              		.thumb
 142              		.thumb_func
 143              		.type	UART_TXISR, %function
 144              	UART_TXISR:
 145              	.LFB1:
 173:.\Generated_Source\PSoC5/UART_INT.c **** 
 174:.\Generated_Source\PSoC5/UART_INT.c **** #endif /* End UART_RX_ENABLED && (UART_RXBUFFERSIZE > UART_FIFO_LENGTH) */
 175:.\Generated_Source\PSoC5/UART_INT.c **** 
 176:.\Generated_Source\PSoC5/UART_INT.c **** 
 177:.\Generated_Source\PSoC5/UART_INT.c **** #if(UART_TX_ENABLED && (UART_TXBUFFERSIZE > UART_FIFO_LENGTH))
 178:.\Generated_Source\PSoC5/UART_INT.c **** 
 179:.\Generated_Source\PSoC5/UART_INT.c **** 
 180:.\Generated_Source\PSoC5/UART_INT.c ****     /*******************************************************************************
 181:.\Generated_Source\PSoC5/UART_INT.c ****     * Function Name: UART_TXISR
 182:.\Generated_Source\PSoC5/UART_INT.c ****     ********************************************************************************
 183:.\Generated_Source\PSoC5/UART_INT.c ****     *
 184:.\Generated_Source\PSoC5/UART_INT.c ****     * Summary:
 185:.\Generated_Source\PSoC5/UART_INT.c ****     * Interrupt Service Routine for the TX portion of the UART
 186:.\Generated_Source\PSoC5/UART_INT.c ****     *
 187:.\Generated_Source\PSoC5/UART_INT.c ****     * Parameters:
 188:.\Generated_Source\PSoC5/UART_INT.c ****     *  None.
 189:.\Generated_Source\PSoC5/UART_INT.c ****     *
 190:.\Generated_Source\PSoC5/UART_INT.c ****     * Return:
 191:.\Generated_Source\PSoC5/UART_INT.c ****     *  None.
 192:.\Generated_Source\PSoC5/UART_INT.c ****     *
 193:.\Generated_Source\PSoC5/UART_INT.c ****     * Global Variables:
 194:.\Generated_Source\PSoC5/UART_INT.c ****     *  UART_txBuffer - RAM buffer pointer for transmit data from.
 195:.\Generated_Source\PSoC5/UART_INT.c ****     *  UART_txBufferRead - cyclic index for read and transmit data
 196:.\Generated_Source\PSoC5/UART_INT.c ****     *     from txBuffer, increments after each transmited byte.
ARM GAS  C:\Users\SCOTTC~1\AppData\Local\Temp\ccJ3w8Xz.s 			page 7


 197:.\Generated_Source\PSoC5/UART_INT.c ****     *  UART_rxBufferWrite - cyclic index for write to txBuffer,
 198:.\Generated_Source\PSoC5/UART_INT.c ****     *     checked to detect available for transmission bytes.
 199:.\Generated_Source\PSoC5/UART_INT.c ****     *
 200:.\Generated_Source\PSoC5/UART_INT.c ****     *******************************************************************************/
 201:.\Generated_Source\PSoC5/UART_INT.c ****     CY_ISR(UART_TXISR)
 202:.\Generated_Source\PSoC5/UART_INT.c ****     {
 146              		.loc 1 202 0
 147              		.cfi_startproc
 148              		@ args = 0, pretend = 0, frame = 0
 149              		@ frame_needed = 1, uses_anonymous_args = 0
 150              		@ link register save eliminated.
 151 0000 80B4     		push	{r7}
 152              		.cfi_def_cfa_offset 4
 153              		.cfi_offset 7, -4
 154 0002 00AF     		add	r7, sp, #0
 155              		.cfi_def_cfa_register 7
 203:.\Generated_Source\PSoC5/UART_INT.c **** 
 204:.\Generated_Source\PSoC5/UART_INT.c ****         #if(CY_PSOC3)
 205:.\Generated_Source\PSoC5/UART_INT.c ****             uint8 int_en;
 206:.\Generated_Source\PSoC5/UART_INT.c ****         #endif /* CY_PSOC3 */
 207:.\Generated_Source\PSoC5/UART_INT.c **** 
 208:.\Generated_Source\PSoC5/UART_INT.c ****         /* User code required at start of ISR */
 209:.\Generated_Source\PSoC5/UART_INT.c ****         /* `#START UART_TXISR_START` */
 210:.\Generated_Source\PSoC5/UART_INT.c **** 
 211:.\Generated_Source\PSoC5/UART_INT.c ****         /* `#END` */
 212:.\Generated_Source\PSoC5/UART_INT.c **** 
 213:.\Generated_Source\PSoC5/UART_INT.c ****         #if(CY_PSOC3)   /* Make sure nested interrupt is enabled */
 214:.\Generated_Source\PSoC5/UART_INT.c ****             int_en = EA;
 215:.\Generated_Source\PSoC5/UART_INT.c ****             CyGlobalIntEnable;
 216:.\Generated_Source\PSoC5/UART_INT.c ****         #endif /* CY_PSOC3 */
 217:.\Generated_Source\PSoC5/UART_INT.c **** 
 218:.\Generated_Source\PSoC5/UART_INT.c ****         while((UART_txBufferRead != UART_txBufferWrite) &&
 156              		.loc 1 218 0
 157 0004 16E0     		b	.L10
 158              	.L13:
 219:.\Generated_Source\PSoC5/UART_INT.c ****              ((UART_TXSTATUS_REG & UART_TX_STS_FIFO_FULL) == 0u))
 220:.\Generated_Source\PSoC5/UART_INT.c ****         {
 221:.\Generated_Source\PSoC5/UART_INT.c ****             /* Check pointer. */
 222:.\Generated_Source\PSoC5/UART_INT.c ****             if(UART_txBufferRead >= UART_TXBUFFERSIZE)
 159              		.loc 1 222 0
 160 0006 144B     		ldr	r3, .L14
 161 0008 1B78     		ldrb	r3, [r3]
 162 000a DBB2     		uxtb	r3, r3
 163 000c FF2B     		cmp	r3, #255
 164 000e 02D1     		bne	.L11
 223:.\Generated_Source\PSoC5/UART_INT.c ****             {
 224:.\Generated_Source\PSoC5/UART_INT.c ****                 UART_txBufferRead = 0u;
 165              		.loc 1 224 0
 166 0010 114B     		ldr	r3, .L14
 167 0012 0022     		movs	r2, #0
 168 0014 1A70     		strb	r2, [r3]
 169              	.L11:
 225:.\Generated_Source\PSoC5/UART_INT.c ****             }
 226:.\Generated_Source\PSoC5/UART_INT.c **** 
 227:.\Generated_Source\PSoC5/UART_INT.c ****             UART_TXDATA_REG = UART_txBuffer[UART_txBufferRead];
 170              		.loc 1 227 0
 171 0016 114B     		ldr	r3, .L14+4
ARM GAS  C:\Users\SCOTTC~1\AppData\Local\Temp\ccJ3w8Xz.s 			page 8


 172 0018 0F4A     		ldr	r2, .L14
 173 001a 1278     		ldrb	r2, [r2]
 174 001c D2B2     		uxtb	r2, r2
 175 001e 1049     		ldr	r1, .L14+8
 176 0020 8A5C     		ldrb	r2, [r1, r2]
 177 0022 D2B2     		uxtb	r2, r2
 178 0024 1A70     		strb	r2, [r3]
 228:.\Generated_Source\PSoC5/UART_INT.c **** 
 229:.\Generated_Source\PSoC5/UART_INT.c ****             /* Set next pointer. */
 230:.\Generated_Source\PSoC5/UART_INT.c ****             UART_txBufferRead++;
 179              		.loc 1 230 0
 180 0026 0C4B     		ldr	r3, .L14
 181 0028 1B78     		ldrb	r3, [r3]
 182 002a DBB2     		uxtb	r3, r3
 183 002c 0133     		adds	r3, r3, #1
 184 002e DAB2     		uxtb	r2, r3
 185 0030 094B     		ldr	r3, .L14
 186 0032 1A70     		strb	r2, [r3]
 187              	.L10:
 218:.\Generated_Source\PSoC5/UART_INT.c ****         while((UART_txBufferRead != UART_txBufferWrite) &&
 188              		.loc 1 218 0 discriminator 1
 189 0034 084B     		ldr	r3, .L14
 190 0036 1B78     		ldrb	r3, [r3]
 191 0038 DAB2     		uxtb	r2, r3
 192 003a 0A4B     		ldr	r3, .L14+12
 193 003c 1B78     		ldrb	r3, [r3]	@ zero_extendqisi2
 194 003e 9A42     		cmp	r2, r3
 195 0040 06D0     		beq	.L9
 219:.\Generated_Source\PSoC5/UART_INT.c ****              ((UART_TXSTATUS_REG & UART_TX_STS_FIFO_FULL) == 0u))
 196              		.loc 1 219 0 discriminator 2
 197 0042 094B     		ldr	r3, .L14+16
 198 0044 1B78     		ldrb	r3, [r3]
 199 0046 DBB2     		uxtb	r3, r3
 200 0048 03F00403 		and	r3, r3, #4
 218:.\Generated_Source\PSoC5/UART_INT.c ****         while((UART_txBufferRead != UART_txBufferWrite) &&
 201              		.loc 1 218 0 discriminator 2
 202 004c 002B     		cmp	r3, #0
 203 004e DAD0     		beq	.L13
 204              	.L9:
 231:.\Generated_Source\PSoC5/UART_INT.c ****         }
 232:.\Generated_Source\PSoC5/UART_INT.c **** 
 233:.\Generated_Source\PSoC5/UART_INT.c ****         /* User code required at end of ISR (Optional) */
 234:.\Generated_Source\PSoC5/UART_INT.c ****         /* `#START UART_TXISR_END` */
 235:.\Generated_Source\PSoC5/UART_INT.c **** 
 236:.\Generated_Source\PSoC5/UART_INT.c ****         /* `#END` */
 237:.\Generated_Source\PSoC5/UART_INT.c **** 
 238:.\Generated_Source\PSoC5/UART_INT.c ****         #if(CY_PSOC3)
 239:.\Generated_Source\PSoC5/UART_INT.c ****             EA = int_en;
 240:.\Generated_Source\PSoC5/UART_INT.c ****         #endif /* CY_PSOC3 */
 241:.\Generated_Source\PSoC5/UART_INT.c **** 
 242:.\Generated_Source\PSoC5/UART_INT.c ****     }
 205              		.loc 1 242 0
 206 0050 BD46     		mov	sp, r7
 207              		@ sp needed
 208 0052 5DF8047B 		ldr	r7, [sp], #4
 209 0056 7047     		bx	lr
 210              	.L15:
ARM GAS  C:\Users\SCOTTC~1\AppData\Local\Temp\ccJ3w8Xz.s 			page 9


 211              		.align	2
 212              	.L14:
 213 0058 00000000 		.word	UART_txBufferRead
 214 005c 41640040 		.word	1073767489
 215 0060 00000000 		.word	UART_txBuffer
 216 0064 00000000 		.word	UART_txBufferWrite
 217 0068 61640040 		.word	1073767521
 218              		.cfi_endproc
 219              	.LFE1:
 220              		.size	UART_TXISR, .-UART_TXISR
 221              		.text
 222              	.Letext0:
 223              		.file 2 ".\\Generated_Source\\PSoC5\\cytypes.h"
 224              		.file 3 ".\\Generated_Source\\PSoC5\\UART.h"