ARM GAS  C:\Users\SCOTTC~1\AppData\Local\Temp\ccs93tgd.s 			page 1


   1              		.syntax unified
   2              		.cpu cortex-m3
   3              		.fpu softvfp
   4              		.eabi_attribute 20, 1
   5              		.eabi_attribute 21, 1
   6              		.eabi_attribute 23, 3
   7              		.eabi_attribute 24, 1
   8              		.eabi_attribute 25, 1
   9              		.eabi_attribute 26, 1
  10              		.eabi_attribute 30, 6
  11              		.eabi_attribute 34, 1
  12              		.eabi_attribute 18, 4
  13              		.thumb
  14              		.file	"UART.c"
  15              		.text
  16              	.Ltext0:
  17              		.cfi_sections	.debug_frame
  18              		.global	UART_initVar
  19              		.bss
  20              		.type	UART_initVar, %object
  21              		.size	UART_initVar, 1
  22              	UART_initVar:
  23 0000 00       		.space	1
  24              		.comm	UART_txBuffer,255,4
  25              		.global	UART_txBufferRead
  26              		.type	UART_txBufferRead, %object
  27              		.size	UART_txBufferRead, 1
  28              	UART_txBufferRead:
  29 0001 00       		.space	1
  30              		.global	UART_txBufferWrite
  31              		.type	UART_txBufferWrite, %object
  32              		.size	UART_txBufferWrite, 1
  33              	UART_txBufferWrite:
  34 0002 00       		.space	1
  35              		.comm	UART_rxBuffer,255,4
  36              		.global	UART_rxBufferRead
  37              		.type	UART_rxBufferRead, %object
  38              		.size	UART_rxBufferRead, 1
  39              	UART_rxBufferRead:
  40 0003 00       		.space	1
  41              		.global	UART_rxBufferWrite
  42              		.type	UART_rxBufferWrite, %object
  43              		.size	UART_rxBufferWrite, 1
  44              	UART_rxBufferWrite:
  45 0004 00       		.space	1
  46              		.global	UART_rxBufferLoopDetect
  47              		.type	UART_rxBufferLoopDetect, %object
  48              		.size	UART_rxBufferLoopDetect, 1
  49              	UART_rxBufferLoopDetect:
  50 0005 00       		.space	1
  51              		.global	UART_rxBufferOverflow
  52              		.type	UART_rxBufferOverflow, %object
  53              		.size	UART_rxBufferOverflow, 1
  54              	UART_rxBufferOverflow:
  55 0006 00       		.space	1
  56              		.section	.text.UART_Start,"ax",%progbits
  57              		.align	2
ARM GAS  C:\Users\SCOTTC~1\AppData\Local\Temp\ccs93tgd.s 			page 2


  58              		.global	UART_Start
  59              		.thumb
  60              		.thumb_func
  61              		.type	UART_Start, %function
  62              	UART_Start:
  63              	.LFB0:
  64              		.file 1 ".\\Generated_Source\\PSoC5\\UART.c"
   1:.\Generated_Source\PSoC5/UART.c **** /*******************************************************************************
   2:.\Generated_Source\PSoC5/UART.c **** * File Name: UART.c
   3:.\Generated_Source\PSoC5/UART.c **** * Version 2.30
   4:.\Generated_Source\PSoC5/UART.c **** *
   5:.\Generated_Source\PSoC5/UART.c **** * Description:
   6:.\Generated_Source\PSoC5/UART.c **** *  This file provides all API functionality of the UART component
   7:.\Generated_Source\PSoC5/UART.c **** *
   8:.\Generated_Source\PSoC5/UART.c **** * Note:
   9:.\Generated_Source\PSoC5/UART.c **** *
  10:.\Generated_Source\PSoC5/UART.c **** ********************************************************************************
  11:.\Generated_Source\PSoC5/UART.c **** * Copyright 2008-2012, Cypress Semiconductor Corporation.  All rights reserved.
  12:.\Generated_Source\PSoC5/UART.c **** * You may use this file only in accordance with the license, terms, conditions,
  13:.\Generated_Source\PSoC5/UART.c **** * disclaimers, and limitations in the end user license agreement accompanying
  14:.\Generated_Source\PSoC5/UART.c **** * the software package with which this file was provided.
  15:.\Generated_Source\PSoC5/UART.c **** *******************************************************************************/
  16:.\Generated_Source\PSoC5/UART.c **** 
  17:.\Generated_Source\PSoC5/UART.c **** #include "UART.h"
  18:.\Generated_Source\PSoC5/UART.c **** #include "CyLib.h"
  19:.\Generated_Source\PSoC5/UART.c **** #if(UART_INTERNAL_CLOCK_USED)
  20:.\Generated_Source\PSoC5/UART.c ****     #include "UART_IntClock.h"
  21:.\Generated_Source\PSoC5/UART.c **** #endif /* End UART_INTERNAL_CLOCK_USED */
  22:.\Generated_Source\PSoC5/UART.c **** 
  23:.\Generated_Source\PSoC5/UART.c **** 
  24:.\Generated_Source\PSoC5/UART.c **** /***************************************
  25:.\Generated_Source\PSoC5/UART.c **** * Global data allocation
  26:.\Generated_Source\PSoC5/UART.c **** ***************************************/
  27:.\Generated_Source\PSoC5/UART.c **** 
  28:.\Generated_Source\PSoC5/UART.c **** uint8 UART_initVar = 0u;
  29:.\Generated_Source\PSoC5/UART.c **** #if( UART_TX_ENABLED && (UART_TXBUFFERSIZE > UART_FIFO_LENGTH))
  30:.\Generated_Source\PSoC5/UART.c ****     volatile uint8 UART_txBuffer[UART_TXBUFFERSIZE];
  31:.\Generated_Source\PSoC5/UART.c ****     volatile uint8 UART_txBufferRead = 0u;
  32:.\Generated_Source\PSoC5/UART.c ****     uint8 UART_txBufferWrite = 0u;
  33:.\Generated_Source\PSoC5/UART.c **** #endif /* End UART_TX_ENABLED */
  34:.\Generated_Source\PSoC5/UART.c **** #if( ( UART_RX_ENABLED || UART_HD_ENABLED ) && \
  35:.\Generated_Source\PSoC5/UART.c ****      (UART_RXBUFFERSIZE > UART_FIFO_LENGTH) )
  36:.\Generated_Source\PSoC5/UART.c ****     volatile uint8 UART_rxBuffer[UART_RXBUFFERSIZE];
  37:.\Generated_Source\PSoC5/UART.c ****     volatile uint8 UART_rxBufferRead = 0u;
  38:.\Generated_Source\PSoC5/UART.c ****     volatile uint8 UART_rxBufferWrite = 0u;
  39:.\Generated_Source\PSoC5/UART.c ****     volatile uint8 UART_rxBufferLoopDetect = 0u;
  40:.\Generated_Source\PSoC5/UART.c ****     volatile uint8 UART_rxBufferOverflow = 0u;
  41:.\Generated_Source\PSoC5/UART.c ****     #if (UART_RXHW_ADDRESS_ENABLED)
  42:.\Generated_Source\PSoC5/UART.c ****         volatile uint8 UART_rxAddressMode = UART_RXADDRESSMODE;
  43:.\Generated_Source\PSoC5/UART.c ****         volatile uint8 UART_rxAddressDetected = 0u;
  44:.\Generated_Source\PSoC5/UART.c ****     #endif /* End EnableHWAddress */
  45:.\Generated_Source\PSoC5/UART.c **** #endif /* End UART_RX_ENABLED */
  46:.\Generated_Source\PSoC5/UART.c **** 
  47:.\Generated_Source\PSoC5/UART.c **** 
  48:.\Generated_Source\PSoC5/UART.c **** /*******************************************************************************
  49:.\Generated_Source\PSoC5/UART.c **** * Function Name: UART_Start
  50:.\Generated_Source\PSoC5/UART.c **** ********************************************************************************
ARM GAS  C:\Users\SCOTTC~1\AppData\Local\Temp\ccs93tgd.s 			page 3


  51:.\Generated_Source\PSoC5/UART.c **** *
  52:.\Generated_Source\PSoC5/UART.c **** * Summary:
  53:.\Generated_Source\PSoC5/UART.c **** *  Initialize and Enable the UART component.
  54:.\Generated_Source\PSoC5/UART.c **** *  Enable the clock input to enable operation.
  55:.\Generated_Source\PSoC5/UART.c **** *
  56:.\Generated_Source\PSoC5/UART.c **** * Parameters:
  57:.\Generated_Source\PSoC5/UART.c **** *  None.
  58:.\Generated_Source\PSoC5/UART.c **** *
  59:.\Generated_Source\PSoC5/UART.c **** * Return:
  60:.\Generated_Source\PSoC5/UART.c **** *  None.
  61:.\Generated_Source\PSoC5/UART.c **** *
  62:.\Generated_Source\PSoC5/UART.c **** * Global variables:
  63:.\Generated_Source\PSoC5/UART.c **** *  The UART_intiVar variable is used to indicate initial
  64:.\Generated_Source\PSoC5/UART.c **** *  configuration of this component. The variable is initialized to zero (0u)
  65:.\Generated_Source\PSoC5/UART.c **** *  and set to one (1u) the first time UART_Start() is called. This allows for
  66:.\Generated_Source\PSoC5/UART.c **** *  component initialization without re-initialization in all subsequent calls
  67:.\Generated_Source\PSoC5/UART.c **** *  to the UART_Start() routine.
  68:.\Generated_Source\PSoC5/UART.c **** *
  69:.\Generated_Source\PSoC5/UART.c **** * Reentrant:
  70:.\Generated_Source\PSoC5/UART.c **** *  No.
  71:.\Generated_Source\PSoC5/UART.c **** *
  72:.\Generated_Source\PSoC5/UART.c **** *******************************************************************************/
  73:.\Generated_Source\PSoC5/UART.c **** void UART_Start(void) 
  74:.\Generated_Source\PSoC5/UART.c **** {
  65              		.loc 1 74 0
  66              		.cfi_startproc
  67              		@ args = 0, pretend = 0, frame = 0
  68              		@ frame_needed = 1, uses_anonymous_args = 0
  69 0000 80B5     		push	{r7, lr}
  70              		.cfi_def_cfa_offset 8
  71              		.cfi_offset 7, -8
  72              		.cfi_offset 14, -4
  73 0002 00AF     		add	r7, sp, #0
  74              		.cfi_def_cfa_register 7
  75:.\Generated_Source\PSoC5/UART.c ****     /* If not Initialized then initialize all required hardware and software */
  76:.\Generated_Source\PSoC5/UART.c ****     if(UART_initVar == 0u)
  75              		.loc 1 76 0
  76 0004 054B     		ldr	r3, .L3
  77 0006 1B78     		ldrb	r3, [r3]	@ zero_extendqisi2
  78 0008 002B     		cmp	r3, #0
  79 000a 04D1     		bne	.L2
  77:.\Generated_Source\PSoC5/UART.c ****     {
  78:.\Generated_Source\PSoC5/UART.c ****         UART_Init();
  80              		.loc 1 78 0
  81 000c FFF7FEFF 		bl	UART_Init
  79:.\Generated_Source\PSoC5/UART.c ****         UART_initVar = 1u;
  82              		.loc 1 79 0
  83 0010 024B     		ldr	r3, .L3
  84 0012 0122     		movs	r2, #1
  85 0014 1A70     		strb	r2, [r3]
  86              	.L2:
  80:.\Generated_Source\PSoC5/UART.c ****     }
  81:.\Generated_Source\PSoC5/UART.c ****     UART_Enable();
  87              		.loc 1 81 0
  88 0016 FFF7FEFF 		bl	UART_Enable
  82:.\Generated_Source\PSoC5/UART.c **** }
  89              		.loc 1 82 0
ARM GAS  C:\Users\SCOTTC~1\AppData\Local\Temp\ccs93tgd.s 			page 4


  90 001a 80BD     		pop	{r7, pc}
  91              	.L4:
  92              		.align	2
  93              	.L3:
  94 001c 00000000 		.word	UART_initVar
  95              		.cfi_endproc
  96              	.LFE0:
  97              		.size	UART_Start, .-UART_Start
  98              		.section	.text.UART_Init,"ax",%progbits
  99              		.align	2
 100              		.global	UART_Init
 101              		.thumb
 102              		.thumb_func
 103              		.type	UART_Init, %function
 104              	UART_Init:
 105              	.LFB1:
  83:.\Generated_Source\PSoC5/UART.c **** 
  84:.\Generated_Source\PSoC5/UART.c **** 
  85:.\Generated_Source\PSoC5/UART.c **** /*******************************************************************************
  86:.\Generated_Source\PSoC5/UART.c **** * Function Name: UART_Init
  87:.\Generated_Source\PSoC5/UART.c **** ********************************************************************************
  88:.\Generated_Source\PSoC5/UART.c **** *
  89:.\Generated_Source\PSoC5/UART.c **** * Summary:
  90:.\Generated_Source\PSoC5/UART.c **** *  Initialize component's parameters to the parameters set by user in the
  91:.\Generated_Source\PSoC5/UART.c **** *  customizer of the component placed onto schematic. Usually called in
  92:.\Generated_Source\PSoC5/UART.c **** *  UART_Start().
  93:.\Generated_Source\PSoC5/UART.c **** *
  94:.\Generated_Source\PSoC5/UART.c **** * Parameters:
  95:.\Generated_Source\PSoC5/UART.c **** *  None.
  96:.\Generated_Source\PSoC5/UART.c **** *
  97:.\Generated_Source\PSoC5/UART.c **** * Return:
  98:.\Generated_Source\PSoC5/UART.c **** *  None.
  99:.\Generated_Source\PSoC5/UART.c **** *
 100:.\Generated_Source\PSoC5/UART.c **** *******************************************************************************/
 101:.\Generated_Source\PSoC5/UART.c **** void UART_Init(void) 
 102:.\Generated_Source\PSoC5/UART.c **** {
 106              		.loc 1 102 0
 107              		.cfi_startproc
 108              		@ args = 0, pretend = 0, frame = 0
 109              		@ frame_needed = 1, uses_anonymous_args = 0
 110 0000 80B5     		push	{r7, lr}
 111              		.cfi_def_cfa_offset 8
 112              		.cfi_offset 7, -8
 113              		.cfi_offset 14, -4
 114 0002 00AF     		add	r7, sp, #0
 115              		.cfi_def_cfa_register 7
 103:.\Generated_Source\PSoC5/UART.c ****     #if(UART_RX_ENABLED || UART_HD_ENABLED)
 104:.\Generated_Source\PSoC5/UART.c **** 
 105:.\Generated_Source\PSoC5/UART.c ****         #if(UART_RX_INTERRUPT_ENABLED && (UART_RXBUFFERSIZE > UART_FIFO_LENGTH))
 106:.\Generated_Source\PSoC5/UART.c ****             /* Set the RX Interrupt. */
 107:.\Generated_Source\PSoC5/UART.c ****             (void)CyIntSetVector(UART_RX_VECT_NUM, &UART_RXISR);
 116              		.loc 1 107 0
 117 0004 0020     		movs	r0, #0
 118 0006 0F49     		ldr	r1, .L6
 119 0008 FFF7FEFF 		bl	CyIntSetVector
 108:.\Generated_Source\PSoC5/UART.c ****             CyIntSetPriority(UART_RX_VECT_NUM, UART_RX_PRIOR_NUM);
 120              		.loc 1 108 0
ARM GAS  C:\Users\SCOTTC~1\AppData\Local\Temp\ccs93tgd.s 			page 5


 121 000c 0020     		movs	r0, #0
 122 000e 0721     		movs	r1, #7
 123 0010 FFF7FEFF 		bl	CyIntSetPriority
 109:.\Generated_Source\PSoC5/UART.c ****         #endif /* End UART_RX_INTERRUPT_ENABLED */
 110:.\Generated_Source\PSoC5/UART.c **** 
 111:.\Generated_Source\PSoC5/UART.c ****         #if (UART_RXHW_ADDRESS_ENABLED)
 112:.\Generated_Source\PSoC5/UART.c ****             UART_SetRxAddressMode(UART_RXAddressMode);
 113:.\Generated_Source\PSoC5/UART.c ****             UART_SetRxAddress1(UART_RXHWADDRESS1);
 114:.\Generated_Source\PSoC5/UART.c ****             UART_SetRxAddress2(UART_RXHWADDRESS2);
 115:.\Generated_Source\PSoC5/UART.c ****         #endif /* End UART_RXHW_ADDRESS_ENABLED */
 116:.\Generated_Source\PSoC5/UART.c **** 
 117:.\Generated_Source\PSoC5/UART.c ****         /* Init Count7 period */
 118:.\Generated_Source\PSoC5/UART.c ****         UART_RXBITCTR_PERIOD_REG = UART_RXBITCTR_INIT;
 124              		.loc 1 118 0
 125 0014 0C4B     		ldr	r3, .L6+4
 126 0016 7622     		movs	r2, #118
 127 0018 1A70     		strb	r2, [r3]
 119:.\Generated_Source\PSoC5/UART.c ****         /* Configure the Initial RX interrupt mask */
 120:.\Generated_Source\PSoC5/UART.c ****         UART_RXSTATUS_MASK_REG  = UART_INIT_RX_INTERRUPTS_MASK;
 128              		.loc 1 120 0
 129 001a 0C4B     		ldr	r3, .L6+8
 130 001c 2022     		movs	r2, #32
 131 001e 1A70     		strb	r2, [r3]
 121:.\Generated_Source\PSoC5/UART.c ****     #endif /* End UART_RX_ENABLED || UART_HD_ENABLED*/
 122:.\Generated_Source\PSoC5/UART.c **** 
 123:.\Generated_Source\PSoC5/UART.c ****     #if(UART_TX_ENABLED)
 124:.\Generated_Source\PSoC5/UART.c ****         #if(UART_TX_INTERRUPT_ENABLED && (UART_TXBUFFERSIZE > UART_FIFO_LENGTH))
 125:.\Generated_Source\PSoC5/UART.c ****             /* Set the TX Interrupt. */
 126:.\Generated_Source\PSoC5/UART.c ****             (void)CyIntSetVector(UART_TX_VECT_NUM, &UART_TXISR);
 132              		.loc 1 126 0
 133 0020 0120     		movs	r0, #1
 134 0022 0B49     		ldr	r1, .L6+12
 135 0024 FFF7FEFF 		bl	CyIntSetVector
 127:.\Generated_Source\PSoC5/UART.c ****             CyIntSetPriority(UART_TX_VECT_NUM, UART_TX_PRIOR_NUM);
 136              		.loc 1 127 0
 137 0028 0120     		movs	r0, #1
 138 002a 0721     		movs	r1, #7
 139 002c FFF7FEFF 		bl	CyIntSetPriority
 128:.\Generated_Source\PSoC5/UART.c ****         #endif /* End UART_TX_INTERRUPT_ENABLED */
 129:.\Generated_Source\PSoC5/UART.c **** 
 130:.\Generated_Source\PSoC5/UART.c ****         /* Write Counter Value for TX Bit Clk Generator*/
 131:.\Generated_Source\PSoC5/UART.c ****         #if(UART_TXCLKGEN_DP)
 132:.\Generated_Source\PSoC5/UART.c ****             UART_TXBITCLKGEN_CTR_REG = UART_BIT_CENTER;
 140              		.loc 1 132 0
 141 0030 084B     		ldr	r3, .L6+16
 142 0032 0F22     		movs	r2, #15
 143 0034 1A70     		strb	r2, [r3]
 133:.\Generated_Source\PSoC5/UART.c ****             UART_TXBITCLKTX_COMPLETE_REG = (UART_NUMBER_OF_DATA_BITS +
 144              		.loc 1 133 0
 145 0036 084B     		ldr	r3, .L6+20
 146 0038 9022     		movs	r2, #144
 147 003a 1A70     		strb	r2, [r3]
 134:.\Generated_Source\PSoC5/UART.c ****                         UART_NUMBER_OF_START_BIT) * UART_OVER_SAMPLE_COUNT;
 135:.\Generated_Source\PSoC5/UART.c ****         #else
 136:.\Generated_Source\PSoC5/UART.c ****             UART_TXBITCTR_PERIOD_REG = ((UART_NUMBER_OF_DATA_BITS +
 137:.\Generated_Source\PSoC5/UART.c ****                         UART_NUMBER_OF_START_BIT) * UART_OVER_SAMPLE_8) - 1u;
 138:.\Generated_Source\PSoC5/UART.c ****         #endif /* End UART_TXCLKGEN_DP */
ARM GAS  C:\Users\SCOTTC~1\AppData\Local\Temp\ccs93tgd.s 			page 6


 139:.\Generated_Source\PSoC5/UART.c **** 
 140:.\Generated_Source\PSoC5/UART.c ****         /* Configure the Initial TX interrupt mask */
 141:.\Generated_Source\PSoC5/UART.c ****         #if(UART_TX_INTERRUPT_ENABLED && (UART_TXBUFFERSIZE > UART_FIFO_LENGTH))
 142:.\Generated_Source\PSoC5/UART.c ****             UART_TXSTATUS_MASK_REG = UART_TX_STS_FIFO_EMPTY;
 148              		.loc 1 142 0
 149 003c 074B     		ldr	r3, .L6+24
 150 003e 0222     		movs	r2, #2
 151 0040 1A70     		strb	r2, [r3]
 143:.\Generated_Source\PSoC5/UART.c ****         #else
 144:.\Generated_Source\PSoC5/UART.c ****             UART_TXSTATUS_MASK_REG = UART_INIT_TX_INTERRUPTS_MASK;
 145:.\Generated_Source\PSoC5/UART.c ****         #endif /*End UART_TX_INTERRUPT_ENABLED*/
 146:.\Generated_Source\PSoC5/UART.c **** 
 147:.\Generated_Source\PSoC5/UART.c ****     #endif /* End UART_TX_ENABLED */
 148:.\Generated_Source\PSoC5/UART.c **** 
 149:.\Generated_Source\PSoC5/UART.c ****     #if(UART_PARITY_TYPE_SW)  /* Write Parity to Control Register */
 150:.\Generated_Source\PSoC5/UART.c ****         UART_WriteControlRegister( \
 151:.\Generated_Source\PSoC5/UART.c ****             (UART_ReadControlRegister() & (uint8)~UART_CTRL_PARITY_TYPE_MASK) | \
 152:.\Generated_Source\PSoC5/UART.c ****             (uint8)(UART_PARITY_TYPE << UART_CTRL_PARITY_TYPE0_SHIFT) );
 153:.\Generated_Source\PSoC5/UART.c ****     #endif /* End UART_PARITY_TYPE_SW */
 154:.\Generated_Source\PSoC5/UART.c **** }
 152              		.loc 1 154 0
 153 0042 80BD     		pop	{r7, pc}
 154              	.L7:
 155              		.align	2
 156              	.L6:
 157 0044 00000000 		.word	UART_RXISR
 158 0048 85640040 		.word	1073767557
 159 004c 83640040 		.word	1073767555
 160 0050 00000000 		.word	UART_TXISR
 161 0054 22640040 		.word	1073767458
 162 0058 32640040 		.word	1073767474
 163 005c 81640040 		.word	1073767553
 164              		.cfi_endproc
 165              	.LFE1:
 166              		.size	UART_Init, .-UART_Init
 167              		.section	.text.UART_Enable,"ax",%progbits
 168              		.align	2
 169              		.global	UART_Enable
 170              		.thumb
 171              		.thumb_func
 172              		.type	UART_Enable, %function
 173              	UART_Enable:
 174              	.LFB2:
 155:.\Generated_Source\PSoC5/UART.c **** 
 156:.\Generated_Source\PSoC5/UART.c **** 
 157:.\Generated_Source\PSoC5/UART.c **** /*******************************************************************************
 158:.\Generated_Source\PSoC5/UART.c **** * Function Name: UART_Enable
 159:.\Generated_Source\PSoC5/UART.c **** ********************************************************************************
 160:.\Generated_Source\PSoC5/UART.c **** *
 161:.\Generated_Source\PSoC5/UART.c **** * Summary:
 162:.\Generated_Source\PSoC5/UART.c **** *  Enables the UART block operation
 163:.\Generated_Source\PSoC5/UART.c **** *
 164:.\Generated_Source\PSoC5/UART.c **** * Parameters:
 165:.\Generated_Source\PSoC5/UART.c **** *  None.
 166:.\Generated_Source\PSoC5/UART.c **** *
 167:.\Generated_Source\PSoC5/UART.c **** * Return:
 168:.\Generated_Source\PSoC5/UART.c **** *  None.
ARM GAS  C:\Users\SCOTTC~1\AppData\Local\Temp\ccs93tgd.s 			page 7


 169:.\Generated_Source\PSoC5/UART.c **** *
 170:.\Generated_Source\PSoC5/UART.c **** * Global Variables:
 171:.\Generated_Source\PSoC5/UART.c **** *  UART_rxAddressDetected - set to initial state (0).
 172:.\Generated_Source\PSoC5/UART.c **** *
 173:.\Generated_Source\PSoC5/UART.c **** *******************************************************************************/
 174:.\Generated_Source\PSoC5/UART.c **** void UART_Enable(void) 
 175:.\Generated_Source\PSoC5/UART.c **** {
 175              		.loc 1 175 0
 176              		.cfi_startproc
 177              		@ args = 0, pretend = 0, frame = 8
 178              		@ frame_needed = 1, uses_anonymous_args = 0
 179 0000 80B5     		push	{r7, lr}
 180              		.cfi_def_cfa_offset 8
 181              		.cfi_offset 7, -8
 182              		.cfi_offset 14, -4
 183 0002 82B0     		sub	sp, sp, #8
 184              		.cfi_def_cfa_offset 16
 185 0004 00AF     		add	r7, sp, #0
 186              		.cfi_def_cfa_register 7
 176:.\Generated_Source\PSoC5/UART.c ****     uint8 enableInterrupts;
 177:.\Generated_Source\PSoC5/UART.c ****     enableInterrupts = CyEnterCriticalSection();
 187              		.loc 1 177 0
 188 0006 FFF7FEFF 		bl	CyEnterCriticalSection
 189 000a 0346     		mov	r3, r0
 190 000c FB71     		strb	r3, [r7, #7]
 178:.\Generated_Source\PSoC5/UART.c **** 
 179:.\Generated_Source\PSoC5/UART.c ****     #if(UART_RX_ENABLED || UART_HD_ENABLED)
 180:.\Generated_Source\PSoC5/UART.c ****         /*RX Counter (Count7) Enable */
 181:.\Generated_Source\PSoC5/UART.c ****         UART_RXBITCTR_CONTROL_REG |= UART_CNTR_ENABLE;
 191              		.loc 1 181 0
 192 000e 134B     		ldr	r3, .L9
 193 0010 124A     		ldr	r2, .L9
 194 0012 1278     		ldrb	r2, [r2]
 195 0014 D2B2     		uxtb	r2, r2
 196 0016 42F02002 		orr	r2, r2, #32
 197 001a D2B2     		uxtb	r2, r2
 198 001c 1A70     		strb	r2, [r3]
 182:.\Generated_Source\PSoC5/UART.c ****         /* Enable the RX Interrupt. */
 183:.\Generated_Source\PSoC5/UART.c ****         UART_RXSTATUS_ACTL_REG  |= UART_INT_ENABLE;
 199              		.loc 1 183 0
 200 001e 104B     		ldr	r3, .L9+4
 201 0020 0F4A     		ldr	r2, .L9+4
 202 0022 1278     		ldrb	r2, [r2]
 203 0024 D2B2     		uxtb	r2, r2
 204 0026 42F01002 		orr	r2, r2, #16
 205 002a D2B2     		uxtb	r2, r2
 206 002c 1A70     		strb	r2, [r3]
 184:.\Generated_Source\PSoC5/UART.c ****         #if(UART_RX_INTERRUPT_ENABLED && (UART_RXBUFFERSIZE > UART_FIFO_LENGTH))
 185:.\Generated_Source\PSoC5/UART.c ****             CyIntEnable(UART_RX_VECT_NUM);
 207              		.loc 1 185 0
 208 002e 0D4B     		ldr	r3, .L9+8
 209 0030 0122     		movs	r2, #1
 210 0032 1A60     		str	r2, [r3]
 186:.\Generated_Source\PSoC5/UART.c ****             #if (UART_RXHW_ADDRESS_ENABLED)
 187:.\Generated_Source\PSoC5/UART.c ****                 UART_rxAddressDetected = 0u;
 188:.\Generated_Source\PSoC5/UART.c ****             #endif /* End UART_RXHW_ADDRESS_ENABLED */
 189:.\Generated_Source\PSoC5/UART.c ****         #endif /* End UART_RX_INTERRUPT_ENABLED */
ARM GAS  C:\Users\SCOTTC~1\AppData\Local\Temp\ccs93tgd.s 			page 8


 190:.\Generated_Source\PSoC5/UART.c ****     #endif /* End UART_RX_ENABLED || UART_HD_ENABLED*/
 191:.\Generated_Source\PSoC5/UART.c **** 
 192:.\Generated_Source\PSoC5/UART.c ****     #if(UART_TX_ENABLED)
 193:.\Generated_Source\PSoC5/UART.c ****         /*TX Counter (DP/Count7) Enable */
 194:.\Generated_Source\PSoC5/UART.c ****         #if(!UART_TXCLKGEN_DP)
 195:.\Generated_Source\PSoC5/UART.c ****             UART_TXBITCTR_CONTROL_REG |= UART_CNTR_ENABLE;
 196:.\Generated_Source\PSoC5/UART.c ****         #endif /* End UART_TXCLKGEN_DP */
 197:.\Generated_Source\PSoC5/UART.c ****         /* Enable the TX Interrupt. */
 198:.\Generated_Source\PSoC5/UART.c ****         UART_TXSTATUS_ACTL_REG |= UART_INT_ENABLE;
 211              		.loc 1 198 0
 212 0034 0C4B     		ldr	r3, .L9+12
 213 0036 0C4A     		ldr	r2, .L9+12
 214 0038 1278     		ldrb	r2, [r2]
 215 003a D2B2     		uxtb	r2, r2
 216 003c 42F01002 		orr	r2, r2, #16
 217 0040 D2B2     		uxtb	r2, r2
 218 0042 1A70     		strb	r2, [r3]
 199:.\Generated_Source\PSoC5/UART.c ****         #if(UART_TX_INTERRUPT_ENABLED && (UART_TXBUFFERSIZE > UART_FIFO_LENGTH))
 200:.\Generated_Source\PSoC5/UART.c ****             CyIntEnable(UART_TX_VECT_NUM);
 219              		.loc 1 200 0
 220 0044 074B     		ldr	r3, .L9+8
 221 0046 0222     		movs	r2, #2
 222 0048 1A60     		str	r2, [r3]
 201:.\Generated_Source\PSoC5/UART.c ****         #endif /* End UART_TX_INTERRUPT_ENABLED*/
 202:.\Generated_Source\PSoC5/UART.c ****      #endif /* End UART_TX_ENABLED */
 203:.\Generated_Source\PSoC5/UART.c **** 
 204:.\Generated_Source\PSoC5/UART.c ****     #if(UART_INTERNAL_CLOCK_USED)
 205:.\Generated_Source\PSoC5/UART.c ****         /* Enable the clock. */
 206:.\Generated_Source\PSoC5/UART.c ****         UART_IntClock_Start();
 223              		.loc 1 206 0
 224 004a FFF7FEFF 		bl	UART_IntClock_Start
 207:.\Generated_Source\PSoC5/UART.c ****     #endif /* End UART_INTERNAL_CLOCK_USED */
 208:.\Generated_Source\PSoC5/UART.c **** 
 209:.\Generated_Source\PSoC5/UART.c ****     CyExitCriticalSection(enableInterrupts);
 225              		.loc 1 209 0
 226 004e FB79     		ldrb	r3, [r7, #7]	@ zero_extendqisi2
 227 0050 1846     		mov	r0, r3
 228 0052 FFF7FEFF 		bl	CyExitCriticalSection
 210:.\Generated_Source\PSoC5/UART.c **** }
 229              		.loc 1 210 0
 230 0056 0837     		adds	r7, r7, #8
 231 0058 BD46     		mov	sp, r7
 232              		@ sp needed
 233 005a 80BD     		pop	{r7, pc}
 234              	.L10:
 235              		.align	2
 236              	.L9:
 237 005c 95640040 		.word	1073767573
 238 0060 93640040 		.word	1073767571
 239 0064 00E100E0 		.word	-536813312
 240 0068 91640040 		.word	1073767569
 241              		.cfi_endproc
 242              	.LFE2:
 243              		.size	UART_Enable, .-UART_Enable
 244              		.section	.text.UART_Stop,"ax",%progbits
 245              		.align	2
 246              		.global	UART_Stop
ARM GAS  C:\Users\SCOTTC~1\AppData\Local\Temp\ccs93tgd.s 			page 9


 247              		.thumb
 248              		.thumb_func
 249              		.type	UART_Stop, %function
 250              	UART_Stop:
 251              	.LFB3:
 211:.\Generated_Source\PSoC5/UART.c **** 
 212:.\Generated_Source\PSoC5/UART.c **** 
 213:.\Generated_Source\PSoC5/UART.c **** /*******************************************************************************
 214:.\Generated_Source\PSoC5/UART.c **** * Function Name: UART_Stop
 215:.\Generated_Source\PSoC5/UART.c **** ********************************************************************************
 216:.\Generated_Source\PSoC5/UART.c **** *
 217:.\Generated_Source\PSoC5/UART.c **** * Summary:
 218:.\Generated_Source\PSoC5/UART.c **** *  Disable the UART component
 219:.\Generated_Source\PSoC5/UART.c **** *
 220:.\Generated_Source\PSoC5/UART.c **** * Parameters:
 221:.\Generated_Source\PSoC5/UART.c **** *  None.
 222:.\Generated_Source\PSoC5/UART.c **** *
 223:.\Generated_Source\PSoC5/UART.c **** * Return:
 224:.\Generated_Source\PSoC5/UART.c **** *  None.
 225:.\Generated_Source\PSoC5/UART.c **** *
 226:.\Generated_Source\PSoC5/UART.c **** *******************************************************************************/
 227:.\Generated_Source\PSoC5/UART.c **** void UART_Stop(void) 
 228:.\Generated_Source\PSoC5/UART.c **** {
 252              		.loc 1 228 0
 253              		.cfi_startproc
 254              		@ args = 0, pretend = 0, frame = 8
 255              		@ frame_needed = 1, uses_anonymous_args = 0
 256 0000 80B5     		push	{r7, lr}
 257              		.cfi_def_cfa_offset 8
 258              		.cfi_offset 7, -8
 259              		.cfi_offset 14, -4
 260 0002 82B0     		sub	sp, sp, #8
 261              		.cfi_def_cfa_offset 16
 262 0004 00AF     		add	r7, sp, #0
 263              		.cfi_def_cfa_register 7
 229:.\Generated_Source\PSoC5/UART.c ****     uint8 enableInterrupts;
 230:.\Generated_Source\PSoC5/UART.c ****     enableInterrupts = CyEnterCriticalSection();
 264              		.loc 1 230 0
 265 0006 FFF7FEFF 		bl	CyEnterCriticalSection
 266 000a 0346     		mov	r3, r0
 267 000c FB71     		strb	r3, [r7, #7]
 231:.\Generated_Source\PSoC5/UART.c **** 
 232:.\Generated_Source\PSoC5/UART.c ****     /* Write Bit Counter Disable */
 233:.\Generated_Source\PSoC5/UART.c ****     #if(UART_RX_ENABLED || UART_HD_ENABLED)
 234:.\Generated_Source\PSoC5/UART.c ****         UART_RXBITCTR_CONTROL_REG &= (uint8)~UART_CNTR_ENABLE;
 268              		.loc 1 234 0
 269 000e 124B     		ldr	r3, .L12
 270 0010 114A     		ldr	r2, .L12
 271 0012 1278     		ldrb	r2, [r2]
 272 0014 D2B2     		uxtb	r2, r2
 273 0016 22F02002 		bic	r2, r2, #32
 274 001a D2B2     		uxtb	r2, r2
 275 001c 1A70     		strb	r2, [r3]
 235:.\Generated_Source\PSoC5/UART.c ****     #endif /* End UART_RX_ENABLED */
 236:.\Generated_Source\PSoC5/UART.c **** 
 237:.\Generated_Source\PSoC5/UART.c ****     #if(UART_TX_ENABLED)
 238:.\Generated_Source\PSoC5/UART.c ****         #if(!UART_TXCLKGEN_DP)
ARM GAS  C:\Users\SCOTTC~1\AppData\Local\Temp\ccs93tgd.s 			page 10


 239:.\Generated_Source\PSoC5/UART.c ****             UART_TXBITCTR_CONTROL_REG &= (uint8)~UART_CNTR_ENABLE;
 240:.\Generated_Source\PSoC5/UART.c ****         #endif /* End UART_TXCLKGEN_DP */
 241:.\Generated_Source\PSoC5/UART.c ****     #endif /* UART_TX_ENABLED */
 242:.\Generated_Source\PSoC5/UART.c **** 
 243:.\Generated_Source\PSoC5/UART.c ****     #if(UART_INTERNAL_CLOCK_USED)
 244:.\Generated_Source\PSoC5/UART.c ****         /* Disable the clock. */
 245:.\Generated_Source\PSoC5/UART.c ****         UART_IntClock_Stop();
 276              		.loc 1 245 0
 277 001e FFF7FEFF 		bl	UART_IntClock_Stop
 246:.\Generated_Source\PSoC5/UART.c ****     #endif /* End UART_INTERNAL_CLOCK_USED */
 247:.\Generated_Source\PSoC5/UART.c **** 
 248:.\Generated_Source\PSoC5/UART.c ****     /* Disable internal interrupt component */
 249:.\Generated_Source\PSoC5/UART.c ****     #if(UART_RX_ENABLED || UART_HD_ENABLED)
 250:.\Generated_Source\PSoC5/UART.c ****         UART_RXSTATUS_ACTL_REG  &= (uint8)~UART_INT_ENABLE;
 278              		.loc 1 250 0
 279 0022 0E4B     		ldr	r3, .L12+4
 280 0024 0D4A     		ldr	r2, .L12+4
 281 0026 1278     		ldrb	r2, [r2]
 282 0028 D2B2     		uxtb	r2, r2
 283 002a 22F01002 		bic	r2, r2, #16
 284 002e D2B2     		uxtb	r2, r2
 285 0030 1A70     		strb	r2, [r3]
 251:.\Generated_Source\PSoC5/UART.c ****         #if(UART_RX_INTERRUPT_ENABLED && (UART_RXBUFFERSIZE > UART_FIFO_LENGTH))
 252:.\Generated_Source\PSoC5/UART.c ****             UART_DisableRxInt();
 286              		.loc 1 252 0
 287 0032 FFF7FEFF 		bl	UART_DisableRxInt
 253:.\Generated_Source\PSoC5/UART.c ****         #endif /* End UART_RX_INTERRUPT_ENABLED */
 254:.\Generated_Source\PSoC5/UART.c ****     #endif /* End UART_RX_ENABLED */
 255:.\Generated_Source\PSoC5/UART.c **** 
 256:.\Generated_Source\PSoC5/UART.c ****     #if(UART_TX_ENABLED)
 257:.\Generated_Source\PSoC5/UART.c ****         UART_TXSTATUS_ACTL_REG &= (uint8)~UART_INT_ENABLE;
 288              		.loc 1 257 0
 289 0036 0A4B     		ldr	r3, .L12+8
 290 0038 094A     		ldr	r2, .L12+8
 291 003a 1278     		ldrb	r2, [r2]
 292 003c D2B2     		uxtb	r2, r2
 293 003e 22F01002 		bic	r2, r2, #16
 294 0042 D2B2     		uxtb	r2, r2
 295 0044 1A70     		strb	r2, [r3]
 258:.\Generated_Source\PSoC5/UART.c ****         #if(UART_TX_INTERRUPT_ENABLED && (UART_TXBUFFERSIZE > UART_FIFO_LENGTH))
 259:.\Generated_Source\PSoC5/UART.c ****             UART_DisableTxInt();
 296              		.loc 1 259 0
 297 0046 FFF7FEFF 		bl	UART_DisableTxInt
 260:.\Generated_Source\PSoC5/UART.c ****         #endif /* End UART_TX_INTERRUPT_ENABLED */
 261:.\Generated_Source\PSoC5/UART.c ****     #endif /* End UART_TX_ENABLED */
 262:.\Generated_Source\PSoC5/UART.c **** 
 263:.\Generated_Source\PSoC5/UART.c ****     CyExitCriticalSection(enableInterrupts);
 298              		.loc 1 263 0
 299 004a FB79     		ldrb	r3, [r7, #7]	@ zero_extendqisi2
 300 004c 1846     		mov	r0, r3
 301 004e FFF7FEFF 		bl	CyExitCriticalSection
 264:.\Generated_Source\PSoC5/UART.c **** }
 302              		.loc 1 264 0
 303 0052 0837     		adds	r7, r7, #8
 304 0054 BD46     		mov	sp, r7
 305              		@ sp needed
 306 0056 80BD     		pop	{r7, pc}
ARM GAS  C:\Users\SCOTTC~1\AppData\Local\Temp\ccs93tgd.s 			page 11


 307              	.L13:
 308              		.align	2
 309              	.L12:
 310 0058 95640040 		.word	1073767573
 311 005c 93640040 		.word	1073767571
 312 0060 91640040 		.word	1073767569
 313              		.cfi_endproc
 314              	.LFE3:
 315              		.size	UART_Stop, .-UART_Stop
 316              		.section	.text.UART_ReadControlRegister,"ax",%progbits
 317              		.align	2
 318              		.global	UART_ReadControlRegister
 319              		.thumb
 320              		.thumb_func
 321              		.type	UART_ReadControlRegister, %function
 322              	UART_ReadControlRegister:
 323              	.LFB4:
 265:.\Generated_Source\PSoC5/UART.c **** 
 266:.\Generated_Source\PSoC5/UART.c **** 
 267:.\Generated_Source\PSoC5/UART.c **** /*******************************************************************************
 268:.\Generated_Source\PSoC5/UART.c **** * Function Name: UART_ReadControlRegister
 269:.\Generated_Source\PSoC5/UART.c **** ********************************************************************************
 270:.\Generated_Source\PSoC5/UART.c **** *
 271:.\Generated_Source\PSoC5/UART.c **** * Summary:
 272:.\Generated_Source\PSoC5/UART.c **** *  Read the current state of the control register
 273:.\Generated_Source\PSoC5/UART.c **** *
 274:.\Generated_Source\PSoC5/UART.c **** * Parameters:
 275:.\Generated_Source\PSoC5/UART.c **** *  None.
 276:.\Generated_Source\PSoC5/UART.c **** *
 277:.\Generated_Source\PSoC5/UART.c **** * Return:
 278:.\Generated_Source\PSoC5/UART.c **** *  Current state of the control register.
 279:.\Generated_Source\PSoC5/UART.c **** *
 280:.\Generated_Source\PSoC5/UART.c **** *******************************************************************************/
 281:.\Generated_Source\PSoC5/UART.c **** uint8 UART_ReadControlRegister(void) 
 282:.\Generated_Source\PSoC5/UART.c **** {
 324              		.loc 1 282 0
 325              		.cfi_startproc
 326              		@ args = 0, pretend = 0, frame = 0
 327              		@ frame_needed = 1, uses_anonymous_args = 0
 328              		@ link register save eliminated.
 329 0000 80B4     		push	{r7}
 330              		.cfi_def_cfa_offset 4
 331              		.cfi_offset 7, -4
 332 0002 00AF     		add	r7, sp, #0
 333              		.cfi_def_cfa_register 7
 283:.\Generated_Source\PSoC5/UART.c ****     #if( UART_CONTROL_REG_REMOVED )
 284:.\Generated_Source\PSoC5/UART.c ****         return(0u);
 334              		.loc 1 284 0
 335 0004 0023     		movs	r3, #0
 285:.\Generated_Source\PSoC5/UART.c ****     #else
 286:.\Generated_Source\PSoC5/UART.c ****         return(UART_CONTROL_REG);
 287:.\Generated_Source\PSoC5/UART.c ****     #endif /* End UART_CONTROL_REG_REMOVED */
 288:.\Generated_Source\PSoC5/UART.c **** }
 336              		.loc 1 288 0
 337 0006 1846     		mov	r0, r3
 338 0008 BD46     		mov	sp, r7
 339              		@ sp needed
ARM GAS  C:\Users\SCOTTC~1\AppData\Local\Temp\ccs93tgd.s 			page 12


 340 000a 5DF8047B 		ldr	r7, [sp], #4
 341 000e 7047     		bx	lr
 342              		.cfi_endproc
 343              	.LFE4:
 344              		.size	UART_ReadControlRegister, .-UART_ReadControlRegister
 345              		.section	.text.UART_WriteControlRegister,"ax",%progbits
 346              		.align	2
 347              		.global	UART_WriteControlRegister
 348              		.thumb
 349              		.thumb_func
 350              		.type	UART_WriteControlRegister, %function
 351              	UART_WriteControlRegister:
 352              	.LFB5:
 289:.\Generated_Source\PSoC5/UART.c **** 
 290:.\Generated_Source\PSoC5/UART.c **** 
 291:.\Generated_Source\PSoC5/UART.c **** /*******************************************************************************
 292:.\Generated_Source\PSoC5/UART.c **** * Function Name: UART_WriteControlRegister
 293:.\Generated_Source\PSoC5/UART.c **** ********************************************************************************
 294:.\Generated_Source\PSoC5/UART.c **** *
 295:.\Generated_Source\PSoC5/UART.c **** * Summary:
 296:.\Generated_Source\PSoC5/UART.c **** *  Writes an 8-bit value into the control register
 297:.\Generated_Source\PSoC5/UART.c **** *
 298:.\Generated_Source\PSoC5/UART.c **** * Parameters:
 299:.\Generated_Source\PSoC5/UART.c **** *  control:  control register value
 300:.\Generated_Source\PSoC5/UART.c **** *
 301:.\Generated_Source\PSoC5/UART.c **** * Return:
 302:.\Generated_Source\PSoC5/UART.c **** *  None.
 303:.\Generated_Source\PSoC5/UART.c **** *
 304:.\Generated_Source\PSoC5/UART.c **** *******************************************************************************/
 305:.\Generated_Source\PSoC5/UART.c **** void  UART_WriteControlRegister(uint8 control) 
 306:.\Generated_Source\PSoC5/UART.c **** {
 353              		.loc 1 306 0
 354              		.cfi_startproc
 355              		@ args = 0, pretend = 0, frame = 8
 356              		@ frame_needed = 1, uses_anonymous_args = 0
 357              		@ link register save eliminated.
 358 0000 80B4     		push	{r7}
 359              		.cfi_def_cfa_offset 4
 360              		.cfi_offset 7, -4
 361 0002 83B0     		sub	sp, sp, #12
 362              		.cfi_def_cfa_offset 16
 363 0004 00AF     		add	r7, sp, #0
 364              		.cfi_def_cfa_register 7
 365 0006 0346     		mov	r3, r0
 366 0008 FB71     		strb	r3, [r7, #7]
 307:.\Generated_Source\PSoC5/UART.c ****     #if( UART_CONTROL_REG_REMOVED )
 308:.\Generated_Source\PSoC5/UART.c ****         if(control != 0u) { }      /* release compiler warning */
 309:.\Generated_Source\PSoC5/UART.c ****     #else
 310:.\Generated_Source\PSoC5/UART.c ****        UART_CONTROL_REG = control;
 311:.\Generated_Source\PSoC5/UART.c ****     #endif /* End UART_CONTROL_REG_REMOVED */
 312:.\Generated_Source\PSoC5/UART.c **** }
 367              		.loc 1 312 0
 368 000a 0C37     		adds	r7, r7, #12
 369 000c BD46     		mov	sp, r7
 370              		@ sp needed
 371 000e 5DF8047B 		ldr	r7, [sp], #4
 372 0012 7047     		bx	lr
ARM GAS  C:\Users\SCOTTC~1\AppData\Local\Temp\ccs93tgd.s 			page 13


 373              		.cfi_endproc
 374              	.LFE5:
 375              		.size	UART_WriteControlRegister, .-UART_WriteControlRegister
 376              		.section	.text.UART_EnableRxInt,"ax",%progbits
 377              		.align	2
 378              		.global	UART_EnableRxInt
 379              		.thumb
 380              		.thumb_func
 381              		.type	UART_EnableRxInt, %function
 382              	UART_EnableRxInt:
 383              	.LFB6:
 313:.\Generated_Source\PSoC5/UART.c **** 
 314:.\Generated_Source\PSoC5/UART.c **** 
 315:.\Generated_Source\PSoC5/UART.c **** #if(UART_RX_ENABLED || UART_HD_ENABLED)
 316:.\Generated_Source\PSoC5/UART.c **** 
 317:.\Generated_Source\PSoC5/UART.c ****     #if(UART_RX_INTERRUPT_ENABLED)
 318:.\Generated_Source\PSoC5/UART.c **** 
 319:.\Generated_Source\PSoC5/UART.c ****         /*******************************************************************************
 320:.\Generated_Source\PSoC5/UART.c ****         * Function Name: UART_EnableRxInt
 321:.\Generated_Source\PSoC5/UART.c ****         ********************************************************************************
 322:.\Generated_Source\PSoC5/UART.c ****         *
 323:.\Generated_Source\PSoC5/UART.c ****         * Summary:
 324:.\Generated_Source\PSoC5/UART.c ****         *  Enable RX interrupt generation
 325:.\Generated_Source\PSoC5/UART.c ****         *
 326:.\Generated_Source\PSoC5/UART.c ****         * Parameters:
 327:.\Generated_Source\PSoC5/UART.c ****         *  None.
 328:.\Generated_Source\PSoC5/UART.c ****         *
 329:.\Generated_Source\PSoC5/UART.c ****         * Return:
 330:.\Generated_Source\PSoC5/UART.c ****         *  None.
 331:.\Generated_Source\PSoC5/UART.c ****         *
 332:.\Generated_Source\PSoC5/UART.c ****         * Theory:
 333:.\Generated_Source\PSoC5/UART.c ****         *  Enable the interrupt output -or- the interrupt component itself
 334:.\Generated_Source\PSoC5/UART.c ****         *
 335:.\Generated_Source\PSoC5/UART.c ****         *******************************************************************************/
 336:.\Generated_Source\PSoC5/UART.c ****         void UART_EnableRxInt(void) 
 337:.\Generated_Source\PSoC5/UART.c ****         {
 384              		.loc 1 337 0
 385              		.cfi_startproc
 386              		@ args = 0, pretend = 0, frame = 0
 387              		@ frame_needed = 1, uses_anonymous_args = 0
 388              		@ link register save eliminated.
 389 0000 80B4     		push	{r7}
 390              		.cfi_def_cfa_offset 4
 391              		.cfi_offset 7, -4
 392 0002 00AF     		add	r7, sp, #0
 393              		.cfi_def_cfa_register 7
 338:.\Generated_Source\PSoC5/UART.c ****             CyIntEnable(UART_RX_VECT_NUM);
 394              		.loc 1 338 0
 395 0004 034B     		ldr	r3, .L18
 396 0006 0122     		movs	r2, #1
 397 0008 1A60     		str	r2, [r3]
 339:.\Generated_Source\PSoC5/UART.c ****         }
 398              		.loc 1 339 0
 399 000a BD46     		mov	sp, r7
 400              		@ sp needed
 401 000c 5DF8047B 		ldr	r7, [sp], #4
 402 0010 7047     		bx	lr
ARM GAS  C:\Users\SCOTTC~1\AppData\Local\Temp\ccs93tgd.s 			page 14


 403              	.L19:
 404 0012 00BF     		.align	2
 405              	.L18:
 406 0014 00E100E0 		.word	-536813312
 407              		.cfi_endproc
 408              	.LFE6:
 409              		.size	UART_EnableRxInt, .-UART_EnableRxInt
 410              		.section	.text.UART_DisableRxInt,"ax",%progbits
 411              		.align	2
 412              		.global	UART_DisableRxInt
 413              		.thumb
 414              		.thumb_func
 415              		.type	UART_DisableRxInt, %function
 416              	UART_DisableRxInt:
 417              	.LFB7:
 340:.\Generated_Source\PSoC5/UART.c **** 
 341:.\Generated_Source\PSoC5/UART.c **** 
 342:.\Generated_Source\PSoC5/UART.c ****         /*******************************************************************************
 343:.\Generated_Source\PSoC5/UART.c ****         * Function Name: UART_DisableRxInt
 344:.\Generated_Source\PSoC5/UART.c ****         ********************************************************************************
 345:.\Generated_Source\PSoC5/UART.c ****         *
 346:.\Generated_Source\PSoC5/UART.c ****         * Summary:
 347:.\Generated_Source\PSoC5/UART.c ****         *  Disable RX interrupt generation
 348:.\Generated_Source\PSoC5/UART.c ****         *
 349:.\Generated_Source\PSoC5/UART.c ****         * Parameters:
 350:.\Generated_Source\PSoC5/UART.c ****         *  None.
 351:.\Generated_Source\PSoC5/UART.c ****         *
 352:.\Generated_Source\PSoC5/UART.c ****         * Return:
 353:.\Generated_Source\PSoC5/UART.c ****         *  None.
 354:.\Generated_Source\PSoC5/UART.c ****         *
 355:.\Generated_Source\PSoC5/UART.c ****         * Theory:
 356:.\Generated_Source\PSoC5/UART.c ****         *  Disable the interrupt output -or- the interrupt component itself
 357:.\Generated_Source\PSoC5/UART.c ****         *
 358:.\Generated_Source\PSoC5/UART.c ****         *******************************************************************************/
 359:.\Generated_Source\PSoC5/UART.c ****         void UART_DisableRxInt(void) 
 360:.\Generated_Source\PSoC5/UART.c ****         {
 418              		.loc 1 360 0
 419              		.cfi_startproc
 420              		@ args = 0, pretend = 0, frame = 0
 421              		@ frame_needed = 1, uses_anonymous_args = 0
 422              		@ link register save eliminated.
 423 0000 80B4     		push	{r7}
 424              		.cfi_def_cfa_offset 4
 425              		.cfi_offset 7, -4
 426 0002 00AF     		add	r7, sp, #0
 427              		.cfi_def_cfa_register 7
 361:.\Generated_Source\PSoC5/UART.c ****             CyIntDisable(UART_RX_VECT_NUM);
 428              		.loc 1 361 0
 429 0004 034B     		ldr	r3, .L21
 430 0006 0122     		movs	r2, #1
 431 0008 1A60     		str	r2, [r3]
 362:.\Generated_Source\PSoC5/UART.c ****         }
 432              		.loc 1 362 0
 433 000a BD46     		mov	sp, r7
 434              		@ sp needed
 435 000c 5DF8047B 		ldr	r7, [sp], #4
 436 0010 7047     		bx	lr
ARM GAS  C:\Users\SCOTTC~1\AppData\Local\Temp\ccs93tgd.s 			page 15


 437              	.L22:
 438 0012 00BF     		.align	2
 439              	.L21:
 440 0014 80E100E0 		.word	-536813184
 441              		.cfi_endproc
 442              	.LFE7:
 443              		.size	UART_DisableRxInt, .-UART_DisableRxInt
 444              		.section	.text.UART_SetRxInterruptMode,"ax",%progbits
 445              		.align	2
 446              		.global	UART_SetRxInterruptMode
 447              		.thumb
 448              		.thumb_func
 449              		.type	UART_SetRxInterruptMode, %function
 450              	UART_SetRxInterruptMode:
 451              	.LFB8:
 363:.\Generated_Source\PSoC5/UART.c **** 
 364:.\Generated_Source\PSoC5/UART.c ****     #endif /* UART_RX_INTERRUPT_ENABLED */
 365:.\Generated_Source\PSoC5/UART.c **** 
 366:.\Generated_Source\PSoC5/UART.c **** 
 367:.\Generated_Source\PSoC5/UART.c ****     /*******************************************************************************
 368:.\Generated_Source\PSoC5/UART.c ****     * Function Name: UART_SetRxInterruptMode
 369:.\Generated_Source\PSoC5/UART.c ****     ********************************************************************************
 370:.\Generated_Source\PSoC5/UART.c ****     *
 371:.\Generated_Source\PSoC5/UART.c ****     * Summary:
 372:.\Generated_Source\PSoC5/UART.c ****     *  Configure which status bits trigger an interrupt event
 373:.\Generated_Source\PSoC5/UART.c ****     *
 374:.\Generated_Source\PSoC5/UART.c ****     * Parameters:
 375:.\Generated_Source\PSoC5/UART.c ****     *  IntSrc:  An or'd combination of the desired status bit masks (defined in
 376:.\Generated_Source\PSoC5/UART.c ****     *           the header file)
 377:.\Generated_Source\PSoC5/UART.c ****     *
 378:.\Generated_Source\PSoC5/UART.c ****     * Return:
 379:.\Generated_Source\PSoC5/UART.c ****     *  None.
 380:.\Generated_Source\PSoC5/UART.c ****     *
 381:.\Generated_Source\PSoC5/UART.c ****     * Theory:
 382:.\Generated_Source\PSoC5/UART.c ****     *  Enables the output of specific status bits to the interrupt controller
 383:.\Generated_Source\PSoC5/UART.c ****     *
 384:.\Generated_Source\PSoC5/UART.c ****     *******************************************************************************/
 385:.\Generated_Source\PSoC5/UART.c ****     void UART_SetRxInterruptMode(uint8 intSrc) 
 386:.\Generated_Source\PSoC5/UART.c ****     {
 452              		.loc 1 386 0
 453              		.cfi_startproc
 454              		@ args = 0, pretend = 0, frame = 8
 455              		@ frame_needed = 1, uses_anonymous_args = 0
 456              		@ link register save eliminated.
 457 0000 80B4     		push	{r7}
 458              		.cfi_def_cfa_offset 4
 459              		.cfi_offset 7, -4
 460 0002 83B0     		sub	sp, sp, #12
 461              		.cfi_def_cfa_offset 16
 462 0004 00AF     		add	r7, sp, #0
 463              		.cfi_def_cfa_register 7
 464 0006 0346     		mov	r3, r0
 465 0008 FB71     		strb	r3, [r7, #7]
 387:.\Generated_Source\PSoC5/UART.c ****         UART_RXSTATUS_MASK_REG  = intSrc;
 466              		.loc 1 387 0
 467 000a 044B     		ldr	r3, .L24
 468 000c FA79     		ldrb	r2, [r7, #7]
ARM GAS  C:\Users\SCOTTC~1\AppData\Local\Temp\ccs93tgd.s 			page 16


 469 000e 1A70     		strb	r2, [r3]
 388:.\Generated_Source\PSoC5/UART.c ****     }
 470              		.loc 1 388 0
 471 0010 0C37     		adds	r7, r7, #12
 472 0012 BD46     		mov	sp, r7
 473              		@ sp needed
 474 0014 5DF8047B 		ldr	r7, [sp], #4
 475 0018 7047     		bx	lr
 476              	.L25:
 477 001a 00BF     		.align	2
 478              	.L24:
 479 001c 83640040 		.word	1073767555
 480              		.cfi_endproc
 481              	.LFE8:
 482              		.size	UART_SetRxInterruptMode, .-UART_SetRxInterruptMode
 483              		.section	.text.UART_ReadRxData,"ax",%progbits
 484              		.align	2
 485              		.global	UART_ReadRxData
 486              		.thumb
 487              		.thumb_func
 488              		.type	UART_ReadRxData, %function
 489              	UART_ReadRxData:
 490              	.LFB9:
 389:.\Generated_Source\PSoC5/UART.c **** 
 390:.\Generated_Source\PSoC5/UART.c **** 
 391:.\Generated_Source\PSoC5/UART.c ****     /*******************************************************************************
 392:.\Generated_Source\PSoC5/UART.c ****     * Function Name: UART_ReadRxData
 393:.\Generated_Source\PSoC5/UART.c ****     ********************************************************************************
 394:.\Generated_Source\PSoC5/UART.c ****     *
 395:.\Generated_Source\PSoC5/UART.c ****     * Summary:
 396:.\Generated_Source\PSoC5/UART.c ****     *  Returns data in RX Data register without checking status register to
 397:.\Generated_Source\PSoC5/UART.c ****     *  determine if data is valid
 398:.\Generated_Source\PSoC5/UART.c ****     *
 399:.\Generated_Source\PSoC5/UART.c ****     * Parameters:
 400:.\Generated_Source\PSoC5/UART.c ****     *  None.
 401:.\Generated_Source\PSoC5/UART.c ****     *
 402:.\Generated_Source\PSoC5/UART.c ****     * Return:
 403:.\Generated_Source\PSoC5/UART.c ****     *  Received data from RX register
 404:.\Generated_Source\PSoC5/UART.c ****     *
 405:.\Generated_Source\PSoC5/UART.c ****     * Global Variables:
 406:.\Generated_Source\PSoC5/UART.c ****     *  UART_rxBuffer - RAM buffer pointer for save received data.
 407:.\Generated_Source\PSoC5/UART.c ****     *  UART_rxBufferWrite - cyclic index for write to rxBuffer,
 408:.\Generated_Source\PSoC5/UART.c ****     *     checked to identify new data.
 409:.\Generated_Source\PSoC5/UART.c ****     *  UART_rxBufferRead - cyclic index for read from rxBuffer,
 410:.\Generated_Source\PSoC5/UART.c ****     *     incremented after each byte has been read from buffer.
 411:.\Generated_Source\PSoC5/UART.c ****     *  UART_rxBufferLoopDetect - creared if loop condition was detected
 412:.\Generated_Source\PSoC5/UART.c ****     *     in RX ISR.
 413:.\Generated_Source\PSoC5/UART.c ****     *
 414:.\Generated_Source\PSoC5/UART.c ****     * Reentrant:
 415:.\Generated_Source\PSoC5/UART.c ****     *  No.
 416:.\Generated_Source\PSoC5/UART.c ****     *
 417:.\Generated_Source\PSoC5/UART.c ****     *******************************************************************************/
 418:.\Generated_Source\PSoC5/UART.c ****     uint8 UART_ReadRxData(void) 
 419:.\Generated_Source\PSoC5/UART.c ****     {
 491              		.loc 1 419 0
 492              		.cfi_startproc
 493              		@ args = 0, pretend = 0, frame = 8
ARM GAS  C:\Users\SCOTTC~1\AppData\Local\Temp\ccs93tgd.s 			page 17


 494              		@ frame_needed = 1, uses_anonymous_args = 0
 495 0000 80B5     		push	{r7, lr}
 496              		.cfi_def_cfa_offset 8
 497              		.cfi_offset 7, -8
 498              		.cfi_offset 14, -4
 499 0002 82B0     		sub	sp, sp, #8
 500              		.cfi_def_cfa_offset 16
 501 0004 00AF     		add	r7, sp, #0
 502              		.cfi_def_cfa_register 7
 420:.\Generated_Source\PSoC5/UART.c ****         uint8 rxData;
 421:.\Generated_Source\PSoC5/UART.c **** 
 422:.\Generated_Source\PSoC5/UART.c ****         #if(UART_RXBUFFERSIZE > UART_FIFO_LENGTH)
 423:.\Generated_Source\PSoC5/UART.c ****             uint8 loc_rxBufferRead;
 424:.\Generated_Source\PSoC5/UART.c ****             uint8 loc_rxBufferWrite;
 425:.\Generated_Source\PSoC5/UART.c ****             /* Protect variables that could change on interrupt. */
 426:.\Generated_Source\PSoC5/UART.c ****             /* Disable Rx interrupt. */
 427:.\Generated_Source\PSoC5/UART.c ****             #if(UART_RX_INTERRUPT_ENABLED)
 428:.\Generated_Source\PSoC5/UART.c ****                 UART_DisableRxInt();
 503              		.loc 1 428 0
 504 0006 FFF7FEFF 		bl	UART_DisableRxInt
 429:.\Generated_Source\PSoC5/UART.c ****             #endif /* UART_RX_INTERRUPT_ENABLED */
 430:.\Generated_Source\PSoC5/UART.c ****             loc_rxBufferRead = UART_rxBufferRead;
 505              		.loc 1 430 0
 506 000a 194B     		ldr	r3, .L33
 507 000c 1B78     		ldrb	r3, [r3]
 508 000e BB71     		strb	r3, [r7, #6]
 431:.\Generated_Source\PSoC5/UART.c ****             loc_rxBufferWrite = UART_rxBufferWrite;
 509              		.loc 1 431 0
 510 0010 184B     		ldr	r3, .L33+4
 511 0012 1B78     		ldrb	r3, [r3]
 512 0014 7B71     		strb	r3, [r7, #5]
 432:.\Generated_Source\PSoC5/UART.c **** 
 433:.\Generated_Source\PSoC5/UART.c ****             if( (UART_rxBufferLoopDetect != 0u) || (loc_rxBufferRead != loc_rxBufferWrite) )
 513              		.loc 1 433 0
 514 0016 184B     		ldr	r3, .L33+8
 515 0018 1B78     		ldrb	r3, [r3]
 516 001a DBB2     		uxtb	r3, r3
 517 001c 002B     		cmp	r3, #0
 518 001e 03D1     		bne	.L27
 519              		.loc 1 433 0 is_stmt 0 discriminator 1
 520 0020 BA79     		ldrb	r2, [r7, #6]	@ zero_extendqisi2
 521 0022 7B79     		ldrb	r3, [r7, #5]	@ zero_extendqisi2
 522 0024 9A42     		cmp	r2, r3
 523 0026 18D0     		beq	.L28
 524              	.L27:
 434:.\Generated_Source\PSoC5/UART.c ****             {
 435:.\Generated_Source\PSoC5/UART.c ****                 rxData = UART_rxBuffer[loc_rxBufferRead];
 525              		.loc 1 435 0 is_stmt 1
 526 0028 BB79     		ldrb	r3, [r7, #6]	@ zero_extendqisi2
 527 002a 144A     		ldr	r2, .L33+12
 528 002c D35C     		ldrb	r3, [r2, r3]
 529 002e FB71     		strb	r3, [r7, #7]
 436:.\Generated_Source\PSoC5/UART.c ****                 loc_rxBufferRead++;
 530              		.loc 1 436 0
 531 0030 BB79     		ldrb	r3, [r7, #6]	@ zero_extendqisi2
 532 0032 0133     		adds	r3, r3, #1
 533 0034 BB71     		strb	r3, [r7, #6]
ARM GAS  C:\Users\SCOTTC~1\AppData\Local\Temp\ccs93tgd.s 			page 18


 437:.\Generated_Source\PSoC5/UART.c **** 
 438:.\Generated_Source\PSoC5/UART.c ****                 if(loc_rxBufferRead >= UART_RXBUFFERSIZE)
 534              		.loc 1 438 0
 535 0036 BB79     		ldrb	r3, [r7, #6]	@ zero_extendqisi2
 536 0038 FF2B     		cmp	r3, #255
 537 003a 01D1     		bne	.L29
 439:.\Generated_Source\PSoC5/UART.c ****                 {
 440:.\Generated_Source\PSoC5/UART.c ****                     loc_rxBufferRead = 0u;
 538              		.loc 1 440 0
 539 003c 0023     		movs	r3, #0
 540 003e BB71     		strb	r3, [r7, #6]
 541              	.L29:
 441:.\Generated_Source\PSoC5/UART.c ****                 }
 442:.\Generated_Source\PSoC5/UART.c ****                 /* Update the real pointer */
 443:.\Generated_Source\PSoC5/UART.c ****                 UART_rxBufferRead = loc_rxBufferRead;
 542              		.loc 1 443 0
 543 0040 0B4B     		ldr	r3, .L33
 544 0042 BA79     		ldrb	r2, [r7, #6]
 545 0044 1A70     		strb	r2, [r3]
 444:.\Generated_Source\PSoC5/UART.c **** 
 445:.\Generated_Source\PSoC5/UART.c ****                 if(UART_rxBufferLoopDetect != 0u )
 546              		.loc 1 445 0
 547 0046 0C4B     		ldr	r3, .L33+8
 548 0048 1B78     		ldrb	r3, [r3]
 549 004a DBB2     		uxtb	r3, r3
 550 004c 002B     		cmp	r3, #0
 551 004e 03D0     		beq	.L30
 446:.\Generated_Source\PSoC5/UART.c ****                 {
 447:.\Generated_Source\PSoC5/UART.c ****                     UART_rxBufferLoopDetect = 0u;
 552              		.loc 1 447 0
 553 0050 094B     		ldr	r3, .L33+8
 554 0052 0022     		movs	r2, #0
 555 0054 1A70     		strb	r2, [r3]
 445:.\Generated_Source\PSoC5/UART.c ****                 if(UART_rxBufferLoopDetect != 0u )
 556              		.loc 1 445 0
 557 0056 03E0     		b	.L31
 558              	.L30:
 445:.\Generated_Source\PSoC5/UART.c ****                 if(UART_rxBufferLoopDetect != 0u )
 559              		.loc 1 445 0 is_stmt 0 discriminator 1
 560 0058 02E0     		b	.L31
 561              	.L28:
 448:.\Generated_Source\PSoC5/UART.c ****                     #if( (UART_RX_INTERRUPT_ENABLED) && (UART_FLOW_CONTROL != 0u) && \
 449:.\Generated_Source\PSoC5/UART.c ****                          (UART_RXBUFFERSIZE > UART_FIFO_LENGTH) )
 450:.\Generated_Source\PSoC5/UART.c ****                         /* When Hardware Flow Control selected - return RX mask */
 451:.\Generated_Source\PSoC5/UART.c ****                         #if( UART_HD_ENABLED )
 452:.\Generated_Source\PSoC5/UART.c ****                             if((UART_CONTROL_REG & UART_CTRL_HD_SEND) == 0u)
 453:.\Generated_Source\PSoC5/UART.c ****                             {   /* In Half duplex mode return RX mask only in RX
 454:.\Generated_Source\PSoC5/UART.c ****                                 *  configuration set, otherwise
 455:.\Generated_Source\PSoC5/UART.c ****                                 *  mask will be returned in LoadRxConfig() API.
 456:.\Generated_Source\PSoC5/UART.c ****                                 */
 457:.\Generated_Source\PSoC5/UART.c ****                                 UART_RXSTATUS_MASK_REG  |= UART_RX_STS_FIFO_NOTEMPTY;
 458:.\Generated_Source\PSoC5/UART.c ****                             }
 459:.\Generated_Source\PSoC5/UART.c ****                         #else
 460:.\Generated_Source\PSoC5/UART.c ****                             UART_RXSTATUS_MASK_REG  |= UART_RX_STS_FIFO_NOTEMPTY;
 461:.\Generated_Source\PSoC5/UART.c ****                         #endif /* end UART_HD_ENABLED */
 462:.\Generated_Source\PSoC5/UART.c ****                     #endif /* UART_RX_INTERRUPT_ENABLED and Hardware flow control*/
 463:.\Generated_Source\PSoC5/UART.c ****                 }
ARM GAS  C:\Users\SCOTTC~1\AppData\Local\Temp\ccs93tgd.s 			page 19


 464:.\Generated_Source\PSoC5/UART.c ****             }
 465:.\Generated_Source\PSoC5/UART.c ****             else
 466:.\Generated_Source\PSoC5/UART.c ****             {   /* Needs to check status for RX_STS_FIFO_NOTEMPTY bit*/
 467:.\Generated_Source\PSoC5/UART.c ****                 rxData = UART_RXDATA_REG;
 562              		.loc 1 467 0 is_stmt 1
 563 005a 094B     		ldr	r3, .L33+16
 564 005c 1B78     		ldrb	r3, [r3]
 565 005e FB71     		strb	r3, [r7, #7]
 566              	.L31:
 468:.\Generated_Source\PSoC5/UART.c ****             }
 469:.\Generated_Source\PSoC5/UART.c **** 
 470:.\Generated_Source\PSoC5/UART.c ****             /* Enable Rx interrupt. */
 471:.\Generated_Source\PSoC5/UART.c ****             #if(UART_RX_INTERRUPT_ENABLED)
 472:.\Generated_Source\PSoC5/UART.c ****                 UART_EnableRxInt();
 567              		.loc 1 472 0
 568 0060 FFF7FEFF 		bl	UART_EnableRxInt
 473:.\Generated_Source\PSoC5/UART.c ****             #endif /* End UART_RX_INTERRUPT_ENABLED */
 474:.\Generated_Source\PSoC5/UART.c **** 
 475:.\Generated_Source\PSoC5/UART.c ****         #else /* UART_RXBUFFERSIZE > UART_FIFO_LENGTH */
 476:.\Generated_Source\PSoC5/UART.c **** 
 477:.\Generated_Source\PSoC5/UART.c ****             /* Needs to check status for RX_STS_FIFO_NOTEMPTY bit*/
 478:.\Generated_Source\PSoC5/UART.c ****             rxData = UART_RXDATA_REG;
 479:.\Generated_Source\PSoC5/UART.c **** 
 480:.\Generated_Source\PSoC5/UART.c ****         #endif /* UART_RXBUFFERSIZE > UART_FIFO_LENGTH */
 481:.\Generated_Source\PSoC5/UART.c **** 
 482:.\Generated_Source\PSoC5/UART.c ****         return(rxData);
 569              		.loc 1 482 0
 570 0064 FB79     		ldrb	r3, [r7, #7]	@ zero_extendqisi2
 483:.\Generated_Source\PSoC5/UART.c ****     }
 571              		.loc 1 483 0
 572 0066 1846     		mov	r0, r3
 573 0068 0837     		adds	r7, r7, #8
 574 006a BD46     		mov	sp, r7
 575              		@ sp needed
 576 006c 80BD     		pop	{r7, pc}
 577              	.L34:
 578 006e 00BF     		.align	2
 579              	.L33:
 580 0070 00000000 		.word	UART_rxBufferRead
 581 0074 00000000 		.word	UART_rxBufferWrite
 582 0078 00000000 		.word	UART_rxBufferLoopDetect
 583 007c 00000000 		.word	UART_rxBuffer
 584 0080 44640040 		.word	1073767492
 585              		.cfi_endproc
 586              	.LFE9:
 587              		.size	UART_ReadRxData, .-UART_ReadRxData
 588              		.section	.text.UART_ReadRxStatus,"ax",%progbits
 589              		.align	2
 590              		.global	UART_ReadRxStatus
 591              		.thumb
 592              		.thumb_func
 593              		.type	UART_ReadRxStatus, %function
 594              	UART_ReadRxStatus:
 595              	.LFB10:
 484:.\Generated_Source\PSoC5/UART.c **** 
 485:.\Generated_Source\PSoC5/UART.c **** 
 486:.\Generated_Source\PSoC5/UART.c ****     /*******************************************************************************
ARM GAS  C:\Users\SCOTTC~1\AppData\Local\Temp\ccs93tgd.s 			page 20


 487:.\Generated_Source\PSoC5/UART.c ****     * Function Name: UART_ReadRxStatus
 488:.\Generated_Source\PSoC5/UART.c ****     ********************************************************************************
 489:.\Generated_Source\PSoC5/UART.c ****     *
 490:.\Generated_Source\PSoC5/UART.c ****     * Summary:
 491:.\Generated_Source\PSoC5/UART.c ****     *  Read the current state of the status register
 492:.\Generated_Source\PSoC5/UART.c ****     *  And detect software buffer overflow.
 493:.\Generated_Source\PSoC5/UART.c ****     *
 494:.\Generated_Source\PSoC5/UART.c ****     * Parameters:
 495:.\Generated_Source\PSoC5/UART.c ****     *  None.
 496:.\Generated_Source\PSoC5/UART.c ****     *
 497:.\Generated_Source\PSoC5/UART.c ****     * Return:
 498:.\Generated_Source\PSoC5/UART.c ****     *  Current state of the status register.
 499:.\Generated_Source\PSoC5/UART.c ****     *
 500:.\Generated_Source\PSoC5/UART.c ****     * Global Variables:
 501:.\Generated_Source\PSoC5/UART.c ****     *  UART_rxBufferOverflow - used to indicate overload condition.
 502:.\Generated_Source\PSoC5/UART.c ****     *   It set to one in RX interrupt when there isn?t free space in
 503:.\Generated_Source\PSoC5/UART.c ****     *   UART_rxBufferRead to write new data. This condition returned
 504:.\Generated_Source\PSoC5/UART.c ****     *   and cleared to zero by this API as an
 505:.\Generated_Source\PSoC5/UART.c ****     *   UART_RX_STS_SOFT_BUFF_OVER bit along with RX Status register
 506:.\Generated_Source\PSoC5/UART.c ****     *   bits.
 507:.\Generated_Source\PSoC5/UART.c ****     *
 508:.\Generated_Source\PSoC5/UART.c ****     *******************************************************************************/
 509:.\Generated_Source\PSoC5/UART.c ****     uint8 UART_ReadRxStatus(void) 
 510:.\Generated_Source\PSoC5/UART.c ****     {
 596              		.loc 1 510 0
 597              		.cfi_startproc
 598              		@ args = 0, pretend = 0, frame = 8
 599              		@ frame_needed = 1, uses_anonymous_args = 0
 600              		@ link register save eliminated.
 601 0000 80B4     		push	{r7}
 602              		.cfi_def_cfa_offset 4
 603              		.cfi_offset 7, -4
 604 0002 83B0     		sub	sp, sp, #12
 605              		.cfi_def_cfa_offset 16
 606 0004 00AF     		add	r7, sp, #0
 607              		.cfi_def_cfa_register 7
 511:.\Generated_Source\PSoC5/UART.c ****         uint8 status;
 512:.\Generated_Source\PSoC5/UART.c **** 
 513:.\Generated_Source\PSoC5/UART.c ****         status = UART_RXSTATUS_REG & UART_RX_HW_MASK;
 608              		.loc 1 513 0
 609 0006 0C4B     		ldr	r3, .L38
 610 0008 1B78     		ldrb	r3, [r3]
 611 000a DBB2     		uxtb	r3, r3
 612 000c 03F07F03 		and	r3, r3, #127
 613 0010 FB71     		strb	r3, [r7, #7]
 514:.\Generated_Source\PSoC5/UART.c **** 
 515:.\Generated_Source\PSoC5/UART.c ****         #if(UART_RXBUFFERSIZE > UART_FIFO_LENGTH)
 516:.\Generated_Source\PSoC5/UART.c ****             if( UART_rxBufferOverflow != 0u )
 614              		.loc 1 516 0
 615 0012 0A4B     		ldr	r3, .L38+4
 616 0014 1B78     		ldrb	r3, [r3]
 617 0016 DBB2     		uxtb	r3, r3
 618 0018 002B     		cmp	r3, #0
 619 001a 06D0     		beq	.L36
 517:.\Generated_Source\PSoC5/UART.c ****             {
 518:.\Generated_Source\PSoC5/UART.c ****                 status |= UART_RX_STS_SOFT_BUFF_OVER;
 620              		.loc 1 518 0
ARM GAS  C:\Users\SCOTTC~1\AppData\Local\Temp\ccs93tgd.s 			page 21


 621 001c FB79     		ldrb	r3, [r7, #7]
 622 001e 63F07F03 		orn	r3, r3, #127
 623 0022 FB71     		strb	r3, [r7, #7]
 519:.\Generated_Source\PSoC5/UART.c ****                 UART_rxBufferOverflow = 0u;
 624              		.loc 1 519 0
 625 0024 054B     		ldr	r3, .L38+4
 626 0026 0022     		movs	r2, #0
 627 0028 1A70     		strb	r2, [r3]
 628              	.L36:
 520:.\Generated_Source\PSoC5/UART.c ****             }
 521:.\Generated_Source\PSoC5/UART.c ****         #endif /* UART_RXBUFFERSIZE */
 522:.\Generated_Source\PSoC5/UART.c **** 
 523:.\Generated_Source\PSoC5/UART.c ****         return(status);
 629              		.loc 1 523 0
 630 002a FB79     		ldrb	r3, [r7, #7]	@ zero_extendqisi2
 524:.\Generated_Source\PSoC5/UART.c ****     }
 631              		.loc 1 524 0
 632 002c 1846     		mov	r0, r3
 633 002e 0C37     		adds	r7, r7, #12
 634 0030 BD46     		mov	sp, r7
 635              		@ sp needed
 636 0032 5DF8047B 		ldr	r7, [sp], #4
 637 0036 7047     		bx	lr
 638              	.L39:
 639              		.align	2
 640              	.L38:
 641 0038 63640040 		.word	1073767523
 642 003c 00000000 		.word	UART_rxBufferOverflow
 643              		.cfi_endproc
 644              	.LFE10:
 645              		.size	UART_ReadRxStatus, .-UART_ReadRxStatus
 646              		.section	.text.UART_GetChar,"ax",%progbits
 647              		.align	2
 648              		.global	UART_GetChar
 649              		.thumb
 650              		.thumb_func
 651              		.type	UART_GetChar, %function
 652              	UART_GetChar:
 653              	.LFB11:
 525:.\Generated_Source\PSoC5/UART.c **** 
 526:.\Generated_Source\PSoC5/UART.c **** 
 527:.\Generated_Source\PSoC5/UART.c ****     /*******************************************************************************
 528:.\Generated_Source\PSoC5/UART.c ****     * Function Name: UART_GetChar
 529:.\Generated_Source\PSoC5/UART.c ****     ********************************************************************************
 530:.\Generated_Source\PSoC5/UART.c ****     *
 531:.\Generated_Source\PSoC5/UART.c ****     * Summary:
 532:.\Generated_Source\PSoC5/UART.c ****     *  Reads UART RX buffer immediately, if data is not available or an error
 533:.\Generated_Source\PSoC5/UART.c ****     *  condition exists, zero is returned; otherwise, character is read and
 534:.\Generated_Source\PSoC5/UART.c ****     *  returned.
 535:.\Generated_Source\PSoC5/UART.c ****     *
 536:.\Generated_Source\PSoC5/UART.c ****     * Parameters:
 537:.\Generated_Source\PSoC5/UART.c ****     *  None.
 538:.\Generated_Source\PSoC5/UART.c ****     *
 539:.\Generated_Source\PSoC5/UART.c ****     * Return:
 540:.\Generated_Source\PSoC5/UART.c ****     *  Character read from UART RX buffer. ASCII characters from 1 to 255 are valid.
 541:.\Generated_Source\PSoC5/UART.c ****     *  A returned zero signifies an error condition or no data available.
 542:.\Generated_Source\PSoC5/UART.c ****     *
ARM GAS  C:\Users\SCOTTC~1\AppData\Local\Temp\ccs93tgd.s 			page 22


 543:.\Generated_Source\PSoC5/UART.c ****     * Global Variables:
 544:.\Generated_Source\PSoC5/UART.c ****     *  UART_rxBuffer - RAM buffer pointer for save received data.
 545:.\Generated_Source\PSoC5/UART.c ****     *  UART_rxBufferWrite - cyclic index for write to rxBuffer,
 546:.\Generated_Source\PSoC5/UART.c ****     *     checked to identify new data.
 547:.\Generated_Source\PSoC5/UART.c ****     *  UART_rxBufferRead - cyclic index for read from rxBuffer,
 548:.\Generated_Source\PSoC5/UART.c ****     *     incremented after each byte has been read from buffer.
 549:.\Generated_Source\PSoC5/UART.c ****     *  UART_rxBufferLoopDetect - creared if loop condition was detected
 550:.\Generated_Source\PSoC5/UART.c ****     *     in RX ISR.
 551:.\Generated_Source\PSoC5/UART.c ****     *
 552:.\Generated_Source\PSoC5/UART.c ****     * Reentrant:
 553:.\Generated_Source\PSoC5/UART.c ****     *  No.
 554:.\Generated_Source\PSoC5/UART.c ****     *
 555:.\Generated_Source\PSoC5/UART.c ****     *******************************************************************************/
 556:.\Generated_Source\PSoC5/UART.c ****     uint8 UART_GetChar(void) 
 557:.\Generated_Source\PSoC5/UART.c ****     {
 654              		.loc 1 557 0
 655              		.cfi_startproc
 656              		@ args = 0, pretend = 0, frame = 8
 657              		@ frame_needed = 1, uses_anonymous_args = 0
 658 0000 80B5     		push	{r7, lr}
 659              		.cfi_def_cfa_offset 8
 660              		.cfi_offset 7, -8
 661              		.cfi_offset 14, -4
 662 0002 82B0     		sub	sp, sp, #8
 663              		.cfi_def_cfa_offset 16
 664 0004 00AF     		add	r7, sp, #0
 665              		.cfi_def_cfa_register 7
 558:.\Generated_Source\PSoC5/UART.c ****         uint8 rxData = 0u;
 666              		.loc 1 558 0
 667 0006 0023     		movs	r3, #0
 668 0008 FB71     		strb	r3, [r7, #7]
 559:.\Generated_Source\PSoC5/UART.c ****         uint8 rxStatus;
 560:.\Generated_Source\PSoC5/UART.c **** 
 561:.\Generated_Source\PSoC5/UART.c ****         #if(UART_RXBUFFERSIZE > UART_FIFO_LENGTH)
 562:.\Generated_Source\PSoC5/UART.c ****             uint8 loc_rxBufferRead;
 563:.\Generated_Source\PSoC5/UART.c ****             uint8 loc_rxBufferWrite;
 564:.\Generated_Source\PSoC5/UART.c ****             /* Protect variables that could change on interrupt. */
 565:.\Generated_Source\PSoC5/UART.c ****             /* Disable Rx interrupt. */
 566:.\Generated_Source\PSoC5/UART.c ****             #if(UART_RX_INTERRUPT_ENABLED)
 567:.\Generated_Source\PSoC5/UART.c ****                 UART_DisableRxInt();
 669              		.loc 1 567 0
 670 000a FFF7FEFF 		bl	UART_DisableRxInt
 568:.\Generated_Source\PSoC5/UART.c ****             #endif /* UART_RX_INTERRUPT_ENABLED */
 569:.\Generated_Source\PSoC5/UART.c ****             loc_rxBufferRead = UART_rxBufferRead;
 671              		.loc 1 569 0
 672 000e 204B     		ldr	r3, .L47
 673 0010 1B78     		ldrb	r3, [r3]
 674 0012 BB71     		strb	r3, [r7, #6]
 570:.\Generated_Source\PSoC5/UART.c ****             loc_rxBufferWrite = UART_rxBufferWrite;
 675              		.loc 1 570 0
 676 0014 1F4B     		ldr	r3, .L47+4
 677 0016 1B78     		ldrb	r3, [r3]
 678 0018 7B71     		strb	r3, [r7, #5]
 571:.\Generated_Source\PSoC5/UART.c **** 
 572:.\Generated_Source\PSoC5/UART.c ****             if( (UART_rxBufferLoopDetect != 0u) || (loc_rxBufferRead != loc_rxBufferWrite) )
 679              		.loc 1 572 0
 680 001a 1F4B     		ldr	r3, .L47+8
ARM GAS  C:\Users\SCOTTC~1\AppData\Local\Temp\ccs93tgd.s 			page 23


 681 001c 1B78     		ldrb	r3, [r3]
 682 001e DBB2     		uxtb	r3, r3
 683 0020 002B     		cmp	r3, #0
 684 0022 03D1     		bne	.L41
 685              		.loc 1 572 0 is_stmt 0 discriminator 1
 686 0024 BA79     		ldrb	r2, [r7, #6]	@ zero_extendqisi2
 687 0026 7B79     		ldrb	r3, [r7, #5]	@ zero_extendqisi2
 688 0028 9A42     		cmp	r2, r3
 689 002a 18D0     		beq	.L42
 690              	.L41:
 573:.\Generated_Source\PSoC5/UART.c ****             {
 574:.\Generated_Source\PSoC5/UART.c ****                 rxData = UART_rxBuffer[loc_rxBufferRead];
 691              		.loc 1 574 0 is_stmt 1
 692 002c BB79     		ldrb	r3, [r7, #6]	@ zero_extendqisi2
 693 002e 1B4A     		ldr	r2, .L47+12
 694 0030 D35C     		ldrb	r3, [r2, r3]
 695 0032 FB71     		strb	r3, [r7, #7]
 575:.\Generated_Source\PSoC5/UART.c ****                 loc_rxBufferRead++;
 696              		.loc 1 575 0
 697 0034 BB79     		ldrb	r3, [r7, #6]	@ zero_extendqisi2
 698 0036 0133     		adds	r3, r3, #1
 699 0038 BB71     		strb	r3, [r7, #6]
 576:.\Generated_Source\PSoC5/UART.c ****                 if(loc_rxBufferRead >= UART_RXBUFFERSIZE)
 700              		.loc 1 576 0
 701 003a BB79     		ldrb	r3, [r7, #6]	@ zero_extendqisi2
 702 003c FF2B     		cmp	r3, #255
 703 003e 01D1     		bne	.L43
 577:.\Generated_Source\PSoC5/UART.c ****                 {
 578:.\Generated_Source\PSoC5/UART.c ****                     loc_rxBufferRead = 0u;
 704              		.loc 1 578 0
 705 0040 0023     		movs	r3, #0
 706 0042 BB71     		strb	r3, [r7, #6]
 707              	.L43:
 579:.\Generated_Source\PSoC5/UART.c ****                 }
 580:.\Generated_Source\PSoC5/UART.c ****                 /* Update the real pointer */
 581:.\Generated_Source\PSoC5/UART.c ****                 UART_rxBufferRead = loc_rxBufferRead;
 708              		.loc 1 581 0
 709 0044 124B     		ldr	r3, .L47
 710 0046 BA79     		ldrb	r2, [r7, #6]
 711 0048 1A70     		strb	r2, [r3]
 582:.\Generated_Source\PSoC5/UART.c **** 
 583:.\Generated_Source\PSoC5/UART.c ****                 if(UART_rxBufferLoopDetect > 0u )
 712              		.loc 1 583 0
 713 004a 134B     		ldr	r3, .L47+8
 714 004c 1B78     		ldrb	r3, [r3]
 715 004e DBB2     		uxtb	r3, r3
 716 0050 002B     		cmp	r3, #0
 717 0052 03D0     		beq	.L44
 584:.\Generated_Source\PSoC5/UART.c ****                 {
 585:.\Generated_Source\PSoC5/UART.c ****                     UART_rxBufferLoopDetect = 0u;
 718              		.loc 1 585 0
 719 0054 104B     		ldr	r3, .L47+8
 720 0056 0022     		movs	r2, #0
 721 0058 1A70     		strb	r2, [r3]
 583:.\Generated_Source\PSoC5/UART.c ****                 if(UART_rxBufferLoopDetect > 0u )
 722              		.loc 1 583 0
 723 005a 12E0     		b	.L45
ARM GAS  C:\Users\SCOTTC~1\AppData\Local\Temp\ccs93tgd.s 			page 24


 724              	.L44:
 583:.\Generated_Source\PSoC5/UART.c ****                 if(UART_rxBufferLoopDetect > 0u )
 725              		.loc 1 583 0 is_stmt 0 discriminator 1
 726 005c 11E0     		b	.L45
 727              	.L42:
 586:.\Generated_Source\PSoC5/UART.c ****                     #if( (UART_RX_INTERRUPT_ENABLED) && (UART_FLOW_CONTROL != 0u) )
 587:.\Generated_Source\PSoC5/UART.c ****                         /* When Hardware Flow Control selected - return RX mask */
 588:.\Generated_Source\PSoC5/UART.c ****                         #if( UART_HD_ENABLED )
 589:.\Generated_Source\PSoC5/UART.c ****                             if((UART_CONTROL_REG & UART_CTRL_HD_SEND) == 0u)
 590:.\Generated_Source\PSoC5/UART.c ****                             {   /* In Half duplex mode return RX mask only if
 591:.\Generated_Source\PSoC5/UART.c ****                                 *  RX configuration set, otherwise
 592:.\Generated_Source\PSoC5/UART.c ****                                 *  mask will be returned in LoadRxConfig() API.
 593:.\Generated_Source\PSoC5/UART.c ****                                 */
 594:.\Generated_Source\PSoC5/UART.c ****                                 UART_RXSTATUS_MASK_REG  |= UART_RX_STS_FIFO_NOTEMPTY;
 595:.\Generated_Source\PSoC5/UART.c ****                             }
 596:.\Generated_Source\PSoC5/UART.c ****                         #else
 597:.\Generated_Source\PSoC5/UART.c ****                             UART_RXSTATUS_MASK_REG  |= UART_RX_STS_FIFO_NOTEMPTY;
 598:.\Generated_Source\PSoC5/UART.c ****                         #endif /* end UART_HD_ENABLED */
 599:.\Generated_Source\PSoC5/UART.c ****                     #endif /* UART_RX_INTERRUPT_ENABLED and Hardware flow control*/
 600:.\Generated_Source\PSoC5/UART.c ****                 }
 601:.\Generated_Source\PSoC5/UART.c **** 
 602:.\Generated_Source\PSoC5/UART.c ****             }
 603:.\Generated_Source\PSoC5/UART.c ****             else
 604:.\Generated_Source\PSoC5/UART.c ****             {   rxStatus = UART_RXSTATUS_REG;
 728              		.loc 1 604 0 is_stmt 1
 729 005e 104B     		ldr	r3, .L47+16
 730 0060 1B78     		ldrb	r3, [r3]
 731 0062 3B71     		strb	r3, [r7, #4]
 605:.\Generated_Source\PSoC5/UART.c ****                 if((rxStatus & UART_RX_STS_FIFO_NOTEMPTY) != 0u)
 732              		.loc 1 605 0
 733 0064 3B79     		ldrb	r3, [r7, #4]	@ zero_extendqisi2
 734 0066 03F02003 		and	r3, r3, #32
 735 006a 002B     		cmp	r3, #0
 736 006c 09D0     		beq	.L45
 606:.\Generated_Source\PSoC5/UART.c ****                 {   /* Read received data from FIFO*/
 607:.\Generated_Source\PSoC5/UART.c ****                     rxData = UART_RXDATA_REG;
 737              		.loc 1 607 0
 738 006e 0D4B     		ldr	r3, .L47+20
 739 0070 1B78     		ldrb	r3, [r3]
 740 0072 FB71     		strb	r3, [r7, #7]
 608:.\Generated_Source\PSoC5/UART.c ****                     /*Check status on error*/
 609:.\Generated_Source\PSoC5/UART.c ****                     if((rxStatus & (UART_RX_STS_BREAK | UART_RX_STS_PAR_ERROR |
 610:.\Generated_Source\PSoC5/UART.c ****                                    UART_RX_STS_STOP_ERROR | UART_RX_STS_OVERRUN)) != 0u)
 741              		.loc 1 610 0
 742 0074 3B79     		ldrb	r3, [r7, #4]	@ zero_extendqisi2
 743 0076 03F01E03 		and	r3, r3, #30
 609:.\Generated_Source\PSoC5/UART.c ****                     if((rxStatus & (UART_RX_STS_BREAK | UART_RX_STS_PAR_ERROR |
 744              		.loc 1 609 0
 745 007a 002B     		cmp	r3, #0
 746 007c 01D0     		beq	.L45
 611:.\Generated_Source\PSoC5/UART.c ****                     {
 612:.\Generated_Source\PSoC5/UART.c ****                         rxData = 0u;
 747              		.loc 1 612 0
 748 007e 0023     		movs	r3, #0
 749 0080 FB71     		strb	r3, [r7, #7]
 750              	.L45:
 613:.\Generated_Source\PSoC5/UART.c ****                     }
ARM GAS  C:\Users\SCOTTC~1\AppData\Local\Temp\ccs93tgd.s 			page 25


 614:.\Generated_Source\PSoC5/UART.c ****                 }
 615:.\Generated_Source\PSoC5/UART.c ****             }
 616:.\Generated_Source\PSoC5/UART.c **** 
 617:.\Generated_Source\PSoC5/UART.c ****             /* Enable Rx interrupt. */
 618:.\Generated_Source\PSoC5/UART.c ****             #if(UART_RX_INTERRUPT_ENABLED)
 619:.\Generated_Source\PSoC5/UART.c ****                 UART_EnableRxInt();
 751              		.loc 1 619 0
 752 0082 FFF7FEFF 		bl	UART_EnableRxInt
 620:.\Generated_Source\PSoC5/UART.c ****             #endif /* UART_RX_INTERRUPT_ENABLED */
 621:.\Generated_Source\PSoC5/UART.c **** 
 622:.\Generated_Source\PSoC5/UART.c ****         #else /* UART_RXBUFFERSIZE > UART_FIFO_LENGTH */
 623:.\Generated_Source\PSoC5/UART.c **** 
 624:.\Generated_Source\PSoC5/UART.c ****             rxStatus =UART_RXSTATUS_REG;
 625:.\Generated_Source\PSoC5/UART.c ****             if((rxStatus & UART_RX_STS_FIFO_NOTEMPTY) != 0u)
 626:.\Generated_Source\PSoC5/UART.c ****             {   /* Read received data from FIFO*/
 627:.\Generated_Source\PSoC5/UART.c ****                 rxData = UART_RXDATA_REG;
 628:.\Generated_Source\PSoC5/UART.c ****                 /*Check status on error*/
 629:.\Generated_Source\PSoC5/UART.c ****                 if((rxStatus & (UART_RX_STS_BREAK | UART_RX_STS_PAR_ERROR |
 630:.\Generated_Source\PSoC5/UART.c ****                                UART_RX_STS_STOP_ERROR | UART_RX_STS_OVERRUN)) != 0u)
 631:.\Generated_Source\PSoC5/UART.c ****                 {
 632:.\Generated_Source\PSoC5/UART.c ****                     rxData = 0u;
 633:.\Generated_Source\PSoC5/UART.c ****                 }
 634:.\Generated_Source\PSoC5/UART.c ****             }
 635:.\Generated_Source\PSoC5/UART.c ****         #endif /* UART_RXBUFFERSIZE > UART_FIFO_LENGTH */
 636:.\Generated_Source\PSoC5/UART.c **** 
 637:.\Generated_Source\PSoC5/UART.c ****         return(rxData);
 753              		.loc 1 637 0
 754 0086 FB79     		ldrb	r3, [r7, #7]	@ zero_extendqisi2
 638:.\Generated_Source\PSoC5/UART.c ****     }
 755              		.loc 1 638 0
 756 0088 1846     		mov	r0, r3
 757 008a 0837     		adds	r7, r7, #8
 758 008c BD46     		mov	sp, r7
 759              		@ sp needed
 760 008e 80BD     		pop	{r7, pc}
 761              	.L48:
 762              		.align	2
 763              	.L47:
 764 0090 00000000 		.word	UART_rxBufferRead
 765 0094 00000000 		.word	UART_rxBufferWrite
 766 0098 00000000 		.word	UART_rxBufferLoopDetect
 767 009c 00000000 		.word	UART_rxBuffer
 768 00a0 63640040 		.word	1073767523
 769 00a4 44640040 		.word	1073767492
 770              		.cfi_endproc
 771              	.LFE11:
 772              		.size	UART_GetChar, .-UART_GetChar
 773              		.section	.text.UART_GetByte,"ax",%progbits
 774              		.align	2
 775              		.global	UART_GetByte
 776              		.thumb
 777              		.thumb_func
 778              		.type	UART_GetByte, %function
 779              	UART_GetByte:
 780              	.LFB12:
 639:.\Generated_Source\PSoC5/UART.c **** 
 640:.\Generated_Source\PSoC5/UART.c **** 
ARM GAS  C:\Users\SCOTTC~1\AppData\Local\Temp\ccs93tgd.s 			page 26


 641:.\Generated_Source\PSoC5/UART.c ****     /*******************************************************************************
 642:.\Generated_Source\PSoC5/UART.c ****     * Function Name: UART_GetByte
 643:.\Generated_Source\PSoC5/UART.c ****     ********************************************************************************
 644:.\Generated_Source\PSoC5/UART.c ****     *
 645:.\Generated_Source\PSoC5/UART.c ****     * Summary:
 646:.\Generated_Source\PSoC5/UART.c ****     *  Grab the next available byte of data from the recieve FIFO
 647:.\Generated_Source\PSoC5/UART.c ****     *
 648:.\Generated_Source\PSoC5/UART.c ****     * Parameters:
 649:.\Generated_Source\PSoC5/UART.c ****     *  None.
 650:.\Generated_Source\PSoC5/UART.c ****     *
 651:.\Generated_Source\PSoC5/UART.c ****     * Return:
 652:.\Generated_Source\PSoC5/UART.c ****     *  MSB contains Status Register and LSB contains UART RX data
 653:.\Generated_Source\PSoC5/UART.c ****     *
 654:.\Generated_Source\PSoC5/UART.c ****     * Reentrant:
 655:.\Generated_Source\PSoC5/UART.c ****     *  No.
 656:.\Generated_Source\PSoC5/UART.c ****     *
 657:.\Generated_Source\PSoC5/UART.c ****     *******************************************************************************/
 658:.\Generated_Source\PSoC5/UART.c ****     uint16 UART_GetByte(void) 
 659:.\Generated_Source\PSoC5/UART.c ****     {
 781              		.loc 1 659 0
 782              		.cfi_startproc
 783              		@ args = 0, pretend = 0, frame = 0
 784              		@ frame_needed = 1, uses_anonymous_args = 0
 785 0000 98B5     		push	{r3, r4, r7, lr}
 786              		.cfi_def_cfa_offset 16
 787              		.cfi_offset 3, -16
 788              		.cfi_offset 4, -12
 789              		.cfi_offset 7, -8
 790              		.cfi_offset 14, -4
 791 0002 00AF     		add	r7, sp, #0
 792              		.cfi_def_cfa_register 7
 660:.\Generated_Source\PSoC5/UART.c ****         return ( ((uint16)UART_ReadRxStatus() << 8u) | UART_ReadRxData() );
 793              		.loc 1 660 0
 794 0004 FFF7FEFF 		bl	UART_ReadRxStatus
 795 0008 0346     		mov	r3, r0
 796 000a 1B02     		lsls	r3, r3, #8
 797 000c 9CB2     		uxth	r4, r3
 798 000e FFF7FEFF 		bl	UART_ReadRxData
 799 0012 0346     		mov	r3, r0
 800 0014 2246     		mov	r2, r4	@ movhi
 801 0016 1343     		orrs	r3, r3, r2
 802 0018 9BB2     		uxth	r3, r3
 803 001a 9BB2     		uxth	r3, r3
 661:.\Generated_Source\PSoC5/UART.c ****     }
 804              		.loc 1 661 0
 805 001c 1846     		mov	r0, r3
 806 001e 98BD     		pop	{r3, r4, r7, pc}
 807              		.cfi_endproc
 808              	.LFE12:
 809              		.size	UART_GetByte, .-UART_GetByte
 810              		.section	.text.UART_GetRxBufferSize,"ax",%progbits
 811              		.align	2
 812              		.global	UART_GetRxBufferSize
 813              		.thumb
 814              		.thumb_func
 815              		.type	UART_GetRxBufferSize, %function
 816              	UART_GetRxBufferSize:
ARM GAS  C:\Users\SCOTTC~1\AppData\Local\Temp\ccs93tgd.s 			page 27


 817              	.LFB13:
 662:.\Generated_Source\PSoC5/UART.c **** 
 663:.\Generated_Source\PSoC5/UART.c **** 
 664:.\Generated_Source\PSoC5/UART.c ****     /*******************************************************************************
 665:.\Generated_Source\PSoC5/UART.c ****     * Function Name: UART_GetRxBufferSize
 666:.\Generated_Source\PSoC5/UART.c ****     ********************************************************************************
 667:.\Generated_Source\PSoC5/UART.c ****     *
 668:.\Generated_Source\PSoC5/UART.c ****     * Summary:
 669:.\Generated_Source\PSoC5/UART.c ****     *  Determine the amount of bytes left in the RX buffer and return the count in
 670:.\Generated_Source\PSoC5/UART.c ****     *  bytes
 671:.\Generated_Source\PSoC5/UART.c ****     *
 672:.\Generated_Source\PSoC5/UART.c ****     * Parameters:
 673:.\Generated_Source\PSoC5/UART.c ****     *  None.
 674:.\Generated_Source\PSoC5/UART.c ****     *
 675:.\Generated_Source\PSoC5/UART.c ****     * Return:
 676:.\Generated_Source\PSoC5/UART.c ****     *  uint8: Integer count of the number of bytes left
 677:.\Generated_Source\PSoC5/UART.c ****     *  in the RX buffer
 678:.\Generated_Source\PSoC5/UART.c ****     *
 679:.\Generated_Source\PSoC5/UART.c ****     * Global Variables:
 680:.\Generated_Source\PSoC5/UART.c ****     *  UART_rxBufferWrite - used to calculate left bytes.
 681:.\Generated_Source\PSoC5/UART.c ****     *  UART_rxBufferRead - used to calculate left bytes.
 682:.\Generated_Source\PSoC5/UART.c ****     *  UART_rxBufferLoopDetect - checked to decide left bytes amount.
 683:.\Generated_Source\PSoC5/UART.c ****     *
 684:.\Generated_Source\PSoC5/UART.c ****     * Reentrant:
 685:.\Generated_Source\PSoC5/UART.c ****     *  No.
 686:.\Generated_Source\PSoC5/UART.c ****     *
 687:.\Generated_Source\PSoC5/UART.c ****     * Theory:
 688:.\Generated_Source\PSoC5/UART.c ****     *  Allows the user to find out how full the RX Buffer is.
 689:.\Generated_Source\PSoC5/UART.c ****     *
 690:.\Generated_Source\PSoC5/UART.c ****     *******************************************************************************/
 691:.\Generated_Source\PSoC5/UART.c ****     uint8 UART_GetRxBufferSize(void)
 692:.\Generated_Source\PSoC5/UART.c ****                                                             
 693:.\Generated_Source\PSoC5/UART.c ****     {
 818              		.loc 1 693 0
 819              		.cfi_startproc
 820              		@ args = 0, pretend = 0, frame = 8
 821              		@ frame_needed = 1, uses_anonymous_args = 0
 822 0000 80B5     		push	{r7, lr}
 823              		.cfi_def_cfa_offset 8
 824              		.cfi_offset 7, -8
 825              		.cfi_offset 14, -4
 826 0002 82B0     		sub	sp, sp, #8
 827              		.cfi_def_cfa_offset 16
 828 0004 00AF     		add	r7, sp, #0
 829              		.cfi_def_cfa_register 7
 694:.\Generated_Source\PSoC5/UART.c ****         uint8 size;
 695:.\Generated_Source\PSoC5/UART.c **** 
 696:.\Generated_Source\PSoC5/UART.c ****         #if(UART_RXBUFFERSIZE > UART_FIFO_LENGTH)
 697:.\Generated_Source\PSoC5/UART.c **** 
 698:.\Generated_Source\PSoC5/UART.c ****             /* Disable Rx interrupt. */
 699:.\Generated_Source\PSoC5/UART.c ****             /* Protect variables that could change on interrupt. */
 700:.\Generated_Source\PSoC5/UART.c ****             #if(UART_RX_INTERRUPT_ENABLED)
 701:.\Generated_Source\PSoC5/UART.c ****                 UART_DisableRxInt();
 830              		.loc 1 701 0
 831 0006 FFF7FEFF 		bl	UART_DisableRxInt
 702:.\Generated_Source\PSoC5/UART.c ****             #endif /* UART_RX_INTERRUPT_ENABLED */
 703:.\Generated_Source\PSoC5/UART.c **** 
ARM GAS  C:\Users\SCOTTC~1\AppData\Local\Temp\ccs93tgd.s 			page 28


 704:.\Generated_Source\PSoC5/UART.c ****             if(UART_rxBufferRead == UART_rxBufferWrite)
 832              		.loc 1 704 0
 833 000a 1A4B     		ldr	r3, .L58
 834 000c 1B78     		ldrb	r3, [r3]
 835 000e DAB2     		uxtb	r2, r3
 836 0010 194B     		ldr	r3, .L58+4
 837 0012 1B78     		ldrb	r3, [r3]
 838 0014 DBB2     		uxtb	r3, r3
 839 0016 9A42     		cmp	r2, r3
 840 0018 0AD1     		bne	.L52
 705:.\Generated_Source\PSoC5/UART.c ****             {
 706:.\Generated_Source\PSoC5/UART.c ****                 if(UART_rxBufferLoopDetect > 0u)
 841              		.loc 1 706 0
 842 001a 184B     		ldr	r3, .L58+8
 843 001c 1B78     		ldrb	r3, [r3]
 844 001e DBB2     		uxtb	r3, r3
 845 0020 002B     		cmp	r3, #0
 846 0022 02D0     		beq	.L53
 707:.\Generated_Source\PSoC5/UART.c ****                 {
 708:.\Generated_Source\PSoC5/UART.c ****                     size = UART_RXBUFFERSIZE;
 847              		.loc 1 708 0
 848 0024 FF23     		movs	r3, #255
 849 0026 FB71     		strb	r3, [r7, #7]
 850 0028 1DE0     		b	.L55
 851              	.L53:
 709:.\Generated_Source\PSoC5/UART.c ****                 }
 710:.\Generated_Source\PSoC5/UART.c ****                 else
 711:.\Generated_Source\PSoC5/UART.c ****                 {
 712:.\Generated_Source\PSoC5/UART.c ****                     size = 0u;
 852              		.loc 1 712 0
 853 002a 0023     		movs	r3, #0
 854 002c FB71     		strb	r3, [r7, #7]
 855 002e 1AE0     		b	.L55
 856              	.L52:
 713:.\Generated_Source\PSoC5/UART.c ****                 }
 714:.\Generated_Source\PSoC5/UART.c ****             }
 715:.\Generated_Source\PSoC5/UART.c ****             else if(UART_rxBufferRead < UART_rxBufferWrite)
 857              		.loc 1 715 0
 858 0030 104B     		ldr	r3, .L58
 859 0032 1B78     		ldrb	r3, [r3]
 860 0034 DAB2     		uxtb	r2, r3
 861 0036 104B     		ldr	r3, .L58+4
 862 0038 1B78     		ldrb	r3, [r3]
 863 003a DBB2     		uxtb	r3, r3
 864 003c 9A42     		cmp	r2, r3
 865 003e 08D2     		bcs	.L56
 716:.\Generated_Source\PSoC5/UART.c ****             {
 717:.\Generated_Source\PSoC5/UART.c ****                 size = (UART_rxBufferWrite - UART_rxBufferRead);
 866              		.loc 1 717 0
 867 0040 0D4B     		ldr	r3, .L58+4
 868 0042 1B78     		ldrb	r3, [r3]
 869 0044 DAB2     		uxtb	r2, r3
 870 0046 0B4B     		ldr	r3, .L58
 871 0048 1B78     		ldrb	r3, [r3]
 872 004a DBB2     		uxtb	r3, r3
 873 004c D31A     		subs	r3, r2, r3
 874 004e FB71     		strb	r3, [r7, #7]
ARM GAS  C:\Users\SCOTTC~1\AppData\Local\Temp\ccs93tgd.s 			page 29


 875 0050 09E0     		b	.L55
 876              	.L56:
 718:.\Generated_Source\PSoC5/UART.c ****             }
 719:.\Generated_Source\PSoC5/UART.c ****             else
 720:.\Generated_Source\PSoC5/UART.c ****             {
 721:.\Generated_Source\PSoC5/UART.c ****                 size = (UART_RXBUFFERSIZE - UART_rxBufferRead) + UART_rxBufferWrite;
 877              		.loc 1 721 0
 878 0052 094B     		ldr	r3, .L58+4
 879 0054 1B78     		ldrb	r3, [r3]
 880 0056 DAB2     		uxtb	r2, r3
 881 0058 064B     		ldr	r3, .L58
 882 005a 1B78     		ldrb	r3, [r3]
 883 005c DBB2     		uxtb	r3, r3
 884 005e D31A     		subs	r3, r2, r3
 885 0060 DBB2     		uxtb	r3, r3
 886 0062 013B     		subs	r3, r3, #1
 887 0064 FB71     		strb	r3, [r7, #7]
 888              	.L55:
 722:.\Generated_Source\PSoC5/UART.c ****             }
 723:.\Generated_Source\PSoC5/UART.c **** 
 724:.\Generated_Source\PSoC5/UART.c ****             /* Enable Rx interrupt. */
 725:.\Generated_Source\PSoC5/UART.c ****             #if(UART_RX_INTERRUPT_ENABLED)
 726:.\Generated_Source\PSoC5/UART.c ****                 UART_EnableRxInt();
 889              		.loc 1 726 0
 890 0066 FFF7FEFF 		bl	UART_EnableRxInt
 727:.\Generated_Source\PSoC5/UART.c ****             #endif /* End UART_RX_INTERRUPT_ENABLED */
 728:.\Generated_Source\PSoC5/UART.c **** 
 729:.\Generated_Source\PSoC5/UART.c ****         #else /* UART_RXBUFFERSIZE > UART_FIFO_LENGTH */
 730:.\Generated_Source\PSoC5/UART.c **** 
 731:.\Generated_Source\PSoC5/UART.c ****             /* We can only know if there is data in the fifo. */
 732:.\Generated_Source\PSoC5/UART.c ****             size = ((UART_RXSTATUS_REG & UART_RX_STS_FIFO_NOTEMPTY) != 0u) ? 1u : 0u;
 733:.\Generated_Source\PSoC5/UART.c **** 
 734:.\Generated_Source\PSoC5/UART.c ****         #endif /* End UART_RXBUFFERSIZE > UART_FIFO_LENGTH */
 735:.\Generated_Source\PSoC5/UART.c **** 
 736:.\Generated_Source\PSoC5/UART.c ****         return(size);
 891              		.loc 1 736 0
 892 006a FB79     		ldrb	r3, [r7, #7]	@ zero_extendqisi2
 737:.\Generated_Source\PSoC5/UART.c ****     }
 893              		.loc 1 737 0
 894 006c 1846     		mov	r0, r3
 895 006e 0837     		adds	r7, r7, #8
 896 0070 BD46     		mov	sp, r7
 897              		@ sp needed
 898 0072 80BD     		pop	{r7, pc}
 899              	.L59:
 900              		.align	2
 901              	.L58:
 902 0074 00000000 		.word	UART_rxBufferRead
 903 0078 00000000 		.word	UART_rxBufferWrite
 904 007c 00000000 		.word	UART_rxBufferLoopDetect
 905              		.cfi_endproc
 906              	.LFE13:
 907              		.size	UART_GetRxBufferSize, .-UART_GetRxBufferSize
 908              		.section	.text.UART_ClearRxBuffer,"ax",%progbits
 909              		.align	2
 910              		.global	UART_ClearRxBuffer
 911              		.thumb
ARM GAS  C:\Users\SCOTTC~1\AppData\Local\Temp\ccs93tgd.s 			page 30


 912              		.thumb_func
 913              		.type	UART_ClearRxBuffer, %function
 914              	UART_ClearRxBuffer:
 915              	.LFB14:
 738:.\Generated_Source\PSoC5/UART.c **** 
 739:.\Generated_Source\PSoC5/UART.c **** 
 740:.\Generated_Source\PSoC5/UART.c ****     /*******************************************************************************
 741:.\Generated_Source\PSoC5/UART.c ****     * Function Name: UART_ClearRxBuffer
 742:.\Generated_Source\PSoC5/UART.c ****     ********************************************************************************
 743:.\Generated_Source\PSoC5/UART.c ****     *
 744:.\Generated_Source\PSoC5/UART.c ****     * Summary:
 745:.\Generated_Source\PSoC5/UART.c ****     *  Clears the RX RAM buffer by setting the read and write pointers both to zero.
 746:.\Generated_Source\PSoC5/UART.c ****     *  Clears hardware RX FIFO.
 747:.\Generated_Source\PSoC5/UART.c ****     *
 748:.\Generated_Source\PSoC5/UART.c ****     * Parameters:
 749:.\Generated_Source\PSoC5/UART.c ****     *  None.
 750:.\Generated_Source\PSoC5/UART.c ****     *
 751:.\Generated_Source\PSoC5/UART.c ****     * Return:
 752:.\Generated_Source\PSoC5/UART.c ****     *  None.
 753:.\Generated_Source\PSoC5/UART.c ****     *
 754:.\Generated_Source\PSoC5/UART.c ****     * Global Variables:
 755:.\Generated_Source\PSoC5/UART.c ****     *  UART_rxBufferWrite - cleared to zero.
 756:.\Generated_Source\PSoC5/UART.c ****     *  UART_rxBufferRead - cleared to zero.
 757:.\Generated_Source\PSoC5/UART.c ****     *  UART_rxBufferLoopDetect - cleared to zero.
 758:.\Generated_Source\PSoC5/UART.c ****     *  UART_rxBufferOverflow - cleared to zero.
 759:.\Generated_Source\PSoC5/UART.c ****     *
 760:.\Generated_Source\PSoC5/UART.c ****     * Reentrant:
 761:.\Generated_Source\PSoC5/UART.c ****     *  No.
 762:.\Generated_Source\PSoC5/UART.c ****     *
 763:.\Generated_Source\PSoC5/UART.c ****     * Theory:
 764:.\Generated_Source\PSoC5/UART.c ****     *  Setting the pointers to zero makes the system believe there is no data to
 765:.\Generated_Source\PSoC5/UART.c ****     *  read and writing will resume at address 0 overwriting any data that may
 766:.\Generated_Source\PSoC5/UART.c ****     *  have remained in the RAM.
 767:.\Generated_Source\PSoC5/UART.c ****     *
 768:.\Generated_Source\PSoC5/UART.c ****     * Side Effects:
 769:.\Generated_Source\PSoC5/UART.c ****     *  Any received data not read from the RAM or FIFO buffer will be lost.
 770:.\Generated_Source\PSoC5/UART.c ****     *******************************************************************************/
 771:.\Generated_Source\PSoC5/UART.c ****     void UART_ClearRxBuffer(void) 
 772:.\Generated_Source\PSoC5/UART.c ****     {
 916              		.loc 1 772 0
 917              		.cfi_startproc
 918              		@ args = 0, pretend = 0, frame = 8
 919              		@ frame_needed = 1, uses_anonymous_args = 0
 920 0000 80B5     		push	{r7, lr}
 921              		.cfi_def_cfa_offset 8
 922              		.cfi_offset 7, -8
 923              		.cfi_offset 14, -4
 924 0002 82B0     		sub	sp, sp, #8
 925              		.cfi_def_cfa_offset 16
 926 0004 00AF     		add	r7, sp, #0
 927              		.cfi_def_cfa_register 7
 773:.\Generated_Source\PSoC5/UART.c ****         uint8 enableInterrupts;
 774:.\Generated_Source\PSoC5/UART.c **** 
 775:.\Generated_Source\PSoC5/UART.c ****         /* clear the HW FIFO */
 776:.\Generated_Source\PSoC5/UART.c ****         /* Enter critical section */
 777:.\Generated_Source\PSoC5/UART.c ****         enableInterrupts = CyEnterCriticalSection();
 928              		.loc 1 777 0
ARM GAS  C:\Users\SCOTTC~1\AppData\Local\Temp\ccs93tgd.s 			page 31


 929 0006 FFF7FEFF 		bl	CyEnterCriticalSection
 930 000a 0346     		mov	r3, r0
 931 000c FB71     		strb	r3, [r7, #7]
 778:.\Generated_Source\PSoC5/UART.c ****         UART_RXDATA_AUX_CTL_REG |=  UART_RX_FIFO_CLR;
 932              		.loc 1 778 0
 933 000e 134B     		ldr	r3, .L61
 934 0010 124A     		ldr	r2, .L61
 935 0012 1278     		ldrb	r2, [r2]
 936 0014 D2B2     		uxtb	r2, r2
 937 0016 42F00102 		orr	r2, r2, #1
 938 001a D2B2     		uxtb	r2, r2
 939 001c 1A70     		strb	r2, [r3]
 779:.\Generated_Source\PSoC5/UART.c ****         UART_RXDATA_AUX_CTL_REG &= (uint8)~UART_RX_FIFO_CLR;
 940              		.loc 1 779 0
 941 001e 0F4B     		ldr	r3, .L61
 942 0020 0E4A     		ldr	r2, .L61
 943 0022 1278     		ldrb	r2, [r2]
 944 0024 D2B2     		uxtb	r2, r2
 945 0026 22F00102 		bic	r2, r2, #1
 946 002a D2B2     		uxtb	r2, r2
 947 002c 1A70     		strb	r2, [r3]
 780:.\Generated_Source\PSoC5/UART.c ****         /* Exit critical section */
 781:.\Generated_Source\PSoC5/UART.c ****         CyExitCriticalSection(enableInterrupts);
 948              		.loc 1 781 0
 949 002e FB79     		ldrb	r3, [r7, #7]	@ zero_extendqisi2
 950 0030 1846     		mov	r0, r3
 951 0032 FFF7FEFF 		bl	CyExitCriticalSection
 782:.\Generated_Source\PSoC5/UART.c **** 
 783:.\Generated_Source\PSoC5/UART.c ****         #if(UART_RXBUFFERSIZE > UART_FIFO_LENGTH)
 784:.\Generated_Source\PSoC5/UART.c ****             /* Disable Rx interrupt. */
 785:.\Generated_Source\PSoC5/UART.c ****             /* Protect variables that could change on interrupt. */
 786:.\Generated_Source\PSoC5/UART.c ****             #if(UART_RX_INTERRUPT_ENABLED)
 787:.\Generated_Source\PSoC5/UART.c ****                 UART_DisableRxInt();
 952              		.loc 1 787 0
 953 0036 FFF7FEFF 		bl	UART_DisableRxInt
 788:.\Generated_Source\PSoC5/UART.c ****             #endif /* End UART_RX_INTERRUPT_ENABLED */
 789:.\Generated_Source\PSoC5/UART.c **** 
 790:.\Generated_Source\PSoC5/UART.c ****             UART_rxBufferRead = 0u;
 954              		.loc 1 790 0
 955 003a 094B     		ldr	r3, .L61+4
 956 003c 0022     		movs	r2, #0
 957 003e 1A70     		strb	r2, [r3]
 791:.\Generated_Source\PSoC5/UART.c ****             UART_rxBufferWrite = 0u;
 958              		.loc 1 791 0
 959 0040 084B     		ldr	r3, .L61+8
 960 0042 0022     		movs	r2, #0
 961 0044 1A70     		strb	r2, [r3]
 792:.\Generated_Source\PSoC5/UART.c ****             UART_rxBufferLoopDetect = 0u;
 962              		.loc 1 792 0
 963 0046 084B     		ldr	r3, .L61+12
 964 0048 0022     		movs	r2, #0
 965 004a 1A70     		strb	r2, [r3]
 793:.\Generated_Source\PSoC5/UART.c ****             UART_rxBufferOverflow = 0u;
 966              		.loc 1 793 0
 967 004c 074B     		ldr	r3, .L61+16
 968 004e 0022     		movs	r2, #0
 969 0050 1A70     		strb	r2, [r3]
ARM GAS  C:\Users\SCOTTC~1\AppData\Local\Temp\ccs93tgd.s 			page 32


 794:.\Generated_Source\PSoC5/UART.c **** 
 795:.\Generated_Source\PSoC5/UART.c ****             /* Enable Rx interrupt. */
 796:.\Generated_Source\PSoC5/UART.c ****             #if(UART_RX_INTERRUPT_ENABLED)
 797:.\Generated_Source\PSoC5/UART.c ****                 UART_EnableRxInt();
 970              		.loc 1 797 0
 971 0052 FFF7FEFF 		bl	UART_EnableRxInt
 798:.\Generated_Source\PSoC5/UART.c ****             #endif /* End UART_RX_INTERRUPT_ENABLED */
 799:.\Generated_Source\PSoC5/UART.c ****         #endif /* End UART_RXBUFFERSIZE > UART_FIFO_LENGTH */
 800:.\Generated_Source\PSoC5/UART.c **** 
 801:.\Generated_Source\PSoC5/UART.c ****     }
 972              		.loc 1 801 0
 973 0056 0837     		adds	r7, r7, #8
 974 0058 BD46     		mov	sp, r7
 975              		@ sp needed
 976 005a 80BD     		pop	{r7, pc}
 977              	.L62:
 978              		.align	2
 979              	.L61:
 980 005c 94640040 		.word	1073767572
 981 0060 00000000 		.word	UART_rxBufferRead
 982 0064 00000000 		.word	UART_rxBufferWrite
 983 0068 00000000 		.word	UART_rxBufferLoopDetect
 984 006c 00000000 		.word	UART_rxBufferOverflow
 985              		.cfi_endproc
 986              	.LFE14:
 987              		.size	UART_ClearRxBuffer, .-UART_ClearRxBuffer
 988              		.section	.text.UART_SetRxAddressMode,"ax",%progbits
 989              		.align	2
 990              		.global	UART_SetRxAddressMode
 991              		.thumb
 992              		.thumb_func
 993              		.type	UART_SetRxAddressMode, %function
 994              	UART_SetRxAddressMode:
 995              	.LFB15:
 802:.\Generated_Source\PSoC5/UART.c **** 
 803:.\Generated_Source\PSoC5/UART.c **** 
 804:.\Generated_Source\PSoC5/UART.c ****     /*******************************************************************************
 805:.\Generated_Source\PSoC5/UART.c ****     * Function Name: UART_SetRxAddressMode
 806:.\Generated_Source\PSoC5/UART.c ****     ********************************************************************************
 807:.\Generated_Source\PSoC5/UART.c ****     *
 808:.\Generated_Source\PSoC5/UART.c ****     * Summary:
 809:.\Generated_Source\PSoC5/UART.c ****     *  Set the receive addressing mode
 810:.\Generated_Source\PSoC5/UART.c ****     *
 811:.\Generated_Source\PSoC5/UART.c ****     * Parameters:
 812:.\Generated_Source\PSoC5/UART.c ****     *  addressMode: Enumerated value indicating the mode of RX addressing
 813:.\Generated_Source\PSoC5/UART.c ****     *  UART__B_UART__AM_SW_BYTE_BYTE -  Software Byte-by-Byte address
 814:.\Generated_Source\PSoC5/UART.c ****     *                                               detection
 815:.\Generated_Source\PSoC5/UART.c ****     *  UART__B_UART__AM_SW_DETECT_TO_BUFFER - Software Detect to Buffer
 816:.\Generated_Source\PSoC5/UART.c ****     *                                               address detection
 817:.\Generated_Source\PSoC5/UART.c ****     *  UART__B_UART__AM_HW_BYTE_BY_BYTE - Hardware Byte-by-Byte address
 818:.\Generated_Source\PSoC5/UART.c ****     *                                               detection
 819:.\Generated_Source\PSoC5/UART.c ****     *  UART__B_UART__AM_HW_DETECT_TO_BUFFER - Hardware Detect to Buffer
 820:.\Generated_Source\PSoC5/UART.c ****     *                                               address detection
 821:.\Generated_Source\PSoC5/UART.c ****     *  UART__B_UART__AM_NONE - No address detection
 822:.\Generated_Source\PSoC5/UART.c ****     *
 823:.\Generated_Source\PSoC5/UART.c ****     * Return:
 824:.\Generated_Source\PSoC5/UART.c ****     *  None.
ARM GAS  C:\Users\SCOTTC~1\AppData\Local\Temp\ccs93tgd.s 			page 33


 825:.\Generated_Source\PSoC5/UART.c ****     *
 826:.\Generated_Source\PSoC5/UART.c ****     * Global Variables:
 827:.\Generated_Source\PSoC5/UART.c ****     *  UART_rxAddressMode - the parameter stored in this variable for
 828:.\Generated_Source\PSoC5/UART.c ****     *   the farther usage in RX ISR.
 829:.\Generated_Source\PSoC5/UART.c ****     *  UART_rxAddressDetected - set to initial state (0).
 830:.\Generated_Source\PSoC5/UART.c ****     *
 831:.\Generated_Source\PSoC5/UART.c ****     *******************************************************************************/
 832:.\Generated_Source\PSoC5/UART.c ****     void UART_SetRxAddressMode(uint8 addressMode)
 833:.\Generated_Source\PSoC5/UART.c ****                                                         
 834:.\Generated_Source\PSoC5/UART.c ****     {
 996              		.loc 1 834 0
 997              		.cfi_startproc
 998              		@ args = 0, pretend = 0, frame = 8
 999              		@ frame_needed = 1, uses_anonymous_args = 0
 1000              		@ link register save eliminated.
 1001 0000 80B4     		push	{r7}
 1002              		.cfi_def_cfa_offset 4
 1003              		.cfi_offset 7, -4
 1004 0002 83B0     		sub	sp, sp, #12
 1005              		.cfi_def_cfa_offset 16
 1006 0004 00AF     		add	r7, sp, #0
 1007              		.cfi_def_cfa_register 7
 1008 0006 0346     		mov	r3, r0
 1009 0008 FB71     		strb	r3, [r7, #7]
 835:.\Generated_Source\PSoC5/UART.c ****         #if(UART_RXHW_ADDRESS_ENABLED)
 836:.\Generated_Source\PSoC5/UART.c ****             #if(UART_CONTROL_REG_REMOVED)
 837:.\Generated_Source\PSoC5/UART.c ****                 if(addressMode != 0u) { }     /* release compiler warning */
 838:.\Generated_Source\PSoC5/UART.c ****             #else /* UART_CONTROL_REG_REMOVED */
 839:.\Generated_Source\PSoC5/UART.c ****                 uint8 tmpCtrl;
 840:.\Generated_Source\PSoC5/UART.c ****                 tmpCtrl = UART_CONTROL_REG & (uint8)~UART_CTRL_RXADDR_MODE_MASK;
 841:.\Generated_Source\PSoC5/UART.c ****                 tmpCtrl |= (uint8)(addressMode << UART_CTRL_RXADDR_MODE0_SHIFT);
 842:.\Generated_Source\PSoC5/UART.c ****                 UART_CONTROL_REG = tmpCtrl;
 843:.\Generated_Source\PSoC5/UART.c ****                 #if(UART_RX_INTERRUPT_ENABLED && \
 844:.\Generated_Source\PSoC5/UART.c ****                    (UART_RXBUFFERSIZE > UART_FIFO_LENGTH) )
 845:.\Generated_Source\PSoC5/UART.c ****                     UART_rxAddressMode = addressMode;
 846:.\Generated_Source\PSoC5/UART.c ****                     UART_rxAddressDetected = 0u;
 847:.\Generated_Source\PSoC5/UART.c ****                 #endif /* End UART_RXBUFFERSIZE > UART_FIFO_LENGTH*/
 848:.\Generated_Source\PSoC5/UART.c ****             #endif /* End UART_CONTROL_REG_REMOVED */
 849:.\Generated_Source\PSoC5/UART.c ****         #else /* UART_RXHW_ADDRESS_ENABLED */
 850:.\Generated_Source\PSoC5/UART.c ****             if(addressMode != 0u) { }     /* release compiler warning */
 851:.\Generated_Source\PSoC5/UART.c ****         #endif /* End UART_RXHW_ADDRESS_ENABLED */
 852:.\Generated_Source\PSoC5/UART.c ****     }
 1010              		.loc 1 852 0
 1011 000a 0C37     		adds	r7, r7, #12
 1012 000c BD46     		mov	sp, r7
 1013              		@ sp needed
 1014 000e 5DF8047B 		ldr	r7, [sp], #4
 1015 0012 7047     		bx	lr
 1016              		.cfi_endproc
 1017              	.LFE15:
 1018              		.size	UART_SetRxAddressMode, .-UART_SetRxAddressMode
 1019              		.section	.text.UART_SetRxAddress1,"ax",%progbits
 1020              		.align	2
 1021              		.global	UART_SetRxAddress1
 1022              		.thumb
 1023              		.thumb_func
 1024              		.type	UART_SetRxAddress1, %function
ARM GAS  C:\Users\SCOTTC~1\AppData\Local\Temp\ccs93tgd.s 			page 34


 1025              	UART_SetRxAddress1:
 1026              	.LFB16:
 853:.\Generated_Source\PSoC5/UART.c **** 
 854:.\Generated_Source\PSoC5/UART.c **** 
 855:.\Generated_Source\PSoC5/UART.c ****     /*******************************************************************************
 856:.\Generated_Source\PSoC5/UART.c ****     * Function Name: UART_SetRxAddress1
 857:.\Generated_Source\PSoC5/UART.c ****     ********************************************************************************
 858:.\Generated_Source\PSoC5/UART.c ****     *
 859:.\Generated_Source\PSoC5/UART.c ****     * Summary:
 860:.\Generated_Source\PSoC5/UART.c ****     *  Set the first hardware address compare value
 861:.\Generated_Source\PSoC5/UART.c ****     *
 862:.\Generated_Source\PSoC5/UART.c ****     * Parameters:
 863:.\Generated_Source\PSoC5/UART.c ****     *  address
 864:.\Generated_Source\PSoC5/UART.c ****     *
 865:.\Generated_Source\PSoC5/UART.c ****     * Return:
 866:.\Generated_Source\PSoC5/UART.c ****     *  None.
 867:.\Generated_Source\PSoC5/UART.c ****     *
 868:.\Generated_Source\PSoC5/UART.c ****     *******************************************************************************/
 869:.\Generated_Source\PSoC5/UART.c ****     void UART_SetRxAddress1(uint8 address) 
 870:.\Generated_Source\PSoC5/UART.c **** 
 871:.\Generated_Source\PSoC5/UART.c ****     {
 1027              		.loc 1 871 0
 1028              		.cfi_startproc
 1029              		@ args = 0, pretend = 0, frame = 8
 1030              		@ frame_needed = 1, uses_anonymous_args = 0
 1031              		@ link register save eliminated.
 1032 0000 80B4     		push	{r7}
 1033              		.cfi_def_cfa_offset 4
 1034              		.cfi_offset 7, -4
 1035 0002 83B0     		sub	sp, sp, #12
 1036              		.cfi_def_cfa_offset 16
 1037 0004 00AF     		add	r7, sp, #0
 1038              		.cfi_def_cfa_register 7
 1039 0006 0346     		mov	r3, r0
 1040 0008 FB71     		strb	r3, [r7, #7]
 872:.\Generated_Source\PSoC5/UART.c ****         UART_RXADDRESS1_REG = address;
 1041              		.loc 1 872 0
 1042 000a 044B     		ldr	r3, .L65
 1043 000c FA79     		ldrb	r2, [r7, #7]
 1044 000e 1A70     		strb	r2, [r3]
 873:.\Generated_Source\PSoC5/UART.c ****     }
 1045              		.loc 1 873 0
 1046 0010 0C37     		adds	r7, r7, #12
 1047 0012 BD46     		mov	sp, r7
 1048              		@ sp needed
 1049 0014 5DF8047B 		ldr	r7, [sp], #4
 1050 0018 7047     		bx	lr
 1051              	.L66:
 1052 001a 00BF     		.align	2
 1053              	.L65:
 1054 001c 24640040 		.word	1073767460
 1055              		.cfi_endproc
 1056              	.LFE16:
 1057              		.size	UART_SetRxAddress1, .-UART_SetRxAddress1
 1058              		.section	.text.UART_SetRxAddress2,"ax",%progbits
 1059              		.align	2
 1060              		.global	UART_SetRxAddress2
ARM GAS  C:\Users\SCOTTC~1\AppData\Local\Temp\ccs93tgd.s 			page 35


 1061              		.thumb
 1062              		.thumb_func
 1063              		.type	UART_SetRxAddress2, %function
 1064              	UART_SetRxAddress2:
 1065              	.LFB17:
 874:.\Generated_Source\PSoC5/UART.c **** 
 875:.\Generated_Source\PSoC5/UART.c **** 
 876:.\Generated_Source\PSoC5/UART.c ****     /*******************************************************************************
 877:.\Generated_Source\PSoC5/UART.c ****     * Function Name: UART_SetRxAddress2
 878:.\Generated_Source\PSoC5/UART.c ****     ********************************************************************************
 879:.\Generated_Source\PSoC5/UART.c ****     *
 880:.\Generated_Source\PSoC5/UART.c ****     * Summary:
 881:.\Generated_Source\PSoC5/UART.c ****     *  Set the second hardware address compare value
 882:.\Generated_Source\PSoC5/UART.c ****     *
 883:.\Generated_Source\PSoC5/UART.c ****     * Parameters:
 884:.\Generated_Source\PSoC5/UART.c ****     *  address
 885:.\Generated_Source\PSoC5/UART.c ****     *
 886:.\Generated_Source\PSoC5/UART.c ****     * Return:
 887:.\Generated_Source\PSoC5/UART.c ****     *  None.
 888:.\Generated_Source\PSoC5/UART.c ****     *
 889:.\Generated_Source\PSoC5/UART.c ****     *******************************************************************************/
 890:.\Generated_Source\PSoC5/UART.c ****     void UART_SetRxAddress2(uint8 address) 
 891:.\Generated_Source\PSoC5/UART.c ****     {
 1066              		.loc 1 891 0
 1067              		.cfi_startproc
 1068              		@ args = 0, pretend = 0, frame = 8
 1069              		@ frame_needed = 1, uses_anonymous_args = 0
 1070              		@ link register save eliminated.
 1071 0000 80B4     		push	{r7}
 1072              		.cfi_def_cfa_offset 4
 1073              		.cfi_offset 7, -4
 1074 0002 83B0     		sub	sp, sp, #12
 1075              		.cfi_def_cfa_offset 16
 1076 0004 00AF     		add	r7, sp, #0
 1077              		.cfi_def_cfa_register 7
 1078 0006 0346     		mov	r3, r0
 1079 0008 FB71     		strb	r3, [r7, #7]
 892:.\Generated_Source\PSoC5/UART.c ****         UART_RXADDRESS2_REG = address;
 1080              		.loc 1 892 0
 1081 000a 044B     		ldr	r3, .L68
 1082 000c FA79     		ldrb	r2, [r7, #7]
 1083 000e 1A70     		strb	r2, [r3]
 893:.\Generated_Source\PSoC5/UART.c ****     }
 1084              		.loc 1 893 0
 1085 0010 0C37     		adds	r7, r7, #12
 1086 0012 BD46     		mov	sp, r7
 1087              		@ sp needed
 1088 0014 5DF8047B 		ldr	r7, [sp], #4
 1089 0018 7047     		bx	lr
 1090              	.L69:
 1091 001a 00BF     		.align	2
 1092              	.L68:
 1093 001c 34640040 		.word	1073767476
 1094              		.cfi_endproc
 1095              	.LFE17:
 1096              		.size	UART_SetRxAddress2, .-UART_SetRxAddress2
 1097              		.section	.text.UART_EnableTxInt,"ax",%progbits
ARM GAS  C:\Users\SCOTTC~1\AppData\Local\Temp\ccs93tgd.s 			page 36


 1098              		.align	2
 1099              		.global	UART_EnableTxInt
 1100              		.thumb
 1101              		.thumb_func
 1102              		.type	UART_EnableTxInt, %function
 1103              	UART_EnableTxInt:
 1104              	.LFB18:
 894:.\Generated_Source\PSoC5/UART.c **** 
 895:.\Generated_Source\PSoC5/UART.c **** #endif  /* UART_RX_ENABLED || UART_HD_ENABLED*/
 896:.\Generated_Source\PSoC5/UART.c **** 
 897:.\Generated_Source\PSoC5/UART.c **** 
 898:.\Generated_Source\PSoC5/UART.c **** #if( (UART_TX_ENABLED) || (UART_HD_ENABLED) )
 899:.\Generated_Source\PSoC5/UART.c **** 
 900:.\Generated_Source\PSoC5/UART.c ****     #if(UART_TX_INTERRUPT_ENABLED)
 901:.\Generated_Source\PSoC5/UART.c **** 
 902:.\Generated_Source\PSoC5/UART.c ****         /*******************************************************************************
 903:.\Generated_Source\PSoC5/UART.c ****         * Function Name: UART_EnableTxInt
 904:.\Generated_Source\PSoC5/UART.c ****         ********************************************************************************
 905:.\Generated_Source\PSoC5/UART.c ****         *
 906:.\Generated_Source\PSoC5/UART.c ****         * Summary:
 907:.\Generated_Source\PSoC5/UART.c ****         *  Enable TX interrupt generation
 908:.\Generated_Source\PSoC5/UART.c ****         *
 909:.\Generated_Source\PSoC5/UART.c ****         * Parameters:
 910:.\Generated_Source\PSoC5/UART.c ****         *  None.
 911:.\Generated_Source\PSoC5/UART.c ****         *
 912:.\Generated_Source\PSoC5/UART.c ****         * Return:
 913:.\Generated_Source\PSoC5/UART.c ****         *  None.
 914:.\Generated_Source\PSoC5/UART.c ****         *
 915:.\Generated_Source\PSoC5/UART.c ****         * Theory:
 916:.\Generated_Source\PSoC5/UART.c ****         *  Enable the interrupt output -or- the interrupt component itself
 917:.\Generated_Source\PSoC5/UART.c ****         *
 918:.\Generated_Source\PSoC5/UART.c ****         *******************************************************************************/
 919:.\Generated_Source\PSoC5/UART.c ****         void UART_EnableTxInt(void) 
 920:.\Generated_Source\PSoC5/UART.c ****         {
 1105              		.loc 1 920 0
 1106              		.cfi_startproc
 1107              		@ args = 0, pretend = 0, frame = 0
 1108              		@ frame_needed = 1, uses_anonymous_args = 0
 1109              		@ link register save eliminated.
 1110 0000 80B4     		push	{r7}
 1111              		.cfi_def_cfa_offset 4
 1112              		.cfi_offset 7, -4
 1113 0002 00AF     		add	r7, sp, #0
 1114              		.cfi_def_cfa_register 7
 921:.\Generated_Source\PSoC5/UART.c ****             CyIntEnable(UART_TX_VECT_NUM);
 1115              		.loc 1 921 0
 1116 0004 034B     		ldr	r3, .L71
 1117 0006 0222     		movs	r2, #2
 1118 0008 1A60     		str	r2, [r3]
 922:.\Generated_Source\PSoC5/UART.c ****         }
 1119              		.loc 1 922 0
 1120 000a BD46     		mov	sp, r7
 1121              		@ sp needed
 1122 000c 5DF8047B 		ldr	r7, [sp], #4
 1123 0010 7047     		bx	lr
 1124              	.L72:
 1125 0012 00BF     		.align	2
ARM GAS  C:\Users\SCOTTC~1\AppData\Local\Temp\ccs93tgd.s 			page 37


 1126              	.L71:
 1127 0014 00E100E0 		.word	-536813312
 1128              		.cfi_endproc
 1129              	.LFE18:
 1130              		.size	UART_EnableTxInt, .-UART_EnableTxInt
 1131              		.section	.text.UART_DisableTxInt,"ax",%progbits
 1132              		.align	2
 1133              		.global	UART_DisableTxInt
 1134              		.thumb
 1135              		.thumb_func
 1136              		.type	UART_DisableTxInt, %function
 1137              	UART_DisableTxInt:
 1138              	.LFB19:
 923:.\Generated_Source\PSoC5/UART.c **** 
 924:.\Generated_Source\PSoC5/UART.c **** 
 925:.\Generated_Source\PSoC5/UART.c ****         /*******************************************************************************
 926:.\Generated_Source\PSoC5/UART.c ****         * Function Name: UART_DisableTxInt
 927:.\Generated_Source\PSoC5/UART.c ****         ********************************************************************************
 928:.\Generated_Source\PSoC5/UART.c ****         *
 929:.\Generated_Source\PSoC5/UART.c ****         * Summary:
 930:.\Generated_Source\PSoC5/UART.c ****         *  Disable TX interrupt generation
 931:.\Generated_Source\PSoC5/UART.c ****         *
 932:.\Generated_Source\PSoC5/UART.c ****         * Parameters:
 933:.\Generated_Source\PSoC5/UART.c ****         *  None.
 934:.\Generated_Source\PSoC5/UART.c ****         *
 935:.\Generated_Source\PSoC5/UART.c ****         * Return:
 936:.\Generated_Source\PSoC5/UART.c ****         *  None.
 937:.\Generated_Source\PSoC5/UART.c ****         *
 938:.\Generated_Source\PSoC5/UART.c ****         * Theory:
 939:.\Generated_Source\PSoC5/UART.c ****         *  Disable the interrupt output -or- the interrupt component itself
 940:.\Generated_Source\PSoC5/UART.c ****         *
 941:.\Generated_Source\PSoC5/UART.c ****         *******************************************************************************/
 942:.\Generated_Source\PSoC5/UART.c ****         void UART_DisableTxInt(void) 
 943:.\Generated_Source\PSoC5/UART.c ****         {
 1139              		.loc 1 943 0
 1140              		.cfi_startproc
 1141              		@ args = 0, pretend = 0, frame = 0
 1142              		@ frame_needed = 1, uses_anonymous_args = 0
 1143              		@ link register save eliminated.
 1144 0000 80B4     		push	{r7}
 1145              		.cfi_def_cfa_offset 4
 1146              		.cfi_offset 7, -4
 1147 0002 00AF     		add	r7, sp, #0
 1148              		.cfi_def_cfa_register 7
 944:.\Generated_Source\PSoC5/UART.c ****             CyIntDisable(UART_TX_VECT_NUM);
 1149              		.loc 1 944 0
 1150 0004 034B     		ldr	r3, .L74
 1151 0006 0222     		movs	r2, #2
 1152 0008 1A60     		str	r2, [r3]
 945:.\Generated_Source\PSoC5/UART.c ****         }
 1153              		.loc 1 945 0
 1154 000a BD46     		mov	sp, r7
 1155              		@ sp needed
 1156 000c 5DF8047B 		ldr	r7, [sp], #4
 1157 0010 7047     		bx	lr
 1158              	.L75:
 1159 0012 00BF     		.align	2
ARM GAS  C:\Users\SCOTTC~1\AppData\Local\Temp\ccs93tgd.s 			page 38


 1160              	.L74:
 1161 0014 80E100E0 		.word	-536813184
 1162              		.cfi_endproc
 1163              	.LFE19:
 1164              		.size	UART_DisableTxInt, .-UART_DisableTxInt
 1165              		.section	.text.UART_SetTxInterruptMode,"ax",%progbits
 1166              		.align	2
 1167              		.global	UART_SetTxInterruptMode
 1168              		.thumb
 1169              		.thumb_func
 1170              		.type	UART_SetTxInterruptMode, %function
 1171              	UART_SetTxInterruptMode:
 1172              	.LFB20:
 946:.\Generated_Source\PSoC5/UART.c **** 
 947:.\Generated_Source\PSoC5/UART.c ****     #endif /* UART_TX_INTERRUPT_ENABLED */
 948:.\Generated_Source\PSoC5/UART.c **** 
 949:.\Generated_Source\PSoC5/UART.c **** 
 950:.\Generated_Source\PSoC5/UART.c ****     /*******************************************************************************
 951:.\Generated_Source\PSoC5/UART.c ****     * Function Name: UART_SetTxInterruptMode
 952:.\Generated_Source\PSoC5/UART.c ****     ********************************************************************************
 953:.\Generated_Source\PSoC5/UART.c ****     *
 954:.\Generated_Source\PSoC5/UART.c ****     * Summary:
 955:.\Generated_Source\PSoC5/UART.c ****     *  Configure which status bits trigger an interrupt event
 956:.\Generated_Source\PSoC5/UART.c ****     *
 957:.\Generated_Source\PSoC5/UART.c ****     * Parameters:
 958:.\Generated_Source\PSoC5/UART.c ****     *  intSrc: An or'd combination of the desired status bit masks (defined in
 959:.\Generated_Source\PSoC5/UART.c ****     *          the header file)
 960:.\Generated_Source\PSoC5/UART.c ****     *
 961:.\Generated_Source\PSoC5/UART.c ****     * Return:
 962:.\Generated_Source\PSoC5/UART.c ****     *  None.
 963:.\Generated_Source\PSoC5/UART.c ****     *
 964:.\Generated_Source\PSoC5/UART.c ****     * Theory:
 965:.\Generated_Source\PSoC5/UART.c ****     *  Enables the output of specific status bits to the interrupt controller
 966:.\Generated_Source\PSoC5/UART.c ****     *
 967:.\Generated_Source\PSoC5/UART.c ****     *******************************************************************************/
 968:.\Generated_Source\PSoC5/UART.c ****     void UART_SetTxInterruptMode(uint8 intSrc) 
 969:.\Generated_Source\PSoC5/UART.c ****     {
 1173              		.loc 1 969 0
 1174              		.cfi_startproc
 1175              		@ args = 0, pretend = 0, frame = 8
 1176              		@ frame_needed = 1, uses_anonymous_args = 0
 1177              		@ link register save eliminated.
 1178 0000 80B4     		push	{r7}
 1179              		.cfi_def_cfa_offset 4
 1180              		.cfi_offset 7, -4
 1181 0002 83B0     		sub	sp, sp, #12
 1182              		.cfi_def_cfa_offset 16
 1183 0004 00AF     		add	r7, sp, #0
 1184              		.cfi_def_cfa_register 7
 1185 0006 0346     		mov	r3, r0
 1186 0008 FB71     		strb	r3, [r7, #7]
 970:.\Generated_Source\PSoC5/UART.c ****         UART_TXSTATUS_MASK_REG = intSrc;
 1187              		.loc 1 970 0
 1188 000a 044B     		ldr	r3, .L77
 1189 000c FA79     		ldrb	r2, [r7, #7]
 1190 000e 1A70     		strb	r2, [r3]
 971:.\Generated_Source\PSoC5/UART.c ****     }
ARM GAS  C:\Users\SCOTTC~1\AppData\Local\Temp\ccs93tgd.s 			page 39


 1191              		.loc 1 971 0
 1192 0010 0C37     		adds	r7, r7, #12
 1193 0012 BD46     		mov	sp, r7
 1194              		@ sp needed
 1195 0014 5DF8047B 		ldr	r7, [sp], #4
 1196 0018 7047     		bx	lr
 1197              	.L78:
 1198 001a 00BF     		.align	2
 1199              	.L77:
 1200 001c 81640040 		.word	1073767553
 1201              		.cfi_endproc
 1202              	.LFE20:
 1203              		.size	UART_SetTxInterruptMode, .-UART_SetTxInterruptMode
 1204              		.section	.text.UART_WriteTxData,"ax",%progbits
 1205              		.align	2
 1206              		.global	UART_WriteTxData
 1207              		.thumb
 1208              		.thumb_func
 1209              		.type	UART_WriteTxData, %function
 1210              	UART_WriteTxData:
 1211              	.LFB21:
 972:.\Generated_Source\PSoC5/UART.c **** 
 973:.\Generated_Source\PSoC5/UART.c **** 
 974:.\Generated_Source\PSoC5/UART.c ****     /*******************************************************************************
 975:.\Generated_Source\PSoC5/UART.c ****     * Function Name: UART_WriteTxData
 976:.\Generated_Source\PSoC5/UART.c ****     ********************************************************************************
 977:.\Generated_Source\PSoC5/UART.c ****     *
 978:.\Generated_Source\PSoC5/UART.c ****     * Summary:
 979:.\Generated_Source\PSoC5/UART.c ****     *  Write a byte of data to the Transmit FIFO or TX buffer to be sent when the
 980:.\Generated_Source\PSoC5/UART.c ****     *  bus is available. WriteTxData sends a byte without checking for buffer room
 981:.\Generated_Source\PSoC5/UART.c ****     *  or status. It is up to the user to separately check status.
 982:.\Generated_Source\PSoC5/UART.c ****     *
 983:.\Generated_Source\PSoC5/UART.c ****     * Parameters:
 984:.\Generated_Source\PSoC5/UART.c ****     *  TXDataByte: byte of data to place in the transmit FIFO
 985:.\Generated_Source\PSoC5/UART.c ****     *
 986:.\Generated_Source\PSoC5/UART.c ****     * Return:
 987:.\Generated_Source\PSoC5/UART.c ****     * void
 988:.\Generated_Source\PSoC5/UART.c ****     *
 989:.\Generated_Source\PSoC5/UART.c ****     * Global Variables:
 990:.\Generated_Source\PSoC5/UART.c ****     *  UART_txBuffer - RAM buffer pointer for save data for transmission
 991:.\Generated_Source\PSoC5/UART.c ****     *  UART_txBufferWrite - cyclic index for write to txBuffer,
 992:.\Generated_Source\PSoC5/UART.c ****     *    incremented after each byte saved to buffer.
 993:.\Generated_Source\PSoC5/UART.c ****     *  UART_txBufferRead - cyclic index for read from txBuffer,
 994:.\Generated_Source\PSoC5/UART.c ****     *    checked to identify the condition to write to FIFO directly or to TX buffer
 995:.\Generated_Source\PSoC5/UART.c ****     *  UART_initVar - checked to identify that the component has been
 996:.\Generated_Source\PSoC5/UART.c ****     *    initialized.
 997:.\Generated_Source\PSoC5/UART.c ****     *
 998:.\Generated_Source\PSoC5/UART.c ****     * Reentrant:
 999:.\Generated_Source\PSoC5/UART.c ****     *  No.
1000:.\Generated_Source\PSoC5/UART.c ****     *
1001:.\Generated_Source\PSoC5/UART.c ****     *******************************************************************************/
1002:.\Generated_Source\PSoC5/UART.c ****     void UART_WriteTxData(uint8 txDataByte) 
1003:.\Generated_Source\PSoC5/UART.c ****     {
 1212              		.loc 1 1003 0
 1213              		.cfi_startproc
 1214              		@ args = 0, pretend = 0, frame = 8
 1215              		@ frame_needed = 1, uses_anonymous_args = 0
ARM GAS  C:\Users\SCOTTC~1\AppData\Local\Temp\ccs93tgd.s 			page 40


 1216 0000 80B5     		push	{r7, lr}
 1217              		.cfi_def_cfa_offset 8
 1218              		.cfi_offset 7, -8
 1219              		.cfi_offset 14, -4
 1220 0002 82B0     		sub	sp, sp, #8
 1221              		.cfi_def_cfa_offset 16
 1222 0004 00AF     		add	r7, sp, #0
 1223              		.cfi_def_cfa_register 7
 1224 0006 0346     		mov	r3, r0
 1225 0008 FB71     		strb	r3, [r7, #7]
1004:.\Generated_Source\PSoC5/UART.c ****         /* If not Initialized then skip this function*/
1005:.\Generated_Source\PSoC5/UART.c ****         if(UART_initVar != 0u)
 1226              		.loc 1 1005 0
 1227 000a 174B     		ldr	r3, .L84
 1228 000c 1B78     		ldrb	r3, [r3]	@ zero_extendqisi2
 1229 000e 002B     		cmp	r3, #0
 1230 0010 27D0     		beq	.L79
1006:.\Generated_Source\PSoC5/UART.c ****         {
1007:.\Generated_Source\PSoC5/UART.c ****             #if(UART_TXBUFFERSIZE > UART_FIFO_LENGTH)
1008:.\Generated_Source\PSoC5/UART.c **** 
1009:.\Generated_Source\PSoC5/UART.c ****                 /* Disable Tx interrupt. */
1010:.\Generated_Source\PSoC5/UART.c ****                 /* Protect variables that could change on interrupt. */
1011:.\Generated_Source\PSoC5/UART.c ****                 #if(UART_TX_INTERRUPT_ENABLED)
1012:.\Generated_Source\PSoC5/UART.c ****                     UART_DisableTxInt();
 1231              		.loc 1 1012 0
 1232 0012 FFF7FEFF 		bl	UART_DisableTxInt
1013:.\Generated_Source\PSoC5/UART.c ****                 #endif /* End UART_TX_INTERRUPT_ENABLED */
1014:.\Generated_Source\PSoC5/UART.c **** 
1015:.\Generated_Source\PSoC5/UART.c ****                 if( (UART_txBufferRead == UART_txBufferWrite) &&
 1233              		.loc 1 1015 0
 1234 0016 154B     		ldr	r3, .L84+4
 1235 0018 1B78     		ldrb	r3, [r3]
 1236 001a DAB2     		uxtb	r2, r3
 1237 001c 144B     		ldr	r3, .L84+8
 1238 001e 1B78     		ldrb	r3, [r3]	@ zero_extendqisi2
 1239 0020 9A42     		cmp	r2, r3
 1240 0022 0AD1     		bne	.L81
1016:.\Generated_Source\PSoC5/UART.c ****                     ((UART_TXSTATUS_REG & UART_TX_STS_FIFO_FULL) == 0u) )
 1241              		.loc 1 1016 0 discriminator 1
 1242 0024 134B     		ldr	r3, .L84+12
 1243 0026 1B78     		ldrb	r3, [r3]
 1244 0028 DBB2     		uxtb	r3, r3
 1245 002a 03F00403 		and	r3, r3, #4
1015:.\Generated_Source\PSoC5/UART.c ****                 if( (UART_txBufferRead == UART_txBufferWrite) &&
 1246              		.loc 1 1015 0 discriminator 1
 1247 002e 002B     		cmp	r3, #0
 1248 0030 03D1     		bne	.L81
1017:.\Generated_Source\PSoC5/UART.c ****                 {
1018:.\Generated_Source\PSoC5/UART.c ****                     /* Add directly to the FIFO. */
1019:.\Generated_Source\PSoC5/UART.c ****                     UART_TXDATA_REG = txDataByte;
 1249              		.loc 1 1019 0
 1250 0032 114B     		ldr	r3, .L84+16
 1251 0034 FA79     		ldrb	r2, [r7, #7]
 1252 0036 1A70     		strb	r2, [r3]
 1253 0038 11E0     		b	.L82
 1254              	.L81:
1020:.\Generated_Source\PSoC5/UART.c ****                 }
ARM GAS  C:\Users\SCOTTC~1\AppData\Local\Temp\ccs93tgd.s 			page 41


1021:.\Generated_Source\PSoC5/UART.c ****                 else
1022:.\Generated_Source\PSoC5/UART.c ****                 {
1023:.\Generated_Source\PSoC5/UART.c ****                     if(UART_txBufferWrite >= UART_TXBUFFERSIZE)
 1255              		.loc 1 1023 0
 1256 003a 0D4B     		ldr	r3, .L84+8
 1257 003c 1B78     		ldrb	r3, [r3]	@ zero_extendqisi2
 1258 003e FF2B     		cmp	r3, #255
 1259 0040 02D1     		bne	.L83
1024:.\Generated_Source\PSoC5/UART.c ****                     {
1025:.\Generated_Source\PSoC5/UART.c ****                         UART_txBufferWrite = 0u;
 1260              		.loc 1 1025 0
 1261 0042 0B4B     		ldr	r3, .L84+8
 1262 0044 0022     		movs	r2, #0
 1263 0046 1A70     		strb	r2, [r3]
 1264              	.L83:
1026:.\Generated_Source\PSoC5/UART.c ****                     }
1027:.\Generated_Source\PSoC5/UART.c **** 
1028:.\Generated_Source\PSoC5/UART.c ****                     UART_txBuffer[UART_txBufferWrite] = txDataByte;
 1265              		.loc 1 1028 0
 1266 0048 094B     		ldr	r3, .L84+8
 1267 004a 1B78     		ldrb	r3, [r3]	@ zero_extendqisi2
 1268 004c 0B4A     		ldr	r2, .L84+20
 1269 004e F979     		ldrb	r1, [r7, #7]
 1270 0050 D154     		strb	r1, [r2, r3]
1029:.\Generated_Source\PSoC5/UART.c **** 
1030:.\Generated_Source\PSoC5/UART.c ****                     /* Add to the software buffer. */
1031:.\Generated_Source\PSoC5/UART.c ****                     UART_txBufferWrite++;
 1271              		.loc 1 1031 0
 1272 0052 074B     		ldr	r3, .L84+8
 1273 0054 1B78     		ldrb	r3, [r3]	@ zero_extendqisi2
 1274 0056 0133     		adds	r3, r3, #1
 1275 0058 DAB2     		uxtb	r2, r3
 1276 005a 054B     		ldr	r3, .L84+8
 1277 005c 1A70     		strb	r2, [r3]
 1278              	.L82:
1032:.\Generated_Source\PSoC5/UART.c **** 
1033:.\Generated_Source\PSoC5/UART.c ****                 }
1034:.\Generated_Source\PSoC5/UART.c **** 
1035:.\Generated_Source\PSoC5/UART.c ****                 /* Enable Tx interrupt. */
1036:.\Generated_Source\PSoC5/UART.c ****                 #if(UART_TX_INTERRUPT_ENABLED)
1037:.\Generated_Source\PSoC5/UART.c ****                     UART_EnableTxInt();
 1279              		.loc 1 1037 0
 1280 005e FFF7FEFF 		bl	UART_EnableTxInt
 1281              	.L79:
1038:.\Generated_Source\PSoC5/UART.c ****                 #endif /* End UART_TX_INTERRUPT_ENABLED */
1039:.\Generated_Source\PSoC5/UART.c **** 
1040:.\Generated_Source\PSoC5/UART.c ****             #else /* UART_TXBUFFERSIZE > UART_FIFO_LENGTH */
1041:.\Generated_Source\PSoC5/UART.c **** 
1042:.\Generated_Source\PSoC5/UART.c ****                 /* Add directly to the FIFO. */
1043:.\Generated_Source\PSoC5/UART.c ****                 UART_TXDATA_REG = txDataByte;
1044:.\Generated_Source\PSoC5/UART.c **** 
1045:.\Generated_Source\PSoC5/UART.c ****             #endif /* End UART_TXBUFFERSIZE > UART_FIFO_LENGTH */
1046:.\Generated_Source\PSoC5/UART.c ****         }
1047:.\Generated_Source\PSoC5/UART.c ****     }
 1282              		.loc 1 1047 0
 1283 0062 0837     		adds	r7, r7, #8
 1284 0064 BD46     		mov	sp, r7
ARM GAS  C:\Users\SCOTTC~1\AppData\Local\Temp\ccs93tgd.s 			page 42


 1285              		@ sp needed
 1286 0066 80BD     		pop	{r7, pc}
 1287              	.L85:
 1288              		.align	2
 1289              	.L84:
 1290 0068 00000000 		.word	UART_initVar
 1291 006c 00000000 		.word	UART_txBufferRead
 1292 0070 00000000 		.word	UART_txBufferWrite
 1293 0074 61640040 		.word	1073767521
 1294 0078 41640040 		.word	1073767489
 1295 007c 00000000 		.word	UART_txBuffer
 1296              		.cfi_endproc
 1297              	.LFE21:
 1298              		.size	UART_WriteTxData, .-UART_WriteTxData
 1299              		.section	.text.UART_ReadTxStatus,"ax",%progbits
 1300              		.align	2
 1301              		.global	UART_ReadTxStatus
 1302              		.thumb
 1303              		.thumb_func
 1304              		.type	UART_ReadTxStatus, %function
 1305              	UART_ReadTxStatus:
 1306              	.LFB22:
1048:.\Generated_Source\PSoC5/UART.c **** 
1049:.\Generated_Source\PSoC5/UART.c **** 
1050:.\Generated_Source\PSoC5/UART.c ****     /*******************************************************************************
1051:.\Generated_Source\PSoC5/UART.c ****     * Function Name: UART_ReadTxStatus
1052:.\Generated_Source\PSoC5/UART.c ****     ********************************************************************************
1053:.\Generated_Source\PSoC5/UART.c ****     *
1054:.\Generated_Source\PSoC5/UART.c ****     * Summary:
1055:.\Generated_Source\PSoC5/UART.c ****     *  Read the status register for the component
1056:.\Generated_Source\PSoC5/UART.c ****     *
1057:.\Generated_Source\PSoC5/UART.c ****     * Parameters:
1058:.\Generated_Source\PSoC5/UART.c ****     *  None.
1059:.\Generated_Source\PSoC5/UART.c ****     *
1060:.\Generated_Source\PSoC5/UART.c ****     * Return:
1061:.\Generated_Source\PSoC5/UART.c ****     *  Contents of the status register
1062:.\Generated_Source\PSoC5/UART.c ****     *
1063:.\Generated_Source\PSoC5/UART.c ****     * Theory:
1064:.\Generated_Source\PSoC5/UART.c ****     *  This function reads the status register which is clear on read. It is up to
1065:.\Generated_Source\PSoC5/UART.c ****     *  the user to handle all bits in this return value accordingly, even if the bit
1066:.\Generated_Source\PSoC5/UART.c ****     *  was not enabled as an interrupt source the event happened and must be handled
1067:.\Generated_Source\PSoC5/UART.c ****     *  accordingly.
1068:.\Generated_Source\PSoC5/UART.c ****     *
1069:.\Generated_Source\PSoC5/UART.c ****     *******************************************************************************/
1070:.\Generated_Source\PSoC5/UART.c ****     uint8 UART_ReadTxStatus(void) 
1071:.\Generated_Source\PSoC5/UART.c ****     {
 1307              		.loc 1 1071 0
 1308              		.cfi_startproc
 1309              		@ args = 0, pretend = 0, frame = 0
 1310              		@ frame_needed = 1, uses_anonymous_args = 0
 1311              		@ link register save eliminated.
 1312 0000 80B4     		push	{r7}
 1313              		.cfi_def_cfa_offset 4
 1314              		.cfi_offset 7, -4
 1315 0002 00AF     		add	r7, sp, #0
 1316              		.cfi_def_cfa_register 7
1072:.\Generated_Source\PSoC5/UART.c ****         return(UART_TXSTATUS_REG);
ARM GAS  C:\Users\SCOTTC~1\AppData\Local\Temp\ccs93tgd.s 			page 43


 1317              		.loc 1 1072 0
 1318 0004 034B     		ldr	r3, .L88
 1319 0006 1B78     		ldrb	r3, [r3]
 1320 0008 DBB2     		uxtb	r3, r3
1073:.\Generated_Source\PSoC5/UART.c ****     }
 1321              		.loc 1 1073 0
 1322 000a 1846     		mov	r0, r3
 1323 000c BD46     		mov	sp, r7
 1324              		@ sp needed
 1325 000e 5DF8047B 		ldr	r7, [sp], #4
 1326 0012 7047     		bx	lr
 1327              	.L89:
 1328              		.align	2
 1329              	.L88:
 1330 0014 61640040 		.word	1073767521
 1331              		.cfi_endproc
 1332              	.LFE22:
 1333              		.size	UART_ReadTxStatus, .-UART_ReadTxStatus
 1334              		.section	.text.UART_PutChar,"ax",%progbits
 1335              		.align	2
 1336              		.global	UART_PutChar
 1337              		.thumb
 1338              		.thumb_func
 1339              		.type	UART_PutChar, %function
 1340              	UART_PutChar:
 1341              	.LFB23:
1074:.\Generated_Source\PSoC5/UART.c **** 
1075:.\Generated_Source\PSoC5/UART.c **** 
1076:.\Generated_Source\PSoC5/UART.c ****     /*******************************************************************************
1077:.\Generated_Source\PSoC5/UART.c ****     * Function Name: UART_PutChar
1078:.\Generated_Source\PSoC5/UART.c ****     ********************************************************************************
1079:.\Generated_Source\PSoC5/UART.c ****     *
1080:.\Generated_Source\PSoC5/UART.c ****     * Summary:
1081:.\Generated_Source\PSoC5/UART.c ****     *  Wait to send byte until TX register or buffer has room.
1082:.\Generated_Source\PSoC5/UART.c ****     *
1083:.\Generated_Source\PSoC5/UART.c ****     * Parameters:
1084:.\Generated_Source\PSoC5/UART.c ****     *  txDataByte: The 8-bit data value to send across the UART.
1085:.\Generated_Source\PSoC5/UART.c ****     *
1086:.\Generated_Source\PSoC5/UART.c ****     * Return:
1087:.\Generated_Source\PSoC5/UART.c ****     *  None.
1088:.\Generated_Source\PSoC5/UART.c ****     *
1089:.\Generated_Source\PSoC5/UART.c ****     * Global Variables:
1090:.\Generated_Source\PSoC5/UART.c ****     *  UART_txBuffer - RAM buffer pointer for save data for transmission
1091:.\Generated_Source\PSoC5/UART.c ****     *  UART_txBufferWrite - cyclic index for write to txBuffer,
1092:.\Generated_Source\PSoC5/UART.c ****     *     checked to identify free space in txBuffer and incremented after each byte
1093:.\Generated_Source\PSoC5/UART.c ****     *     saved to buffer.
1094:.\Generated_Source\PSoC5/UART.c ****     *  UART_txBufferRead - cyclic index for read from txBuffer,
1095:.\Generated_Source\PSoC5/UART.c ****     *     checked to identify free space in txBuffer.
1096:.\Generated_Source\PSoC5/UART.c ****     *  UART_initVar - checked to identify that the component has been
1097:.\Generated_Source\PSoC5/UART.c ****     *     initialized.
1098:.\Generated_Source\PSoC5/UART.c ****     *
1099:.\Generated_Source\PSoC5/UART.c ****     * Reentrant:
1100:.\Generated_Source\PSoC5/UART.c ****     *  No.
1101:.\Generated_Source\PSoC5/UART.c ****     *
1102:.\Generated_Source\PSoC5/UART.c ****     * Theory:
1103:.\Generated_Source\PSoC5/UART.c ****     *  Allows the user to transmit any byte of data in a single transfer
1104:.\Generated_Source\PSoC5/UART.c ****     *
ARM GAS  C:\Users\SCOTTC~1\AppData\Local\Temp\ccs93tgd.s 			page 44


1105:.\Generated_Source\PSoC5/UART.c ****     *******************************************************************************/
1106:.\Generated_Source\PSoC5/UART.c ****     void UART_PutChar(uint8 txDataByte) 
1107:.\Generated_Source\PSoC5/UART.c ****     {
 1342              		.loc 1 1107 0
 1343              		.cfi_startproc
 1344              		@ args = 0, pretend = 0, frame = 16
 1345              		@ frame_needed = 1, uses_anonymous_args = 0
 1346              		@ link register save eliminated.
 1347 0000 80B4     		push	{r7}
 1348              		.cfi_def_cfa_offset 4
 1349              		.cfi_offset 7, -4
 1350 0002 85B0     		sub	sp, sp, #20
 1351              		.cfi_def_cfa_offset 24
 1352 0004 00AF     		add	r7, sp, #0
 1353              		.cfi_def_cfa_register 7
 1354 0006 0346     		mov	r3, r0
 1355 0008 FB71     		strb	r3, [r7, #7]
 1356              	.L93:
1108:.\Generated_Source\PSoC5/UART.c ****             #if(UART_TXBUFFERSIZE > UART_FIFO_LENGTH)
1109:.\Generated_Source\PSoC5/UART.c ****                 /* The temporary output pointer is used since it takes two instructions
1110:.\Generated_Source\PSoC5/UART.c ****                 *  to increment with a wrap, and we can't risk doing that with the real
1111:.\Generated_Source\PSoC5/UART.c ****                 *  pointer and getting an interrupt in between instructions.
1112:.\Generated_Source\PSoC5/UART.c ****                 */
1113:.\Generated_Source\PSoC5/UART.c ****                 uint8 loc_txBufferWrite;
1114:.\Generated_Source\PSoC5/UART.c ****                 uint8 loc_txBufferRead;
1115:.\Generated_Source\PSoC5/UART.c **** 
1116:.\Generated_Source\PSoC5/UART.c ****                 do{
1117:.\Generated_Source\PSoC5/UART.c ****                     /* Block if software buffer is full, so we don't overwrite. */
1118:.\Generated_Source\PSoC5/UART.c ****                     #if ((UART_TXBUFFERSIZE > UART_MAX_BYTE_VALUE) && (CY_PSOC3))
1119:.\Generated_Source\PSoC5/UART.c ****                         /* Disable TX interrupt to protect variables that could change on interrupt
1120:.\Generated_Source\PSoC5/UART.c ****                         CyIntDisable(UART_TX_VECT_NUM);
1121:.\Generated_Source\PSoC5/UART.c ****                     #endif /* End TXBUFFERSIZE > 255 */
1122:.\Generated_Source\PSoC5/UART.c ****                     loc_txBufferWrite = UART_txBufferWrite;
 1357              		.loc 1 1122 0
 1358 000a 204B     		ldr	r3, .L97
 1359 000c 1B78     		ldrb	r3, [r3]
 1360 000e FB73     		strb	r3, [r7, #15]
1123:.\Generated_Source\PSoC5/UART.c ****                     loc_txBufferRead = UART_txBufferRead;
 1361              		.loc 1 1123 0
 1362 0010 1F4B     		ldr	r3, .L97+4
 1363 0012 1B78     		ldrb	r3, [r3]
 1364 0014 BB73     		strb	r3, [r7, #14]
1124:.\Generated_Source\PSoC5/UART.c ****                     #if ((UART_TXBUFFERSIZE > UART_MAX_BYTE_VALUE) && (CY_PSOC3))
1125:.\Generated_Source\PSoC5/UART.c ****                         /* Enable interrupt to continue transmission */
1126:.\Generated_Source\PSoC5/UART.c ****                         CyIntEnable(UART_TX_VECT_NUM);
1127:.\Generated_Source\PSoC5/UART.c ****                     #endif /* End TXBUFFERSIZE > 255 */
1128:.\Generated_Source\PSoC5/UART.c ****                 }while( (loc_txBufferWrite < loc_txBufferRead) ? (loc_txBufferWrite == (loc_txBuffe
 1365              		.loc 1 1128 0
 1366 0016 FA7B     		ldrb	r2, [r7, #15]	@ zero_extendqisi2
 1367 0018 BB7B     		ldrb	r3, [r7, #14]	@ zero_extendqisi2
 1368 001a 9A42     		cmp	r2, r3
 1369 001c 08D2     		bcs	.L91
 1370              		.loc 1 1128 0 is_stmt 0 discriminator 1
 1371 001e FA7B     		ldrb	r2, [r7, #15]	@ zero_extendqisi2
 1372 0020 BB7B     		ldrb	r3, [r7, #14]	@ zero_extendqisi2
 1373 0022 013B     		subs	r3, r3, #1
 1374 0024 9A42     		cmp	r2, r3
ARM GAS  C:\Users\SCOTTC~1\AppData\Local\Temp\ccs93tgd.s 			page 45


 1375 0026 14BF     		ite	ne
 1376 0028 0023     		movne	r3, #0
 1377 002a 0123     		moveq	r3, #1
 1378 002c DBB2     		uxtb	r3, r3
 1379 002e 07E0     		b	.L92
 1380              	.L91:
1129:.\Generated_Source\PSoC5/UART.c ****                                         ((loc_txBufferWrite - loc_txBufferRead) ==
 1381              		.loc 1 1129 0 is_stmt 1 discriminator 2
 1382 0030 FA7B     		ldrb	r2, [r7, #15]	@ zero_extendqisi2
 1383 0032 BB7B     		ldrb	r3, [r7, #14]	@ zero_extendqisi2
 1384 0034 D31A     		subs	r3, r2, r3
1128:.\Generated_Source\PSoC5/UART.c ****                 }while( (loc_txBufferWrite < loc_txBufferRead) ? (loc_txBufferWrite == (loc_txBuffe
 1385              		.loc 1 1128 0 discriminator 2
 1386 0036 FE2B     		cmp	r3, #254
 1387 0038 14BF     		ite	ne
 1388 003a 0023     		movne	r3, #0
 1389 003c 0123     		moveq	r3, #1
 1390 003e DBB2     		uxtb	r3, r3
 1391              	.L92:
1130:.\Generated_Source\PSoC5/UART.c ****                                         (uint8)(UART_TXBUFFERSIZE - 1u)) );
 1392              		.loc 1 1130 0
 1393 0040 002B     		cmp	r3, #0
 1394 0042 E2D1     		bne	.L93
1131:.\Generated_Source\PSoC5/UART.c **** 
1132:.\Generated_Source\PSoC5/UART.c ****                 if( (loc_txBufferRead == loc_txBufferWrite) &&
 1395              		.loc 1 1132 0
 1396 0044 BA7B     		ldrb	r2, [r7, #14]	@ zero_extendqisi2
 1397 0046 FB7B     		ldrb	r3, [r7, #15]	@ zero_extendqisi2
 1398 0048 9A42     		cmp	r2, r3
 1399 004a 0AD1     		bne	.L94
1133:.\Generated_Source\PSoC5/UART.c ****                     ((UART_TXSTATUS_REG & UART_TX_STS_FIFO_FULL) == 0u) )
 1400              		.loc 1 1133 0 discriminator 1
 1401 004c 114B     		ldr	r3, .L97+8
 1402 004e 1B78     		ldrb	r3, [r3]
 1403 0050 DBB2     		uxtb	r3, r3
 1404 0052 03F00403 		and	r3, r3, #4
1132:.\Generated_Source\PSoC5/UART.c ****                 if( (loc_txBufferRead == loc_txBufferWrite) &&
 1405              		.loc 1 1132 0 discriminator 1
 1406 0056 002B     		cmp	r3, #0
 1407 0058 03D1     		bne	.L94
1134:.\Generated_Source\PSoC5/UART.c ****                 {
1135:.\Generated_Source\PSoC5/UART.c ****                     /* Add directly to the FIFO. */
1136:.\Generated_Source\PSoC5/UART.c ****                     UART_TXDATA_REG = txDataByte;
 1408              		.loc 1 1136 0
 1409 005a 0F4B     		ldr	r3, .L97+12
 1410 005c FA79     		ldrb	r2, [r7, #7]
 1411 005e 1A70     		strb	r2, [r3]
 1412 0060 0EE0     		b	.L90
 1413              	.L94:
1137:.\Generated_Source\PSoC5/UART.c ****                 }
1138:.\Generated_Source\PSoC5/UART.c ****                 else
1139:.\Generated_Source\PSoC5/UART.c ****                 {
1140:.\Generated_Source\PSoC5/UART.c ****                     if(loc_txBufferWrite >= UART_TXBUFFERSIZE)
 1414              		.loc 1 1140 0
 1415 0062 FB7B     		ldrb	r3, [r7, #15]	@ zero_extendqisi2
 1416 0064 FF2B     		cmp	r3, #255
 1417 0066 01D1     		bne	.L96
ARM GAS  C:\Users\SCOTTC~1\AppData\Local\Temp\ccs93tgd.s 			page 46


1141:.\Generated_Source\PSoC5/UART.c ****                     {
1142:.\Generated_Source\PSoC5/UART.c ****                         loc_txBufferWrite = 0u;
 1418              		.loc 1 1142 0
 1419 0068 0023     		movs	r3, #0
 1420 006a FB73     		strb	r3, [r7, #15]
 1421              	.L96:
1143:.\Generated_Source\PSoC5/UART.c ****                     }
1144:.\Generated_Source\PSoC5/UART.c ****                     /* Add to the software buffer. */
1145:.\Generated_Source\PSoC5/UART.c ****                     UART_txBuffer[loc_txBufferWrite] = txDataByte;
 1422              		.loc 1 1145 0
 1423 006c FB7B     		ldrb	r3, [r7, #15]	@ zero_extendqisi2
 1424 006e 0B4A     		ldr	r2, .L97+16
 1425 0070 F979     		ldrb	r1, [r7, #7]
 1426 0072 D154     		strb	r1, [r2, r3]
1146:.\Generated_Source\PSoC5/UART.c ****                     loc_txBufferWrite++;
 1427              		.loc 1 1146 0
 1428 0074 FB7B     		ldrb	r3, [r7, #15]	@ zero_extendqisi2
 1429 0076 0133     		adds	r3, r3, #1
 1430 0078 FB73     		strb	r3, [r7, #15]
1147:.\Generated_Source\PSoC5/UART.c **** 
1148:.\Generated_Source\PSoC5/UART.c ****                     /* Finally, update the real output pointer */
1149:.\Generated_Source\PSoC5/UART.c ****                     #if ((UART_TXBUFFERSIZE > UART_MAX_BYTE_VALUE) && (CY_PSOC3))
1150:.\Generated_Source\PSoC5/UART.c ****                         CyIntDisable(UART_TX_VECT_NUM);
1151:.\Generated_Source\PSoC5/UART.c ****                     #endif /* End TXBUFFERSIZE > 255 */
1152:.\Generated_Source\PSoC5/UART.c ****                     UART_txBufferWrite = loc_txBufferWrite;
 1431              		.loc 1 1152 0
 1432 007a 044B     		ldr	r3, .L97
 1433 007c FA7B     		ldrb	r2, [r7, #15]
 1434 007e 1A70     		strb	r2, [r3]
 1435              	.L90:
1153:.\Generated_Source\PSoC5/UART.c ****                     #if ((UART_TXBUFFERSIZE > UART_MAX_BYTE_VALUE) && (CY_PSOC3))
1154:.\Generated_Source\PSoC5/UART.c ****                         CyIntEnable(UART_TX_VECT_NUM);
1155:.\Generated_Source\PSoC5/UART.c ****                     #endif /* End TXBUFFERSIZE > 255 */
1156:.\Generated_Source\PSoC5/UART.c ****                 }
1157:.\Generated_Source\PSoC5/UART.c **** 
1158:.\Generated_Source\PSoC5/UART.c ****             #else /* UART_TXBUFFERSIZE > UART_FIFO_LENGTH */
1159:.\Generated_Source\PSoC5/UART.c **** 
1160:.\Generated_Source\PSoC5/UART.c ****                 while((UART_TXSTATUS_REG & UART_TX_STS_FIFO_FULL) != 0u)
1161:.\Generated_Source\PSoC5/UART.c ****                 {
1162:.\Generated_Source\PSoC5/UART.c ****                     ; /* Wait for room in the FIFO. */
1163:.\Generated_Source\PSoC5/UART.c ****                 }
1164:.\Generated_Source\PSoC5/UART.c **** 
1165:.\Generated_Source\PSoC5/UART.c ****                 /* Add directly to the FIFO. */
1166:.\Generated_Source\PSoC5/UART.c ****                 UART_TXDATA_REG = txDataByte;
1167:.\Generated_Source\PSoC5/UART.c **** 
1168:.\Generated_Source\PSoC5/UART.c ****             #endif /* End UART_TXBUFFERSIZE > UART_FIFO_LENGTH */
1169:.\Generated_Source\PSoC5/UART.c ****     }
 1436              		.loc 1 1169 0
 1437 0080 1437     		adds	r7, r7, #20
 1438 0082 BD46     		mov	sp, r7
 1439              		@ sp needed
 1440 0084 5DF8047B 		ldr	r7, [sp], #4
 1441 0088 7047     		bx	lr
 1442              	.L98:
 1443 008a 00BF     		.align	2
 1444              	.L97:
 1445 008c 00000000 		.word	UART_txBufferWrite
ARM GAS  C:\Users\SCOTTC~1\AppData\Local\Temp\ccs93tgd.s 			page 47


 1446 0090 00000000 		.word	UART_txBufferRead
 1447 0094 61640040 		.word	1073767521
 1448 0098 41640040 		.word	1073767489
 1449 009c 00000000 		.word	UART_txBuffer
 1450              		.cfi_endproc
 1451              	.LFE23:
 1452              		.size	UART_PutChar, .-UART_PutChar
 1453              		.section	.text.UART_PutString,"ax",%progbits
 1454              		.align	2
 1455              		.global	UART_PutString
 1456              		.thumb
 1457              		.thumb_func
 1458              		.type	UART_PutString, %function
 1459              	UART_PutString:
 1460              	.LFB24:
1170:.\Generated_Source\PSoC5/UART.c **** 
1171:.\Generated_Source\PSoC5/UART.c **** 
1172:.\Generated_Source\PSoC5/UART.c ****     /*******************************************************************************
1173:.\Generated_Source\PSoC5/UART.c ****     * Function Name: UART_PutString
1174:.\Generated_Source\PSoC5/UART.c ****     ********************************************************************************
1175:.\Generated_Source\PSoC5/UART.c ****     *
1176:.\Generated_Source\PSoC5/UART.c ****     * Summary:
1177:.\Generated_Source\PSoC5/UART.c ****     *  Write a Sequence of bytes on the Transmit line. Data comes from RAM or ROM.
1178:.\Generated_Source\PSoC5/UART.c ****     *
1179:.\Generated_Source\PSoC5/UART.c ****     * Parameters:
1180:.\Generated_Source\PSoC5/UART.c ****     *  string: char pointer to character string of Data to Send.
1181:.\Generated_Source\PSoC5/UART.c ****     *
1182:.\Generated_Source\PSoC5/UART.c ****     * Return:
1183:.\Generated_Source\PSoC5/UART.c ****     *  None.
1184:.\Generated_Source\PSoC5/UART.c ****     *
1185:.\Generated_Source\PSoC5/UART.c ****     * Global Variables:
1186:.\Generated_Source\PSoC5/UART.c ****     *  UART_initVar - checked to identify that the component has been
1187:.\Generated_Source\PSoC5/UART.c ****     *     initialized.
1188:.\Generated_Source\PSoC5/UART.c ****     *
1189:.\Generated_Source\PSoC5/UART.c ****     * Reentrant:
1190:.\Generated_Source\PSoC5/UART.c ****     *  No.
1191:.\Generated_Source\PSoC5/UART.c ****     *
1192:.\Generated_Source\PSoC5/UART.c ****     * Theory:
1193:.\Generated_Source\PSoC5/UART.c ****     *  This function will block if there is not enough memory to place the whole
1194:.\Generated_Source\PSoC5/UART.c ****     *  string, it will block until the entire string has been written to the
1195:.\Generated_Source\PSoC5/UART.c ****     *  transmit buffer.
1196:.\Generated_Source\PSoC5/UART.c ****     *
1197:.\Generated_Source\PSoC5/UART.c ****     *******************************************************************************/
1198:.\Generated_Source\PSoC5/UART.c ****     void UART_PutString(const char8 string[]) 
1199:.\Generated_Source\PSoC5/UART.c ****     {
 1461              		.loc 1 1199 0
 1462              		.cfi_startproc
 1463              		@ args = 0, pretend = 0, frame = 16
 1464              		@ frame_needed = 1, uses_anonymous_args = 0
 1465 0000 80B5     		push	{r7, lr}
 1466              		.cfi_def_cfa_offset 8
 1467              		.cfi_offset 7, -8
 1468              		.cfi_offset 14, -4
 1469 0002 84B0     		sub	sp, sp, #16
 1470              		.cfi_def_cfa_offset 24
 1471 0004 00AF     		add	r7, sp, #0
 1472              		.cfi_def_cfa_register 7
ARM GAS  C:\Users\SCOTTC~1\AppData\Local\Temp\ccs93tgd.s 			page 48


 1473 0006 7860     		str	r0, [r7, #4]
1200:.\Generated_Source\PSoC5/UART.c ****         uint16 buf_index = 0u;
 1474              		.loc 1 1200 0
 1475 0008 0023     		movs	r3, #0
 1476 000a FB81     		strh	r3, [r7, #14]	@ movhi
1201:.\Generated_Source\PSoC5/UART.c ****         /* If not Initialized then skip this function*/
1202:.\Generated_Source\PSoC5/UART.c ****         if(UART_initVar != 0u)
 1477              		.loc 1 1202 0
 1478 000c 0B4B     		ldr	r3, .L103
 1479 000e 1B78     		ldrb	r3, [r3]	@ zero_extendqisi2
 1480 0010 002B     		cmp	r3, #0
 1481 0012 10D0     		beq	.L99
1203:.\Generated_Source\PSoC5/UART.c ****         {
1204:.\Generated_Source\PSoC5/UART.c ****             /* This is a blocking function, it will not exit until all data is sent*/
1205:.\Generated_Source\PSoC5/UART.c ****             while(string[buf_index] != (char8)0)
 1482              		.loc 1 1205 0
 1483 0014 09E0     		b	.L101
 1484              	.L102:
1206:.\Generated_Source\PSoC5/UART.c ****             {
1207:.\Generated_Source\PSoC5/UART.c ****                 UART_PutChar((uint8)string[buf_index]);
 1485              		.loc 1 1207 0
 1486 0016 FB89     		ldrh	r3, [r7, #14]
 1487 0018 7A68     		ldr	r2, [r7, #4]
 1488 001a 1344     		add	r3, r3, r2
 1489 001c 1B78     		ldrb	r3, [r3]	@ zero_extendqisi2
 1490 001e 1846     		mov	r0, r3
 1491 0020 FFF7FEFF 		bl	UART_PutChar
1208:.\Generated_Source\PSoC5/UART.c ****                 buf_index++;
 1492              		.loc 1 1208 0
 1493 0024 FB89     		ldrh	r3, [r7, #14]
 1494 0026 0133     		adds	r3, r3, #1
 1495 0028 FB81     		strh	r3, [r7, #14]	@ movhi
 1496              	.L101:
1205:.\Generated_Source\PSoC5/UART.c ****             while(string[buf_index] != (char8)0)
 1497              		.loc 1 1205 0 discriminator 1
 1498 002a FB89     		ldrh	r3, [r7, #14]
 1499 002c 7A68     		ldr	r2, [r7, #4]
 1500 002e 1344     		add	r3, r3, r2
 1501 0030 1B78     		ldrb	r3, [r3]	@ zero_extendqisi2
 1502 0032 002B     		cmp	r3, #0
 1503 0034 EFD1     		bne	.L102
 1504              	.L99:
1209:.\Generated_Source\PSoC5/UART.c ****             }
1210:.\Generated_Source\PSoC5/UART.c ****         }
1211:.\Generated_Source\PSoC5/UART.c ****     }
 1505              		.loc 1 1211 0
 1506 0036 1037     		adds	r7, r7, #16
 1507 0038 BD46     		mov	sp, r7
 1508              		@ sp needed
 1509 003a 80BD     		pop	{r7, pc}
 1510              	.L104:
 1511              		.align	2
 1512              	.L103:
 1513 003c 00000000 		.word	UART_initVar
 1514              		.cfi_endproc
 1515              	.LFE24:
 1516              		.size	UART_PutString, .-UART_PutString
ARM GAS  C:\Users\SCOTTC~1\AppData\Local\Temp\ccs93tgd.s 			page 49


 1517              		.section	.text.UART_PutArray,"ax",%progbits
 1518              		.align	2
 1519              		.global	UART_PutArray
 1520              		.thumb
 1521              		.thumb_func
 1522              		.type	UART_PutArray, %function
 1523              	UART_PutArray:
 1524              	.LFB25:
1212:.\Generated_Source\PSoC5/UART.c **** 
1213:.\Generated_Source\PSoC5/UART.c **** 
1214:.\Generated_Source\PSoC5/UART.c ****     /*******************************************************************************
1215:.\Generated_Source\PSoC5/UART.c ****     * Function Name: UART_PutArray
1216:.\Generated_Source\PSoC5/UART.c ****     ********************************************************************************
1217:.\Generated_Source\PSoC5/UART.c ****     *
1218:.\Generated_Source\PSoC5/UART.c ****     * Summary:
1219:.\Generated_Source\PSoC5/UART.c ****     *  Write a Sequence of bytes on the Transmit line. Data comes from RAM or ROM.
1220:.\Generated_Source\PSoC5/UART.c ****     *
1221:.\Generated_Source\PSoC5/UART.c ****     * Parameters:
1222:.\Generated_Source\PSoC5/UART.c ****     *  string: Address of the memory array residing in RAM or ROM.
1223:.\Generated_Source\PSoC5/UART.c ****     *  byteCount: Number of Bytes to be transmitted.
1224:.\Generated_Source\PSoC5/UART.c ****     *
1225:.\Generated_Source\PSoC5/UART.c ****     * Return:
1226:.\Generated_Source\PSoC5/UART.c ****     *  None.
1227:.\Generated_Source\PSoC5/UART.c ****     *
1228:.\Generated_Source\PSoC5/UART.c ****     * Global Variables:
1229:.\Generated_Source\PSoC5/UART.c ****     *  UART_initVar - checked to identify that the component has been
1230:.\Generated_Source\PSoC5/UART.c ****     *     initialized.
1231:.\Generated_Source\PSoC5/UART.c ****     *
1232:.\Generated_Source\PSoC5/UART.c ****     * Reentrant:
1233:.\Generated_Source\PSoC5/UART.c ****     *  No.
1234:.\Generated_Source\PSoC5/UART.c ****     *
1235:.\Generated_Source\PSoC5/UART.c ****     *******************************************************************************/
1236:.\Generated_Source\PSoC5/UART.c ****     void UART_PutArray(const uint8 string[], uint8 byteCount)
1237:.\Generated_Source\PSoC5/UART.c ****                                                                     
1238:.\Generated_Source\PSoC5/UART.c ****     {
 1525              		.loc 1 1238 0
 1526              		.cfi_startproc
 1527              		@ args = 0, pretend = 0, frame = 16
 1528              		@ frame_needed = 1, uses_anonymous_args = 0
 1529 0000 80B5     		push	{r7, lr}
 1530              		.cfi_def_cfa_offset 8
 1531              		.cfi_offset 7, -8
 1532              		.cfi_offset 14, -4
 1533 0002 84B0     		sub	sp, sp, #16
 1534              		.cfi_def_cfa_offset 24
 1535 0004 00AF     		add	r7, sp, #0
 1536              		.cfi_def_cfa_register 7
 1537 0006 7860     		str	r0, [r7, #4]
 1538 0008 0B46     		mov	r3, r1
 1539 000a FB70     		strb	r3, [r7, #3]
1239:.\Generated_Source\PSoC5/UART.c ****         uint8 buf_index = 0u;
 1540              		.loc 1 1239 0
 1541 000c 0023     		movs	r3, #0
 1542 000e FB73     		strb	r3, [r7, #15]
1240:.\Generated_Source\PSoC5/UART.c ****         /* If not Initialized then skip this function*/
1241:.\Generated_Source\PSoC5/UART.c ****         if(UART_initVar != 0u)
 1543              		.loc 1 1241 0
ARM GAS  C:\Users\SCOTTC~1\AppData\Local\Temp\ccs93tgd.s 			page 50


 1544 0010 0A4B     		ldr	r3, .L108
 1545 0012 1B78     		ldrb	r3, [r3]	@ zero_extendqisi2
 1546 0014 002B     		cmp	r3, #0
 1547 0016 0DD0     		beq	.L105
 1548              	.L107:
1242:.\Generated_Source\PSoC5/UART.c ****         {
1243:.\Generated_Source\PSoC5/UART.c ****             do
1244:.\Generated_Source\PSoC5/UART.c ****             {
1245:.\Generated_Source\PSoC5/UART.c ****                 UART_PutChar(string[buf_index]);
 1549              		.loc 1 1245 0 discriminator 1
 1550 0018 FB7B     		ldrb	r3, [r7, #15]	@ zero_extendqisi2
 1551 001a 7A68     		ldr	r2, [r7, #4]
 1552 001c 1344     		add	r3, r3, r2
 1553 001e 1B78     		ldrb	r3, [r3]	@ zero_extendqisi2
 1554 0020 1846     		mov	r0, r3
 1555 0022 FFF7FEFF 		bl	UART_PutChar
1246:.\Generated_Source\PSoC5/UART.c ****                 buf_index++;
 1556              		.loc 1 1246 0 discriminator 1
 1557 0026 FB7B     		ldrb	r3, [r7, #15]	@ zero_extendqisi2
 1558 0028 0133     		adds	r3, r3, #1
 1559 002a FB73     		strb	r3, [r7, #15]
1247:.\Generated_Source\PSoC5/UART.c ****             }while(buf_index < byteCount);
 1560              		.loc 1 1247 0 discriminator 1
 1561 002c FA7B     		ldrb	r2, [r7, #15]	@ zero_extendqisi2
 1562 002e FB78     		ldrb	r3, [r7, #3]	@ zero_extendqisi2
 1563 0030 9A42     		cmp	r2, r3
 1564 0032 F1D3     		bcc	.L107
 1565              	.L105:
1248:.\Generated_Source\PSoC5/UART.c ****         }
1249:.\Generated_Source\PSoC5/UART.c ****     }
 1566              		.loc 1 1249 0
 1567 0034 1037     		adds	r7, r7, #16
 1568 0036 BD46     		mov	sp, r7
 1569              		@ sp needed
 1570 0038 80BD     		pop	{r7, pc}
 1571              	.L109:
 1572 003a 00BF     		.align	2
 1573              	.L108:
 1574 003c 00000000 		.word	UART_initVar
 1575              		.cfi_endproc
 1576              	.LFE25:
 1577              		.size	UART_PutArray, .-UART_PutArray
 1578              		.section	.text.UART_PutCRLF,"ax",%progbits
 1579              		.align	2
 1580              		.global	UART_PutCRLF
 1581              		.thumb
 1582              		.thumb_func
 1583              		.type	UART_PutCRLF, %function
 1584              	UART_PutCRLF:
 1585              	.LFB26:
1250:.\Generated_Source\PSoC5/UART.c **** 
1251:.\Generated_Source\PSoC5/UART.c **** 
1252:.\Generated_Source\PSoC5/UART.c ****     /*******************************************************************************
1253:.\Generated_Source\PSoC5/UART.c ****     * Function Name: UART_PutCRLF
1254:.\Generated_Source\PSoC5/UART.c ****     ********************************************************************************
1255:.\Generated_Source\PSoC5/UART.c ****     *
1256:.\Generated_Source\PSoC5/UART.c ****     * Summary:
ARM GAS  C:\Users\SCOTTC~1\AppData\Local\Temp\ccs93tgd.s 			page 51


1257:.\Generated_Source\PSoC5/UART.c ****     *  Write a character and then carriage return and line feed.
1258:.\Generated_Source\PSoC5/UART.c ****     *
1259:.\Generated_Source\PSoC5/UART.c ****     * Parameters:
1260:.\Generated_Source\PSoC5/UART.c ****     *  txDataByte: uint8 Character to send.
1261:.\Generated_Source\PSoC5/UART.c ****     *
1262:.\Generated_Source\PSoC5/UART.c ****     * Return:
1263:.\Generated_Source\PSoC5/UART.c ****     *  None.
1264:.\Generated_Source\PSoC5/UART.c ****     *
1265:.\Generated_Source\PSoC5/UART.c ****     * Global Variables:
1266:.\Generated_Source\PSoC5/UART.c ****     *  UART_initVar - checked to identify that the component has been
1267:.\Generated_Source\PSoC5/UART.c ****     *     initialized.
1268:.\Generated_Source\PSoC5/UART.c ****     *
1269:.\Generated_Source\PSoC5/UART.c ****     * Reentrant:
1270:.\Generated_Source\PSoC5/UART.c ****     *  No.
1271:.\Generated_Source\PSoC5/UART.c ****     *
1272:.\Generated_Source\PSoC5/UART.c ****     *******************************************************************************/
1273:.\Generated_Source\PSoC5/UART.c ****     void UART_PutCRLF(uint8 txDataByte) 
1274:.\Generated_Source\PSoC5/UART.c ****     {
 1586              		.loc 1 1274 0
 1587              		.cfi_startproc
 1588              		@ args = 0, pretend = 0, frame = 8
 1589              		@ frame_needed = 1, uses_anonymous_args = 0
 1590 0000 80B5     		push	{r7, lr}
 1591              		.cfi_def_cfa_offset 8
 1592              		.cfi_offset 7, -8
 1593              		.cfi_offset 14, -4
 1594 0002 82B0     		sub	sp, sp, #8
 1595              		.cfi_def_cfa_offset 16
 1596 0004 00AF     		add	r7, sp, #0
 1597              		.cfi_def_cfa_register 7
 1598 0006 0346     		mov	r3, r0
 1599 0008 FB71     		strb	r3, [r7, #7]
1275:.\Generated_Source\PSoC5/UART.c ****         /* If not Initialized then skip this function*/
1276:.\Generated_Source\PSoC5/UART.c ****         if(UART_initVar != 0u)
 1600              		.loc 1 1276 0
 1601 000a 084B     		ldr	r3, .L112
 1602 000c 1B78     		ldrb	r3, [r3]	@ zero_extendqisi2
 1603 000e 002B     		cmp	r3, #0
 1604 0010 09D0     		beq	.L110
1277:.\Generated_Source\PSoC5/UART.c ****         {
1278:.\Generated_Source\PSoC5/UART.c ****             UART_PutChar(txDataByte);
 1605              		.loc 1 1278 0
 1606 0012 FB79     		ldrb	r3, [r7, #7]	@ zero_extendqisi2
 1607 0014 1846     		mov	r0, r3
 1608 0016 FFF7FEFF 		bl	UART_PutChar
1279:.\Generated_Source\PSoC5/UART.c ****             UART_PutChar(0x0Du);
 1609              		.loc 1 1279 0
 1610 001a 0D20     		movs	r0, #13
 1611 001c FFF7FEFF 		bl	UART_PutChar
1280:.\Generated_Source\PSoC5/UART.c ****             UART_PutChar(0x0Au);
 1612              		.loc 1 1280 0
 1613 0020 0A20     		movs	r0, #10
 1614 0022 FFF7FEFF 		bl	UART_PutChar
 1615              	.L110:
1281:.\Generated_Source\PSoC5/UART.c ****         }
1282:.\Generated_Source\PSoC5/UART.c ****     }
 1616              		.loc 1 1282 0
ARM GAS  C:\Users\SCOTTC~1\AppData\Local\Temp\ccs93tgd.s 			page 52


 1617 0026 0837     		adds	r7, r7, #8
 1618 0028 BD46     		mov	sp, r7
 1619              		@ sp needed
 1620 002a 80BD     		pop	{r7, pc}
 1621              	.L113:
 1622              		.align	2
 1623              	.L112:
 1624 002c 00000000 		.word	UART_initVar
 1625              		.cfi_endproc
 1626              	.LFE26:
 1627              		.size	UART_PutCRLF, .-UART_PutCRLF
 1628              		.section	.text.UART_GetTxBufferSize,"ax",%progbits
 1629              		.align	2
 1630              		.global	UART_GetTxBufferSize
 1631              		.thumb
 1632              		.thumb_func
 1633              		.type	UART_GetTxBufferSize, %function
 1634              	UART_GetTxBufferSize:
 1635              	.LFB27:
1283:.\Generated_Source\PSoC5/UART.c **** 
1284:.\Generated_Source\PSoC5/UART.c **** 
1285:.\Generated_Source\PSoC5/UART.c ****     /*******************************************************************************
1286:.\Generated_Source\PSoC5/UART.c ****     * Function Name: UART_GetTxBufferSize
1287:.\Generated_Source\PSoC5/UART.c ****     ********************************************************************************
1288:.\Generated_Source\PSoC5/UART.c ****     *
1289:.\Generated_Source\PSoC5/UART.c ****     * Summary:
1290:.\Generated_Source\PSoC5/UART.c ****     *  Determine the amount of space left in the TX buffer and return the count in
1291:.\Generated_Source\PSoC5/UART.c ****     *  bytes
1292:.\Generated_Source\PSoC5/UART.c ****     *
1293:.\Generated_Source\PSoC5/UART.c ****     * Parameters:
1294:.\Generated_Source\PSoC5/UART.c ****     *  None.
1295:.\Generated_Source\PSoC5/UART.c ****     *
1296:.\Generated_Source\PSoC5/UART.c ****     * Return:
1297:.\Generated_Source\PSoC5/UART.c ****     *  Integer count of the number of bytes left in the TX buffer
1298:.\Generated_Source\PSoC5/UART.c ****     *
1299:.\Generated_Source\PSoC5/UART.c ****     * Global Variables:
1300:.\Generated_Source\PSoC5/UART.c ****     *  UART_txBufferWrite - used to calculate left space.
1301:.\Generated_Source\PSoC5/UART.c ****     *  UART_txBufferRead - used to calculate left space.
1302:.\Generated_Source\PSoC5/UART.c ****     *
1303:.\Generated_Source\PSoC5/UART.c ****     * Reentrant:
1304:.\Generated_Source\PSoC5/UART.c ****     *  No.
1305:.\Generated_Source\PSoC5/UART.c ****     *
1306:.\Generated_Source\PSoC5/UART.c ****     * Theory:
1307:.\Generated_Source\PSoC5/UART.c ****     *  Allows the user to find out how full the TX Buffer is.
1308:.\Generated_Source\PSoC5/UART.c ****     *
1309:.\Generated_Source\PSoC5/UART.c ****     *******************************************************************************/
1310:.\Generated_Source\PSoC5/UART.c ****     uint8 UART_GetTxBufferSize(void)
1311:.\Generated_Source\PSoC5/UART.c ****                                                             
1312:.\Generated_Source\PSoC5/UART.c ****     {
 1636              		.loc 1 1312 0
 1637              		.cfi_startproc
 1638              		@ args = 0, pretend = 0, frame = 8
 1639              		@ frame_needed = 1, uses_anonymous_args = 0
 1640 0000 80B5     		push	{r7, lr}
 1641              		.cfi_def_cfa_offset 8
 1642              		.cfi_offset 7, -8
 1643              		.cfi_offset 14, -4
ARM GAS  C:\Users\SCOTTC~1\AppData\Local\Temp\ccs93tgd.s 			page 53


 1644 0002 82B0     		sub	sp, sp, #8
 1645              		.cfi_def_cfa_offset 16
 1646 0004 00AF     		add	r7, sp, #0
 1647              		.cfi_def_cfa_register 7
1313:.\Generated_Source\PSoC5/UART.c ****         uint8 size;
1314:.\Generated_Source\PSoC5/UART.c **** 
1315:.\Generated_Source\PSoC5/UART.c ****         #if(UART_TXBUFFERSIZE > UART_FIFO_LENGTH)
1316:.\Generated_Source\PSoC5/UART.c **** 
1317:.\Generated_Source\PSoC5/UART.c ****             /* Disable Tx interrupt. */
1318:.\Generated_Source\PSoC5/UART.c ****             /* Protect variables that could change on interrupt. */
1319:.\Generated_Source\PSoC5/UART.c ****             #if(UART_TX_INTERRUPT_ENABLED)
1320:.\Generated_Source\PSoC5/UART.c ****                 UART_DisableTxInt();
 1648              		.loc 1 1320 0
 1649 0006 FFF7FEFF 		bl	UART_DisableTxInt
1321:.\Generated_Source\PSoC5/UART.c ****             #endif /* End UART_TX_INTERRUPT_ENABLED */
1322:.\Generated_Source\PSoC5/UART.c **** 
1323:.\Generated_Source\PSoC5/UART.c ****             if(UART_txBufferRead == UART_txBufferWrite)
 1650              		.loc 1 1323 0
 1651 000a 144B     		ldr	r3, .L119
 1652 000c 1B78     		ldrb	r3, [r3]
 1653 000e DAB2     		uxtb	r2, r3
 1654 0010 134B     		ldr	r3, .L119+4
 1655 0012 1B78     		ldrb	r3, [r3]	@ zero_extendqisi2
 1656 0014 9A42     		cmp	r2, r3
 1657 0016 02D1     		bne	.L115
1324:.\Generated_Source\PSoC5/UART.c ****             {
1325:.\Generated_Source\PSoC5/UART.c ****                 size = 0u;
 1658              		.loc 1 1325 0
 1659 0018 0023     		movs	r3, #0
 1660 001a FB71     		strb	r3, [r7, #7]
 1661 001c 17E0     		b	.L116
 1662              	.L115:
1326:.\Generated_Source\PSoC5/UART.c ****             }
1327:.\Generated_Source\PSoC5/UART.c ****             else if(UART_txBufferRead < UART_txBufferWrite)
 1663              		.loc 1 1327 0
 1664 001e 0F4B     		ldr	r3, .L119
 1665 0020 1B78     		ldrb	r3, [r3]
 1666 0022 DAB2     		uxtb	r2, r3
 1667 0024 0E4B     		ldr	r3, .L119+4
 1668 0026 1B78     		ldrb	r3, [r3]	@ zero_extendqisi2
 1669 0028 9A42     		cmp	r2, r3
 1670 002a 07D2     		bcs	.L117
1328:.\Generated_Source\PSoC5/UART.c ****             {
1329:.\Generated_Source\PSoC5/UART.c ****                 size = (UART_txBufferWrite - UART_txBufferRead);
 1671              		.loc 1 1329 0
 1672 002c 0C4B     		ldr	r3, .L119+4
 1673 002e 1A78     		ldrb	r2, [r3]	@ zero_extendqisi2
 1674 0030 0A4B     		ldr	r3, .L119
 1675 0032 1B78     		ldrb	r3, [r3]
 1676 0034 DBB2     		uxtb	r3, r3
 1677 0036 D31A     		subs	r3, r2, r3
 1678 0038 FB71     		strb	r3, [r7, #7]
 1679 003a 08E0     		b	.L116
 1680              	.L117:
1330:.\Generated_Source\PSoC5/UART.c ****             }
1331:.\Generated_Source\PSoC5/UART.c ****             else
1332:.\Generated_Source\PSoC5/UART.c ****             {
ARM GAS  C:\Users\SCOTTC~1\AppData\Local\Temp\ccs93tgd.s 			page 54


1333:.\Generated_Source\PSoC5/UART.c ****                 size = (UART_TXBUFFERSIZE - UART_txBufferRead) + UART_txBufferWrite;
 1681              		.loc 1 1333 0
 1682 003c 084B     		ldr	r3, .L119+4
 1683 003e 1A78     		ldrb	r2, [r3]	@ zero_extendqisi2
 1684 0040 064B     		ldr	r3, .L119
 1685 0042 1B78     		ldrb	r3, [r3]
 1686 0044 DBB2     		uxtb	r3, r3
 1687 0046 D31A     		subs	r3, r2, r3
 1688 0048 DBB2     		uxtb	r3, r3
 1689 004a 013B     		subs	r3, r3, #1
 1690 004c FB71     		strb	r3, [r7, #7]
 1691              	.L116:
1334:.\Generated_Source\PSoC5/UART.c ****             }
1335:.\Generated_Source\PSoC5/UART.c **** 
1336:.\Generated_Source\PSoC5/UART.c ****             /* Enable Tx interrupt. */
1337:.\Generated_Source\PSoC5/UART.c ****             #if(UART_TX_INTERRUPT_ENABLED)
1338:.\Generated_Source\PSoC5/UART.c ****                 UART_EnableTxInt();
 1692              		.loc 1 1338 0
 1693 004e FFF7FEFF 		bl	UART_EnableTxInt
1339:.\Generated_Source\PSoC5/UART.c ****             #endif /* End UART_TX_INTERRUPT_ENABLED */
1340:.\Generated_Source\PSoC5/UART.c **** 
1341:.\Generated_Source\PSoC5/UART.c ****         #else /* UART_TXBUFFERSIZE > UART_FIFO_LENGTH */
1342:.\Generated_Source\PSoC5/UART.c **** 
1343:.\Generated_Source\PSoC5/UART.c ****             size = UART_TXSTATUS_REG;
1344:.\Generated_Source\PSoC5/UART.c **** 
1345:.\Generated_Source\PSoC5/UART.c ****             /* Is the fifo is full. */
1346:.\Generated_Source\PSoC5/UART.c ****             if((size & UART_TX_STS_FIFO_FULL) != 0u)
1347:.\Generated_Source\PSoC5/UART.c ****             {
1348:.\Generated_Source\PSoC5/UART.c ****                 size = UART_FIFO_LENGTH;
1349:.\Generated_Source\PSoC5/UART.c ****             }
1350:.\Generated_Source\PSoC5/UART.c ****             else if((size & UART_TX_STS_FIFO_EMPTY) != 0u)
1351:.\Generated_Source\PSoC5/UART.c ****             {
1352:.\Generated_Source\PSoC5/UART.c ****                 size = 0u;
1353:.\Generated_Source\PSoC5/UART.c ****             }
1354:.\Generated_Source\PSoC5/UART.c ****             else
1355:.\Generated_Source\PSoC5/UART.c ****             {
1356:.\Generated_Source\PSoC5/UART.c ****                 /* We only know there is data in the fifo. */
1357:.\Generated_Source\PSoC5/UART.c ****                 size = 1u;
1358:.\Generated_Source\PSoC5/UART.c ****             }
1359:.\Generated_Source\PSoC5/UART.c **** 
1360:.\Generated_Source\PSoC5/UART.c ****         #endif /* End UART_TXBUFFERSIZE > UART_FIFO_LENGTH */
1361:.\Generated_Source\PSoC5/UART.c **** 
1362:.\Generated_Source\PSoC5/UART.c ****         return(size);
 1694              		.loc 1 1362 0
 1695 0052 FB79     		ldrb	r3, [r7, #7]	@ zero_extendqisi2
1363:.\Generated_Source\PSoC5/UART.c ****     }
 1696              		.loc 1 1363 0
 1697 0054 1846     		mov	r0, r3
 1698 0056 0837     		adds	r7, r7, #8
 1699 0058 BD46     		mov	sp, r7
 1700              		@ sp needed
 1701 005a 80BD     		pop	{r7, pc}
 1702              	.L120:
 1703              		.align	2
 1704              	.L119:
 1705 005c 00000000 		.word	UART_txBufferRead
 1706 0060 00000000 		.word	UART_txBufferWrite
ARM GAS  C:\Users\SCOTTC~1\AppData\Local\Temp\ccs93tgd.s 			page 55


 1707              		.cfi_endproc
 1708              	.LFE27:
 1709              		.size	UART_GetTxBufferSize, .-UART_GetTxBufferSize
 1710              		.section	.text.UART_ClearTxBuffer,"ax",%progbits
 1711              		.align	2
 1712              		.global	UART_ClearTxBuffer
 1713              		.thumb
 1714              		.thumb_func
 1715              		.type	UART_ClearTxBuffer, %function
 1716              	UART_ClearTxBuffer:
 1717              	.LFB28:
1364:.\Generated_Source\PSoC5/UART.c **** 
1365:.\Generated_Source\PSoC5/UART.c **** 
1366:.\Generated_Source\PSoC5/UART.c ****     /*******************************************************************************
1367:.\Generated_Source\PSoC5/UART.c ****     * Function Name: UART_ClearTxBuffer
1368:.\Generated_Source\PSoC5/UART.c ****     ********************************************************************************
1369:.\Generated_Source\PSoC5/UART.c ****     *
1370:.\Generated_Source\PSoC5/UART.c ****     * Summary:
1371:.\Generated_Source\PSoC5/UART.c ****     *  Clears the TX RAM buffer by setting the read and write pointers both to zero.
1372:.\Generated_Source\PSoC5/UART.c ****     *  Clears the hardware TX FIFO.  Any data present in the FIFO will not be sent.
1373:.\Generated_Source\PSoC5/UART.c ****     *
1374:.\Generated_Source\PSoC5/UART.c ****     * Parameters:
1375:.\Generated_Source\PSoC5/UART.c ****     *  None.
1376:.\Generated_Source\PSoC5/UART.c ****     *
1377:.\Generated_Source\PSoC5/UART.c ****     * Return:
1378:.\Generated_Source\PSoC5/UART.c ****     *  None.
1379:.\Generated_Source\PSoC5/UART.c ****     *
1380:.\Generated_Source\PSoC5/UART.c ****     * Global Variables:
1381:.\Generated_Source\PSoC5/UART.c ****     *  UART_txBufferWrite - cleared to zero.
1382:.\Generated_Source\PSoC5/UART.c ****     *  UART_txBufferRead - cleared to zero.
1383:.\Generated_Source\PSoC5/UART.c ****     *
1384:.\Generated_Source\PSoC5/UART.c ****     * Reentrant:
1385:.\Generated_Source\PSoC5/UART.c ****     *  No.
1386:.\Generated_Source\PSoC5/UART.c ****     *
1387:.\Generated_Source\PSoC5/UART.c ****     * Theory:
1388:.\Generated_Source\PSoC5/UART.c ****     *  Setting the pointers to zero makes the system believe there is no data to
1389:.\Generated_Source\PSoC5/UART.c ****     *  read and writing will resume at address 0 overwriting any data that may have
1390:.\Generated_Source\PSoC5/UART.c ****     *  remained in the RAM.
1391:.\Generated_Source\PSoC5/UART.c ****     *
1392:.\Generated_Source\PSoC5/UART.c ****     * Side Effects:
1393:.\Generated_Source\PSoC5/UART.c ****     *  Any received data not read from the RAM buffer will be lost when overwritten.
1394:.\Generated_Source\PSoC5/UART.c ****     *
1395:.\Generated_Source\PSoC5/UART.c ****     *******************************************************************************/
1396:.\Generated_Source\PSoC5/UART.c ****     void UART_ClearTxBuffer(void) 
1397:.\Generated_Source\PSoC5/UART.c ****     {
 1718              		.loc 1 1397 0
 1719              		.cfi_startproc
 1720              		@ args = 0, pretend = 0, frame = 8
 1721              		@ frame_needed = 1, uses_anonymous_args = 0
 1722 0000 80B5     		push	{r7, lr}
 1723              		.cfi_def_cfa_offset 8
 1724              		.cfi_offset 7, -8
 1725              		.cfi_offset 14, -4
 1726 0002 82B0     		sub	sp, sp, #8
 1727              		.cfi_def_cfa_offset 16
 1728 0004 00AF     		add	r7, sp, #0
 1729              		.cfi_def_cfa_register 7
ARM GAS  C:\Users\SCOTTC~1\AppData\Local\Temp\ccs93tgd.s 			page 56


1398:.\Generated_Source\PSoC5/UART.c ****         uint8 enableInterrupts;
1399:.\Generated_Source\PSoC5/UART.c **** 
1400:.\Generated_Source\PSoC5/UART.c ****         /* Enter critical section */
1401:.\Generated_Source\PSoC5/UART.c ****         enableInterrupts = CyEnterCriticalSection();
 1730              		.loc 1 1401 0
 1731 0006 FFF7FEFF 		bl	CyEnterCriticalSection
 1732 000a 0346     		mov	r3, r0
 1733 000c FB71     		strb	r3, [r7, #7]
1402:.\Generated_Source\PSoC5/UART.c ****         /* clear the HW FIFO */
1403:.\Generated_Source\PSoC5/UART.c ****         UART_TXDATA_AUX_CTL_REG |=  UART_TX_FIFO_CLR;
 1734              		.loc 1 1403 0
 1735 000e 104B     		ldr	r3, .L122
 1736 0010 0F4A     		ldr	r2, .L122
 1737 0012 1278     		ldrb	r2, [r2]
 1738 0014 D2B2     		uxtb	r2, r2
 1739 0016 42F00102 		orr	r2, r2, #1
 1740 001a D2B2     		uxtb	r2, r2
 1741 001c 1A70     		strb	r2, [r3]
1404:.\Generated_Source\PSoC5/UART.c ****         UART_TXDATA_AUX_CTL_REG &= (uint8)~UART_TX_FIFO_CLR;
 1742              		.loc 1 1404 0
 1743 001e 0C4B     		ldr	r3, .L122
 1744 0020 0B4A     		ldr	r2, .L122
 1745 0022 1278     		ldrb	r2, [r2]
 1746 0024 D2B2     		uxtb	r2, r2
 1747 0026 22F00102 		bic	r2, r2, #1
 1748 002a D2B2     		uxtb	r2, r2
 1749 002c 1A70     		strb	r2, [r3]
1405:.\Generated_Source\PSoC5/UART.c ****         /* Exit critical section */
1406:.\Generated_Source\PSoC5/UART.c ****         CyExitCriticalSection(enableInterrupts);
 1750              		.loc 1 1406 0
 1751 002e FB79     		ldrb	r3, [r7, #7]	@ zero_extendqisi2
 1752 0030 1846     		mov	r0, r3
 1753 0032 FFF7FEFF 		bl	CyExitCriticalSection
1407:.\Generated_Source\PSoC5/UART.c **** 
1408:.\Generated_Source\PSoC5/UART.c ****         #if(UART_TXBUFFERSIZE > UART_FIFO_LENGTH)
1409:.\Generated_Source\PSoC5/UART.c **** 
1410:.\Generated_Source\PSoC5/UART.c ****             /* Disable Tx interrupt. */
1411:.\Generated_Source\PSoC5/UART.c ****             /* Protect variables that could change on interrupt. */
1412:.\Generated_Source\PSoC5/UART.c ****             #if(UART_TX_INTERRUPT_ENABLED)
1413:.\Generated_Source\PSoC5/UART.c ****                 UART_DisableTxInt();
 1754              		.loc 1 1413 0
 1755 0036 FFF7FEFF 		bl	UART_DisableTxInt
1414:.\Generated_Source\PSoC5/UART.c ****             #endif /* End UART_TX_INTERRUPT_ENABLED */
1415:.\Generated_Source\PSoC5/UART.c **** 
1416:.\Generated_Source\PSoC5/UART.c ****             UART_txBufferRead = 0u;
 1756              		.loc 1 1416 0
 1757 003a 064B     		ldr	r3, .L122+4
 1758 003c 0022     		movs	r2, #0
 1759 003e 1A70     		strb	r2, [r3]
1417:.\Generated_Source\PSoC5/UART.c ****             UART_txBufferWrite = 0u;
 1760              		.loc 1 1417 0
 1761 0040 054B     		ldr	r3, .L122+8
 1762 0042 0022     		movs	r2, #0
 1763 0044 1A70     		strb	r2, [r3]
1418:.\Generated_Source\PSoC5/UART.c **** 
1419:.\Generated_Source\PSoC5/UART.c ****             /* Enable Tx interrupt. */
1420:.\Generated_Source\PSoC5/UART.c ****             #if(UART_TX_INTERRUPT_ENABLED)
ARM GAS  C:\Users\SCOTTC~1\AppData\Local\Temp\ccs93tgd.s 			page 57


1421:.\Generated_Source\PSoC5/UART.c ****                 UART_EnableTxInt();
 1764              		.loc 1 1421 0
 1765 0046 FFF7FEFF 		bl	UART_EnableTxInt
1422:.\Generated_Source\PSoC5/UART.c ****             #endif /* End UART_TX_INTERRUPT_ENABLED */
1423:.\Generated_Source\PSoC5/UART.c **** 
1424:.\Generated_Source\PSoC5/UART.c ****         #endif /* End UART_TXBUFFERSIZE > UART_FIFO_LENGTH */
1425:.\Generated_Source\PSoC5/UART.c ****     }
 1766              		.loc 1 1425 0
 1767 004a 0837     		adds	r7, r7, #8
 1768 004c BD46     		mov	sp, r7
 1769              		@ sp needed
 1770 004e 80BD     		pop	{r7, pc}
 1771              	.L123:
 1772              		.align	2
 1773              	.L122:
 1774 0050 91640040 		.word	1073767569
 1775 0054 00000000 		.word	UART_txBufferRead
 1776 0058 00000000 		.word	UART_txBufferWrite
 1777              		.cfi_endproc
 1778              	.LFE28:
 1779              		.size	UART_ClearTxBuffer, .-UART_ClearTxBuffer
 1780              		.section	.text.UART_SendBreak,"ax",%progbits
 1781              		.align	2
 1782              		.global	UART_SendBreak
 1783              		.thumb
 1784              		.thumb_func
 1785              		.type	UART_SendBreak, %function
 1786              	UART_SendBreak:
 1787              	.LFB29:
1426:.\Generated_Source\PSoC5/UART.c **** 
1427:.\Generated_Source\PSoC5/UART.c **** 
1428:.\Generated_Source\PSoC5/UART.c ****     /*******************************************************************************
1429:.\Generated_Source\PSoC5/UART.c ****     * Function Name: UART_SendBreak
1430:.\Generated_Source\PSoC5/UART.c ****     ********************************************************************************
1431:.\Generated_Source\PSoC5/UART.c ****     *
1432:.\Generated_Source\PSoC5/UART.c ****     * Summary:
1433:.\Generated_Source\PSoC5/UART.c ****     *  Write a Break command to the UART
1434:.\Generated_Source\PSoC5/UART.c ****     *
1435:.\Generated_Source\PSoC5/UART.c ****     * Parameters:
1436:.\Generated_Source\PSoC5/UART.c ****     *  uint8 retMode:  Wait mode,
1437:.\Generated_Source\PSoC5/UART.c ****     *   0 - Initialize registers for Break, sends the Break signal and return
1438:.\Generated_Source\PSoC5/UART.c ****     *       imediately.
1439:.\Generated_Source\PSoC5/UART.c ****     *   1 - Wait until Break sending is complete, reinitialize registers to normal
1440:.\Generated_Source\PSoC5/UART.c ****     *       transmission mode then return.
1441:.\Generated_Source\PSoC5/UART.c ****     *   2 - Reinitialize registers to normal transmission mode then return.
1442:.\Generated_Source\PSoC5/UART.c ****     *   3 - both steps: 0 and 1
1443:.\Generated_Source\PSoC5/UART.c ****     *       init registers for Break, send Break signal
1444:.\Generated_Source\PSoC5/UART.c ****     *       wait until Break sending is complete, reinit registers to normal
1445:.\Generated_Source\PSoC5/UART.c ****     *       transmission mode then return.
1446:.\Generated_Source\PSoC5/UART.c ****     *
1447:.\Generated_Source\PSoC5/UART.c ****     * Return:
1448:.\Generated_Source\PSoC5/UART.c ****     *  None.
1449:.\Generated_Source\PSoC5/UART.c ****     *
1450:.\Generated_Source\PSoC5/UART.c ****     * Global Variables:
1451:.\Generated_Source\PSoC5/UART.c ****     *  UART_initVar - checked to identify that the component has been
1452:.\Generated_Source\PSoC5/UART.c ****     *     initialized.
1453:.\Generated_Source\PSoC5/UART.c ****     *  tx_period - static variable, used for keeping TX period configuration.
ARM GAS  C:\Users\SCOTTC~1\AppData\Local\Temp\ccs93tgd.s 			page 58


1454:.\Generated_Source\PSoC5/UART.c ****     *
1455:.\Generated_Source\PSoC5/UART.c ****     * Reentrant:
1456:.\Generated_Source\PSoC5/UART.c ****     *  No.
1457:.\Generated_Source\PSoC5/UART.c ****     *
1458:.\Generated_Source\PSoC5/UART.c ****     * Theory:
1459:.\Generated_Source\PSoC5/UART.c ****     *  SendBreak function initializes registers to send 13-bit break signal. It is
1460:.\Generated_Source\PSoC5/UART.c ****     *  important to return the registers configuration to normal for continue 8-bit
1461:.\Generated_Source\PSoC5/UART.c ****     *  operation.
1462:.\Generated_Source\PSoC5/UART.c ****     *  Trere are 3 variants for this API usage:
1463:.\Generated_Source\PSoC5/UART.c ****     *  1) SendBreak(3) - function will send the Break signal and take care on the
1464:.\Generated_Source\PSoC5/UART.c ****     *     configuration returning. Funcition will block CPU untill transmition
1465:.\Generated_Source\PSoC5/UART.c ****     *     complete.
1466:.\Generated_Source\PSoC5/UART.c ****     *  2) User may want to use bloking time if UART configured to the low speed
1467:.\Generated_Source\PSoC5/UART.c ****     *     operation
1468:.\Generated_Source\PSoC5/UART.c ****     *     Emample for this case:
1469:.\Generated_Source\PSoC5/UART.c ****     *     SendBreak(0);     - init Break signal transmition
1470:.\Generated_Source\PSoC5/UART.c ****     *         Add your code here to use CPU time
1471:.\Generated_Source\PSoC5/UART.c ****     *     SendBreak(1);     - complete Break operation
1472:.\Generated_Source\PSoC5/UART.c ****     *  3) Same to 2) but user may want to init and use the interrupt for complete
1473:.\Generated_Source\PSoC5/UART.c ****     *     break operation.
1474:.\Generated_Source\PSoC5/UART.c ****     *     Example for this case:
1475:.\Generated_Source\PSoC5/UART.c ****     *     Init TX interrupt whith "TX - On TX Complete" parameter
1476:.\Generated_Source\PSoC5/UART.c ****     *     SendBreak(0);     - init Break signal transmition
1477:.\Generated_Source\PSoC5/UART.c ****     *         Add your code here to use CPU time
1478:.\Generated_Source\PSoC5/UART.c ****     *     When interrupt appear with UART_TX_STS_COMPLETE status:
1479:.\Generated_Source\PSoC5/UART.c ****     *     SendBreak(2);     - complete Break operation
1480:.\Generated_Source\PSoC5/UART.c ****     *
1481:.\Generated_Source\PSoC5/UART.c ****     * Side Effects:
1482:.\Generated_Source\PSoC5/UART.c ****     *   Uses static variable to keep registers configuration.
1483:.\Generated_Source\PSoC5/UART.c ****     *
1484:.\Generated_Source\PSoC5/UART.c ****     *******************************************************************************/
1485:.\Generated_Source\PSoC5/UART.c ****     void UART_SendBreak(uint8 retMode) 
1486:.\Generated_Source\PSoC5/UART.c ****     {
 1788              		.loc 1 1486 0
 1789              		.cfi_startproc
 1790              		@ args = 0, pretend = 0, frame = 16
 1791              		@ frame_needed = 1, uses_anonymous_args = 0
 1792              		@ link register save eliminated.
 1793 0000 80B4     		push	{r7}
 1794              		.cfi_def_cfa_offset 4
 1795              		.cfi_offset 7, -4
 1796 0002 85B0     		sub	sp, sp, #20
 1797              		.cfi_def_cfa_offset 24
 1798 0004 00AF     		add	r7, sp, #0
 1799              		.cfi_def_cfa_register 7
 1800 0006 0346     		mov	r3, r0
 1801 0008 FB71     		strb	r3, [r7, #7]
1487:.\Generated_Source\PSoC5/UART.c **** 
1488:.\Generated_Source\PSoC5/UART.c ****         /* If not Initialized then skip this function*/
1489:.\Generated_Source\PSoC5/UART.c ****         if(UART_initVar != 0u)
 1802              		.loc 1 1489 0
 1803 000a 1F4B     		ldr	r3, .L132
 1804 000c 1B78     		ldrb	r3, [r3]	@ zero_extendqisi2
 1805 000e 002B     		cmp	r3, #0
 1806 0010 35D0     		beq	.L124
 1807              	.LBB2:
1490:.\Generated_Source\PSoC5/UART.c ****         {
ARM GAS  C:\Users\SCOTTC~1\AppData\Local\Temp\ccs93tgd.s 			page 59


1491:.\Generated_Source\PSoC5/UART.c ****             /*Set the Counter to 13-bits and transmit a 00 byte*/
1492:.\Generated_Source\PSoC5/UART.c ****             /*When that is done then reset the counter value back*/
1493:.\Generated_Source\PSoC5/UART.c ****             uint8 tmpStat;
1494:.\Generated_Source\PSoC5/UART.c **** 
1495:.\Generated_Source\PSoC5/UART.c ****             #if(UART_HD_ENABLED) /* Half Duplex mode*/
1496:.\Generated_Source\PSoC5/UART.c **** 
1497:.\Generated_Source\PSoC5/UART.c ****                 if( (retMode == UART_SEND_BREAK) ||
1498:.\Generated_Source\PSoC5/UART.c ****                     (retMode == UART_SEND_WAIT_REINIT ) )
1499:.\Generated_Source\PSoC5/UART.c ****                 {
1500:.\Generated_Source\PSoC5/UART.c ****                     /* CTRL_HD_SEND_BREAK - sends break bits in HD mode*/
1501:.\Generated_Source\PSoC5/UART.c ****                     UART_WriteControlRegister(UART_ReadControlRegister() |
1502:.\Generated_Source\PSoC5/UART.c ****                                                           UART_CTRL_HD_SEND_BREAK);
1503:.\Generated_Source\PSoC5/UART.c ****                     /* Send zeros*/
1504:.\Generated_Source\PSoC5/UART.c ****                     UART_TXDATA_REG = 0u;
1505:.\Generated_Source\PSoC5/UART.c **** 
1506:.\Generated_Source\PSoC5/UART.c ****                     do /*wait until transmit starts*/
1507:.\Generated_Source\PSoC5/UART.c ****                     {
1508:.\Generated_Source\PSoC5/UART.c ****                         tmpStat = UART_TXSTATUS_REG;
1509:.\Generated_Source\PSoC5/UART.c ****                     }while((tmpStat & UART_TX_STS_FIFO_EMPTY) != 0u);
1510:.\Generated_Source\PSoC5/UART.c ****                 }
1511:.\Generated_Source\PSoC5/UART.c **** 
1512:.\Generated_Source\PSoC5/UART.c ****                 if( (retMode == UART_WAIT_FOR_COMPLETE_REINIT) ||
1513:.\Generated_Source\PSoC5/UART.c ****                     (retMode == UART_SEND_WAIT_REINIT) )
1514:.\Generated_Source\PSoC5/UART.c ****                 {
1515:.\Generated_Source\PSoC5/UART.c ****                     do /*wait until transmit complete*/
1516:.\Generated_Source\PSoC5/UART.c ****                     {
1517:.\Generated_Source\PSoC5/UART.c ****                         tmpStat = UART_TXSTATUS_REG;
1518:.\Generated_Source\PSoC5/UART.c ****                     }while(((uint8)~tmpStat & UART_TX_STS_COMPLETE) != 0u);
1519:.\Generated_Source\PSoC5/UART.c ****                 }
1520:.\Generated_Source\PSoC5/UART.c **** 
1521:.\Generated_Source\PSoC5/UART.c ****                 if( (retMode == UART_WAIT_FOR_COMPLETE_REINIT) ||
1522:.\Generated_Source\PSoC5/UART.c ****                     (retMode == UART_REINIT) ||
1523:.\Generated_Source\PSoC5/UART.c ****                     (retMode == UART_SEND_WAIT_REINIT) )
1524:.\Generated_Source\PSoC5/UART.c ****                 {
1525:.\Generated_Source\PSoC5/UART.c ****                     UART_WriteControlRegister(UART_ReadControlRegister() &
1526:.\Generated_Source\PSoC5/UART.c ****                                                   (uint8)~UART_CTRL_HD_SEND_BREAK);
1527:.\Generated_Source\PSoC5/UART.c ****                 }
1528:.\Generated_Source\PSoC5/UART.c **** 
1529:.\Generated_Source\PSoC5/UART.c ****             #else /* UART_HD_ENABLED Full Duplex mode */
1530:.\Generated_Source\PSoC5/UART.c **** 
1531:.\Generated_Source\PSoC5/UART.c ****                 static uint8 tx_period;
1532:.\Generated_Source\PSoC5/UART.c **** 
1533:.\Generated_Source\PSoC5/UART.c ****                 if( (retMode == UART_SEND_BREAK) ||
 1808              		.loc 1 1533 0
 1809 0012 FB79     		ldrb	r3, [r7, #7]	@ zero_extendqisi2
 1810 0014 002B     		cmp	r3, #0
 1811 0016 02D0     		beq	.L126
 1812              		.loc 1 1533 0 is_stmt 0 discriminator 1
 1813 0018 FB79     		ldrb	r3, [r7, #7]	@ zero_extendqisi2
 1814 001a 032B     		cmp	r3, #3
 1815 001c 12D1     		bne	.L127
 1816              	.L126:
1534:.\Generated_Source\PSoC5/UART.c ****                     (retMode == UART_SEND_WAIT_REINIT) )
1535:.\Generated_Source\PSoC5/UART.c ****                 {
1536:.\Generated_Source\PSoC5/UART.c ****                     /* CTRL_HD_SEND_BREAK - skip to send parity bit at Break signal in Full Duplex 
1537:.\Generated_Source\PSoC5/UART.c ****                     #if( (UART_PARITY_TYPE != UART__B_UART__NONE_REVB) || \
1538:.\Generated_Source\PSoC5/UART.c ****                                         (UART_PARITY_TYPE_SW != 0u) )
ARM GAS  C:\Users\SCOTTC~1\AppData\Local\Temp\ccs93tgd.s 			page 60


1539:.\Generated_Source\PSoC5/UART.c ****                         UART_WriteControlRegister(UART_ReadControlRegister() |
1540:.\Generated_Source\PSoC5/UART.c ****                                                               UART_CTRL_HD_SEND_BREAK);
1541:.\Generated_Source\PSoC5/UART.c ****                     #endif /* End UART_PARITY_TYPE != UART__B_UART__NONE_REVB  */
1542:.\Generated_Source\PSoC5/UART.c **** 
1543:.\Generated_Source\PSoC5/UART.c ****                     #if(UART_TXCLKGEN_DP)
1544:.\Generated_Source\PSoC5/UART.c ****                         tx_period = UART_TXBITCLKTX_COMPLETE_REG;
 1817              		.loc 1 1544 0 is_stmt 1
 1818 001e 1B4B     		ldr	r3, .L132+4
 1819 0020 1B78     		ldrb	r3, [r3]
 1820 0022 DAB2     		uxtb	r2, r3
 1821 0024 1A4B     		ldr	r3, .L132+8
 1822 0026 1A70     		strb	r2, [r3]
1545:.\Generated_Source\PSoC5/UART.c ****                         UART_TXBITCLKTX_COMPLETE_REG = UART_TXBITCTR_BREAKBITS;
 1823              		.loc 1 1545 0
 1824 0028 184B     		ldr	r3, .L132+4
 1825 002a CF22     		movs	r2, #207
 1826 002c 1A70     		strb	r2, [r3]
1546:.\Generated_Source\PSoC5/UART.c ****                     #else
1547:.\Generated_Source\PSoC5/UART.c ****                         tx_period = UART_TXBITCTR_PERIOD_REG;
1548:.\Generated_Source\PSoC5/UART.c ****                         UART_TXBITCTR_PERIOD_REG = UART_TXBITCTR_BREAKBITS8X;
1549:.\Generated_Source\PSoC5/UART.c ****                     #endif /* End UART_TXCLKGEN_DP */
1550:.\Generated_Source\PSoC5/UART.c **** 
1551:.\Generated_Source\PSoC5/UART.c ****                     /* Send zeros*/
1552:.\Generated_Source\PSoC5/UART.c ****                     UART_TXDATA_REG = 0u;
 1827              		.loc 1 1552 0
 1828 002e 194B     		ldr	r3, .L132+12
 1829 0030 0022     		movs	r2, #0
 1830 0032 1A70     		strb	r2, [r3]
 1831              	.L128:
1553:.\Generated_Source\PSoC5/UART.c **** 
1554:.\Generated_Source\PSoC5/UART.c ****                     do /* wait until transmit starts */
1555:.\Generated_Source\PSoC5/UART.c ****                     {
1556:.\Generated_Source\PSoC5/UART.c ****                         tmpStat = UART_TXSTATUS_REG;
 1832              		.loc 1 1556 0 discriminator 1
 1833 0034 184B     		ldr	r3, .L132+16
 1834 0036 1B78     		ldrb	r3, [r3]
 1835 0038 FB73     		strb	r3, [r7, #15]
1557:.\Generated_Source\PSoC5/UART.c ****                     }while((tmpStat & UART_TX_STS_FIFO_EMPTY) != 0u);
 1836              		.loc 1 1557 0 discriminator 1
 1837 003a FB7B     		ldrb	r3, [r7, #15]	@ zero_extendqisi2
 1838 003c 03F00203 		and	r3, r3, #2
 1839 0040 002B     		cmp	r3, #0
 1840 0042 F7D1     		bne	.L128
 1841              	.L127:
1558:.\Generated_Source\PSoC5/UART.c ****                 }
1559:.\Generated_Source\PSoC5/UART.c **** 
1560:.\Generated_Source\PSoC5/UART.c ****                 if( (retMode == UART_WAIT_FOR_COMPLETE_REINIT) ||
 1842              		.loc 1 1560 0
 1843 0044 FB79     		ldrb	r3, [r7, #7]	@ zero_extendqisi2
 1844 0046 012B     		cmp	r3, #1
 1845 0048 02D0     		beq	.L129
 1846              		.loc 1 1560 0 is_stmt 0 discriminator 1
 1847 004a FB79     		ldrb	r3, [r7, #7]	@ zero_extendqisi2
 1848 004c 032B     		cmp	r3, #3
 1849 004e 09D1     		bne	.L130
 1850              	.L129:
1561:.\Generated_Source\PSoC5/UART.c ****                     (retMode == UART_SEND_WAIT_REINIT) )
ARM GAS  C:\Users\SCOTTC~1\AppData\Local\Temp\ccs93tgd.s 			page 61


1562:.\Generated_Source\PSoC5/UART.c ****                 {
1563:.\Generated_Source\PSoC5/UART.c ****                     do /*wait until transmit complete*/
1564:.\Generated_Source\PSoC5/UART.c ****                     {
1565:.\Generated_Source\PSoC5/UART.c ****                         tmpStat = UART_TXSTATUS_REG;
 1851              		.loc 1 1565 0 is_stmt 1 discriminator 1
 1852 0050 114B     		ldr	r3, .L132+16
 1853 0052 1B78     		ldrb	r3, [r3]
 1854 0054 FB73     		strb	r3, [r7, #15]
1566:.\Generated_Source\PSoC5/UART.c ****                     }while(((uint8)~tmpStat & UART_TX_STS_COMPLETE) != 0u);
 1855              		.loc 1 1566 0 discriminator 1
 1856 0056 FB7B     		ldrb	r3, [r7, #15]
 1857 0058 DB43     		mvns	r3, r3
 1858 005a DBB2     		uxtb	r3, r3
 1859 005c 03F00103 		and	r3, r3, #1
 1860 0060 002B     		cmp	r3, #0
 1861 0062 F5D1     		bne	.L129
 1862              	.L130:
1567:.\Generated_Source\PSoC5/UART.c ****                 }
1568:.\Generated_Source\PSoC5/UART.c **** 
1569:.\Generated_Source\PSoC5/UART.c ****                 if( (retMode == UART_WAIT_FOR_COMPLETE_REINIT) ||
 1863              		.loc 1 1569 0
 1864 0064 FB79     		ldrb	r3, [r7, #7]	@ zero_extendqisi2
 1865 0066 012B     		cmp	r3, #1
 1866 0068 05D0     		beq	.L131
 1867              		.loc 1 1569 0 is_stmt 0 discriminator 1
 1868 006a FB79     		ldrb	r3, [r7, #7]	@ zero_extendqisi2
 1869 006c 022B     		cmp	r3, #2
 1870 006e 02D0     		beq	.L131
1570:.\Generated_Source\PSoC5/UART.c ****                     (retMode == UART_REINIT) ||
 1871              		.loc 1 1570 0 is_stmt 1
 1872 0070 FB79     		ldrb	r3, [r7, #7]	@ zero_extendqisi2
 1873 0072 032B     		cmp	r3, #3
 1874 0074 03D1     		bne	.L124
 1875              	.L131:
1571:.\Generated_Source\PSoC5/UART.c ****                     (retMode == UART_SEND_WAIT_REINIT) )
1572:.\Generated_Source\PSoC5/UART.c ****                 {
1573:.\Generated_Source\PSoC5/UART.c **** 
1574:.\Generated_Source\PSoC5/UART.c ****                     #if(UART_TXCLKGEN_DP)
1575:.\Generated_Source\PSoC5/UART.c ****                         UART_TXBITCLKTX_COMPLETE_REG = tx_period;
 1876              		.loc 1 1575 0
 1877 0076 054B     		ldr	r3, .L132+4
 1878 0078 054A     		ldr	r2, .L132+8
 1879 007a 1278     		ldrb	r2, [r2]	@ zero_extendqisi2
 1880 007c 1A70     		strb	r2, [r3]
 1881              	.L124:
 1882              	.LBE2:
1576:.\Generated_Source\PSoC5/UART.c ****                     #else
1577:.\Generated_Source\PSoC5/UART.c ****                         UART_TXBITCTR_PERIOD_REG = tx_period;
1578:.\Generated_Source\PSoC5/UART.c ****                     #endif /* End UART_TXCLKGEN_DP */
1579:.\Generated_Source\PSoC5/UART.c **** 
1580:.\Generated_Source\PSoC5/UART.c ****                     #if( (UART_PARITY_TYPE != UART__B_UART__NONE_REVB) || \
1581:.\Generated_Source\PSoC5/UART.c ****                          (UART_PARITY_TYPE_SW != 0u) )
1582:.\Generated_Source\PSoC5/UART.c ****                         UART_WriteControlRegister(UART_ReadControlRegister() &
1583:.\Generated_Source\PSoC5/UART.c ****                                                       (uint8)~UART_CTRL_HD_SEND_BREAK);
1584:.\Generated_Source\PSoC5/UART.c ****                     #endif /* End UART_PARITY_TYPE != NONE */
1585:.\Generated_Source\PSoC5/UART.c ****                 }
1586:.\Generated_Source\PSoC5/UART.c ****             #endif    /* End UART_HD_ENABLED */
ARM GAS  C:\Users\SCOTTC~1\AppData\Local\Temp\ccs93tgd.s 			page 62


1587:.\Generated_Source\PSoC5/UART.c ****         }
1588:.\Generated_Source\PSoC5/UART.c ****     }
 1883              		.loc 1 1588 0
 1884 007e 1437     		adds	r7, r7, #20
 1885 0080 BD46     		mov	sp, r7
 1886              		@ sp needed
 1887 0082 5DF8047B 		ldr	r7, [sp], #4
 1888 0086 7047     		bx	lr
 1889              	.L133:
 1890              		.align	2
 1891              	.L132:
 1892 0088 00000000 		.word	UART_initVar
 1893 008c 32640040 		.word	1073767474
 1894 0090 07000000 		.word	tx_period.4998
 1895 0094 41640040 		.word	1073767489
 1896 0098 61640040 		.word	1073767521
 1897              		.cfi_endproc
 1898              	.LFE29:
 1899              		.size	UART_SendBreak, .-UART_SendBreak
 1900              		.section	.text.UART_SetTxAddressMode,"ax",%progbits
 1901              		.align	2
 1902              		.global	UART_SetTxAddressMode
 1903              		.thumb
 1904              		.thumb_func
 1905              		.type	UART_SetTxAddressMode, %function
 1906              	UART_SetTxAddressMode:
 1907              	.LFB30:
1589:.\Generated_Source\PSoC5/UART.c **** 
1590:.\Generated_Source\PSoC5/UART.c **** 
1591:.\Generated_Source\PSoC5/UART.c ****     /*******************************************************************************
1592:.\Generated_Source\PSoC5/UART.c ****     * Function Name: UART_SetTxAddressMode
1593:.\Generated_Source\PSoC5/UART.c ****     ********************************************************************************
1594:.\Generated_Source\PSoC5/UART.c ****     *
1595:.\Generated_Source\PSoC5/UART.c ****     * Summary:
1596:.\Generated_Source\PSoC5/UART.c ****     *  Set the transmit addressing mode
1597:.\Generated_Source\PSoC5/UART.c ****     *
1598:.\Generated_Source\PSoC5/UART.c ****     * Parameters:
1599:.\Generated_Source\PSoC5/UART.c ****     *  addressMode: 0 -> Space
1600:.\Generated_Source\PSoC5/UART.c ****     *               1 -> Mark
1601:.\Generated_Source\PSoC5/UART.c ****     *
1602:.\Generated_Source\PSoC5/UART.c ****     * Return:
1603:.\Generated_Source\PSoC5/UART.c ****     *  None.
1604:.\Generated_Source\PSoC5/UART.c ****     *
1605:.\Generated_Source\PSoC5/UART.c ****     *******************************************************************************/
1606:.\Generated_Source\PSoC5/UART.c ****     void UART_SetTxAddressMode(uint8 addressMode) 
1607:.\Generated_Source\PSoC5/UART.c ****     {
 1908              		.loc 1 1607 0
 1909              		.cfi_startproc
 1910              		@ args = 0, pretend = 0, frame = 8
 1911              		@ frame_needed = 1, uses_anonymous_args = 0
 1912              		@ link register save eliminated.
 1913 0000 80B4     		push	{r7}
 1914              		.cfi_def_cfa_offset 4
 1915              		.cfi_offset 7, -4
 1916 0002 83B0     		sub	sp, sp, #12
 1917              		.cfi_def_cfa_offset 16
 1918 0004 00AF     		add	r7, sp, #0
ARM GAS  C:\Users\SCOTTC~1\AppData\Local\Temp\ccs93tgd.s 			page 63


 1919              		.cfi_def_cfa_register 7
 1920 0006 0346     		mov	r3, r0
 1921 0008 FB71     		strb	r3, [r7, #7]
1608:.\Generated_Source\PSoC5/UART.c ****         /* Mark/Space sending enable*/
1609:.\Generated_Source\PSoC5/UART.c ****         if(addressMode != 0u)
1610:.\Generated_Source\PSoC5/UART.c ****         {
1611:.\Generated_Source\PSoC5/UART.c ****             #if( UART_CONTROL_REG_REMOVED == 0u )
1612:.\Generated_Source\PSoC5/UART.c ****                 UART_WriteControlRegister(UART_ReadControlRegister() |
1613:.\Generated_Source\PSoC5/UART.c ****                                                       UART_CTRL_MARK);
1614:.\Generated_Source\PSoC5/UART.c ****             #endif /* End UART_CONTROL_REG_REMOVED == 0u */
1615:.\Generated_Source\PSoC5/UART.c ****         }
1616:.\Generated_Source\PSoC5/UART.c ****         else
1617:.\Generated_Source\PSoC5/UART.c ****         {
1618:.\Generated_Source\PSoC5/UART.c ****             #if( UART_CONTROL_REG_REMOVED == 0u )
1619:.\Generated_Source\PSoC5/UART.c ****                 UART_WriteControlRegister(UART_ReadControlRegister() &
1620:.\Generated_Source\PSoC5/UART.c ****                                                     (uint8)~UART_CTRL_MARK);
1621:.\Generated_Source\PSoC5/UART.c ****             #endif /* End UART_CONTROL_REG_REMOVED == 0u */
1622:.\Generated_Source\PSoC5/UART.c ****         }
1623:.\Generated_Source\PSoC5/UART.c ****     }
 1922              		.loc 1 1623 0
 1923 000a 0C37     		adds	r7, r7, #12
 1924 000c BD46     		mov	sp, r7
 1925              		@ sp needed
 1926 000e 5DF8047B 		ldr	r7, [sp], #4
 1927 0012 7047     		bx	lr
 1928              		.cfi_endproc
 1929              	.LFE30:
 1930              		.size	UART_SetTxAddressMode, .-UART_SetTxAddressMode
 1931              		.bss
 1932              	tx_period.4998:
 1933 0007 00       		.space	1
 1934              		.text
 1935              	.Letext0:
 1936              		.file 2 ".\\Generated_Source\\PSoC5\\cytypes.h"